
mcu-test1.elf:     file format elf32-littlearm

Sections:
Idx Name          Size      VMA       LMA       File off  Algn
  0 .isr_vector   00000188  08000000  08000000  00010000  2**0
                  CONTENTS, ALLOC, LOAD, READONLY, DATA
  1 .text         00007144  08000190  08000190  00010190  2**4
                  CONTENTS, ALLOC, LOAD, READONLY, CODE
  2 .rodata       00000b74  080072d4  080072d4  000172d4  2**2
                  CONTENTS, ALLOC, LOAD, READONLY, DATA
  3 .ARM.extab    00000000  08007e48  08007e48  00020094  2**0
                  CONTENTS
  4 .ARM          00000008  08007e48  08007e48  00017e48  2**2
                  CONTENTS, ALLOC, LOAD, READONLY, DATA
  5 .preinit_array 00000000  08007e50  08007e50  00020094  2**0
                  CONTENTS, ALLOC, LOAD, DATA
  6 .init_array   00000004  08007e50  08007e50  00017e50  2**2
                  CONTENTS, ALLOC, LOAD, DATA
  7 .fini_array   00000004  08007e54  08007e54  00017e54  2**2
                  CONTENTS, ALLOC, LOAD, DATA
  8 .data         00000094  20000000  08007e58  00020000  2**2
                  CONTENTS, ALLOC, LOAD, DATA
  9 .ccmram       00000000  10000000  10000000  00020094  2**0
                  CONTENTS
 10 .bss          00003ee0  20000094  20000094  00020094  2**2
                  ALLOC
 11 ._user_heap_stack 00000604  20003f74  20003f74  00020094  2**0
                  ALLOC
 12 .ARM.attributes 00000030  00000000  00000000  00020094  2**0
                  CONTENTS, READONLY
 13 .comment      00000053  00000000  00000000  000200c4  2**0
                  CONTENTS, READONLY
 14 .debug_frame  00000afc  00000000  00000000  00020118  2**2
                  CONTENTS, READONLY, DEBUGGING, OCTETS

Disassembly of section .text:

08000190 <__do_global_dtors_aux>:
 8000190:	b510      	push	{r4, lr}
 8000192:	4c05      	ldr	r4, [pc, #20]	; (80001a8 <__do_global_dtors_aux+0x18>)
 8000194:	7823      	ldrb	r3, [r4, #0]
 8000196:	b933      	cbnz	r3, 80001a6 <__do_global_dtors_aux+0x16>
 8000198:	4b04      	ldr	r3, [pc, #16]	; (80001ac <__do_global_dtors_aux+0x1c>)
 800019a:	b113      	cbz	r3, 80001a2 <__do_global_dtors_aux+0x12>
 800019c:	4804      	ldr	r0, [pc, #16]	; (80001b0 <__do_global_dtors_aux+0x20>)
 800019e:	f3af 8000 	nop.w
 80001a2:	2301      	movs	r3, #1
 80001a4:	7023      	strb	r3, [r4, #0]
 80001a6:	bd10      	pop	{r4, pc}
 80001a8:	20000094 	.word	0x20000094
 80001ac:	00000000 	.word	0x00000000
 80001b0:	080072bc 	.word	0x080072bc

080001b4 <frame_dummy>:
 80001b4:	b508      	push	{r3, lr}
 80001b6:	4b03      	ldr	r3, [pc, #12]	; (80001c4 <frame_dummy+0x10>)
 80001b8:	b11b      	cbz	r3, 80001c2 <frame_dummy+0xe>
 80001ba:	4903      	ldr	r1, [pc, #12]	; (80001c8 <frame_dummy+0x14>)
 80001bc:	4803      	ldr	r0, [pc, #12]	; (80001cc <frame_dummy+0x18>)
 80001be:	f3af 8000 	nop.w
 80001c2:	bd08      	pop	{r3, pc}
 80001c4:	00000000 	.word	0x00000000
 80001c8:	20000098 	.word	0x20000098
 80001cc:	080072bc 	.word	0x080072bc

080001d0 <strlen>:
 80001d0:	4603      	mov	r3, r0
 80001d2:	f813 2b01 	ldrb.w	r2, [r3], #1
 80001d6:	2a00      	cmp	r2, #0
 80001d8:	d1fb      	bne.n	80001d2 <strlen+0x2>
 80001da:	1a18      	subs	r0, r3, r0
 80001dc:	3801      	subs	r0, #1
 80001de:	4770      	bx	lr

080001e0 <memchr>:
 80001e0:	f001 01ff 	and.w	r1, r1, #255	; 0xff
 80001e4:	2a10      	cmp	r2, #16
 80001e6:	db2b      	blt.n	8000240 <memchr+0x60>
 80001e8:	f010 0f07 	tst.w	r0, #7
 80001ec:	d008      	beq.n	8000200 <memchr+0x20>
 80001ee:	f810 3b01 	ldrb.w	r3, [r0], #1
 80001f2:	3a01      	subs	r2, #1
 80001f4:	428b      	cmp	r3, r1
 80001f6:	d02d      	beq.n	8000254 <memchr+0x74>
 80001f8:	f010 0f07 	tst.w	r0, #7
 80001fc:	b342      	cbz	r2, 8000250 <memchr+0x70>
 80001fe:	d1f6      	bne.n	80001ee <memchr+0xe>
 8000200:	b4f0      	push	{r4, r5, r6, r7}
 8000202:	ea41 2101 	orr.w	r1, r1, r1, lsl #8
 8000206:	ea41 4101 	orr.w	r1, r1, r1, lsl #16
 800020a:	f022 0407 	bic.w	r4, r2, #7
 800020e:	f07f 0700 	mvns.w	r7, #0
 8000212:	2300      	movs	r3, #0
 8000214:	e8f0 5602 	ldrd	r5, r6, [r0], #8
 8000218:	3c08      	subs	r4, #8
 800021a:	ea85 0501 	eor.w	r5, r5, r1
 800021e:	ea86 0601 	eor.w	r6, r6, r1
 8000222:	fa85 f547 	uadd8	r5, r5, r7
 8000226:	faa3 f587 	sel	r5, r3, r7
 800022a:	fa86 f647 	uadd8	r6, r6, r7
 800022e:	faa5 f687 	sel	r6, r5, r7
 8000232:	b98e      	cbnz	r6, 8000258 <memchr+0x78>
 8000234:	d1ee      	bne.n	8000214 <memchr+0x34>
 8000236:	bcf0      	pop	{r4, r5, r6, r7}
 8000238:	f001 01ff 	and.w	r1, r1, #255	; 0xff
 800023c:	f002 0207 	and.w	r2, r2, #7
 8000240:	b132      	cbz	r2, 8000250 <memchr+0x70>
 8000242:	f810 3b01 	ldrb.w	r3, [r0], #1
 8000246:	3a01      	subs	r2, #1
 8000248:	ea83 0301 	eor.w	r3, r3, r1
 800024c:	b113      	cbz	r3, 8000254 <memchr+0x74>
 800024e:	d1f8      	bne.n	8000242 <memchr+0x62>
 8000250:	2000      	movs	r0, #0
 8000252:	4770      	bx	lr
 8000254:	3801      	subs	r0, #1
 8000256:	4770      	bx	lr
 8000258:	2d00      	cmp	r5, #0
 800025a:	bf06      	itte	eq
 800025c:	4635      	moveq	r5, r6
 800025e:	3803      	subeq	r0, #3
 8000260:	3807      	subne	r0, #7
 8000262:	f015 0f01 	tst.w	r5, #1
 8000266:	d107      	bne.n	8000278 <memchr+0x98>
 8000268:	3001      	adds	r0, #1
 800026a:	f415 7f80 	tst.w	r5, #256	; 0x100
 800026e:	bf02      	ittt	eq
 8000270:	3001      	addeq	r0, #1
 8000272:	f415 3fc0 	tsteq.w	r5, #98304	; 0x18000
 8000276:	3001      	addeq	r0, #1
 8000278:	bcf0      	pop	{r4, r5, r6, r7}
 800027a:	3801      	subs	r0, #1
 800027c:	4770      	bx	lr
 800027e:	bf00      	nop

08000280 <__aeabi_dmul>:
 8000280:	b570      	push	{r4, r5, r6, lr}
 8000282:	f04f 0cff 	mov.w	ip, #255	; 0xff
 8000286:	f44c 6ce0 	orr.w	ip, ip, #1792	; 0x700
 800028a:	ea1c 5411 	ands.w	r4, ip, r1, lsr #20
 800028e:	bf1d      	ittte	ne
 8000290:	ea1c 5513 	andsne.w	r5, ip, r3, lsr #20
 8000294:	ea94 0f0c 	teqne	r4, ip
 8000298:	ea95 0f0c 	teqne	r5, ip
 800029c:	f000 f8de 	bleq	800045c <__aeabi_dmul+0x1dc>
 80002a0:	442c      	add	r4, r5
 80002a2:	ea81 0603 	eor.w	r6, r1, r3
 80002a6:	ea21 514c 	bic.w	r1, r1, ip, lsl #21
 80002aa:	ea23 534c 	bic.w	r3, r3, ip, lsl #21
 80002ae:	ea50 3501 	orrs.w	r5, r0, r1, lsl #12
 80002b2:	bf18      	it	ne
 80002b4:	ea52 3503 	orrsne.w	r5, r2, r3, lsl #12
 80002b8:	f441 1180 	orr.w	r1, r1, #1048576	; 0x100000
 80002bc:	f443 1380 	orr.w	r3, r3, #1048576	; 0x100000
 80002c0:	d038      	beq.n	8000334 <__aeabi_dmul+0xb4>
 80002c2:	fba0 ce02 	umull	ip, lr, r0, r2
 80002c6:	f04f 0500 	mov.w	r5, #0
 80002ca:	fbe1 e502 	umlal	lr, r5, r1, r2
 80002ce:	f006 4200 	and.w	r2, r6, #2147483648	; 0x80000000
 80002d2:	fbe0 e503 	umlal	lr, r5, r0, r3
 80002d6:	f04f 0600 	mov.w	r6, #0
 80002da:	fbe1 5603 	umlal	r5, r6, r1, r3
 80002de:	f09c 0f00 	teq	ip, #0
 80002e2:	bf18      	it	ne
 80002e4:	f04e 0e01 	orrne.w	lr, lr, #1
 80002e8:	f1a4 04ff 	sub.w	r4, r4, #255	; 0xff
 80002ec:	f5b6 7f00 	cmp.w	r6, #512	; 0x200
 80002f0:	f564 7440 	sbc.w	r4, r4, #768	; 0x300
 80002f4:	d204      	bcs.n	8000300 <__aeabi_dmul+0x80>
 80002f6:	ea5f 0e4e 	movs.w	lr, lr, lsl #1
 80002fa:	416d      	adcs	r5, r5
 80002fc:	eb46 0606 	adc.w	r6, r6, r6
 8000300:	ea42 21c6 	orr.w	r1, r2, r6, lsl #11
 8000304:	ea41 5155 	orr.w	r1, r1, r5, lsr #21
 8000308:	ea4f 20c5 	mov.w	r0, r5, lsl #11
 800030c:	ea40 505e 	orr.w	r0, r0, lr, lsr #21
 8000310:	ea4f 2ece 	mov.w	lr, lr, lsl #11
 8000314:	f1b4 0cfd 	subs.w	ip, r4, #253	; 0xfd
 8000318:	bf88      	it	hi
 800031a:	f5bc 6fe0 	cmphi.w	ip, #1792	; 0x700
 800031e:	d81e      	bhi.n	800035e <__aeabi_dmul+0xde>
 8000320:	f1be 4f00 	cmp.w	lr, #2147483648	; 0x80000000
 8000324:	bf08      	it	eq
 8000326:	ea5f 0e50 	movseq.w	lr, r0, lsr #1
 800032a:	f150 0000 	adcs.w	r0, r0, #0
 800032e:	eb41 5104 	adc.w	r1, r1, r4, lsl #20
 8000332:	bd70      	pop	{r4, r5, r6, pc}
 8000334:	f006 4600 	and.w	r6, r6, #2147483648	; 0x80000000
 8000338:	ea46 0101 	orr.w	r1, r6, r1
 800033c:	ea40 0002 	orr.w	r0, r0, r2
 8000340:	ea81 0103 	eor.w	r1, r1, r3
 8000344:	ebb4 045c 	subs.w	r4, r4, ip, lsr #1
 8000348:	bfc2      	ittt	gt
 800034a:	ebd4 050c 	rsbsgt	r5, r4, ip
 800034e:	ea41 5104 	orrgt.w	r1, r1, r4, lsl #20
 8000352:	bd70      	popgt	{r4, r5, r6, pc}
 8000354:	f441 1180 	orr.w	r1, r1, #1048576	; 0x100000
 8000358:	f04f 0e00 	mov.w	lr, #0
 800035c:	3c01      	subs	r4, #1
 800035e:	f300 80ab 	bgt.w	80004b8 <__aeabi_dmul+0x238>
 8000362:	f114 0f36 	cmn.w	r4, #54	; 0x36
 8000366:	bfde      	ittt	le
 8000368:	2000      	movle	r0, #0
 800036a:	f001 4100 	andle.w	r1, r1, #2147483648	; 0x80000000
 800036e:	bd70      	pople	{r4, r5, r6, pc}
 8000370:	f1c4 0400 	rsb	r4, r4, #0
 8000374:	3c20      	subs	r4, #32
 8000376:	da35      	bge.n	80003e4 <__aeabi_dmul+0x164>
 8000378:	340c      	adds	r4, #12
 800037a:	dc1b      	bgt.n	80003b4 <__aeabi_dmul+0x134>
 800037c:	f104 0414 	add.w	r4, r4, #20
 8000380:	f1c4 0520 	rsb	r5, r4, #32
 8000384:	fa00 f305 	lsl.w	r3, r0, r5
 8000388:	fa20 f004 	lsr.w	r0, r0, r4
 800038c:	fa01 f205 	lsl.w	r2, r1, r5
 8000390:	ea40 0002 	orr.w	r0, r0, r2
 8000394:	f001 4200 	and.w	r2, r1, #2147483648	; 0x80000000
 8000398:	f021 4100 	bic.w	r1, r1, #2147483648	; 0x80000000
 800039c:	eb10 70d3 	adds.w	r0, r0, r3, lsr #31
 80003a0:	fa21 f604 	lsr.w	r6, r1, r4
 80003a4:	eb42 0106 	adc.w	r1, r2, r6
 80003a8:	ea5e 0e43 	orrs.w	lr, lr, r3, lsl #1
 80003ac:	bf08      	it	eq
 80003ae:	ea20 70d3 	biceq.w	r0, r0, r3, lsr #31
 80003b2:	bd70      	pop	{r4, r5, r6, pc}
 80003b4:	f1c4 040c 	rsb	r4, r4, #12
 80003b8:	f1c4 0520 	rsb	r5, r4, #32
 80003bc:	fa00 f304 	lsl.w	r3, r0, r4
 80003c0:	fa20 f005 	lsr.w	r0, r0, r5
 80003c4:	fa01 f204 	lsl.w	r2, r1, r4
 80003c8:	ea40 0002 	orr.w	r0, r0, r2
 80003cc:	f001 4100 	and.w	r1, r1, #2147483648	; 0x80000000
 80003d0:	eb10 70d3 	adds.w	r0, r0, r3, lsr #31
 80003d4:	f141 0100 	adc.w	r1, r1, #0
 80003d8:	ea5e 0e43 	orrs.w	lr, lr, r3, lsl #1
 80003dc:	bf08      	it	eq
 80003de:	ea20 70d3 	biceq.w	r0, r0, r3, lsr #31
 80003e2:	bd70      	pop	{r4, r5, r6, pc}
 80003e4:	f1c4 0520 	rsb	r5, r4, #32
 80003e8:	fa00 f205 	lsl.w	r2, r0, r5
 80003ec:	ea4e 0e02 	orr.w	lr, lr, r2
 80003f0:	fa20 f304 	lsr.w	r3, r0, r4
 80003f4:	fa01 f205 	lsl.w	r2, r1, r5
 80003f8:	ea43 0302 	orr.w	r3, r3, r2
 80003fc:	fa21 f004 	lsr.w	r0, r1, r4
 8000400:	f001 4100 	and.w	r1, r1, #2147483648	; 0x80000000
 8000404:	fa21 f204 	lsr.w	r2, r1, r4
 8000408:	ea20 0002 	bic.w	r0, r0, r2
 800040c:	eb00 70d3 	add.w	r0, r0, r3, lsr #31
 8000410:	ea5e 0e43 	orrs.w	lr, lr, r3, lsl #1
 8000414:	bf08      	it	eq
 8000416:	ea20 70d3 	biceq.w	r0, r0, r3, lsr #31
 800041a:	bd70      	pop	{r4, r5, r6, pc}
 800041c:	f094 0f00 	teq	r4, #0
 8000420:	d10f      	bne.n	8000442 <__aeabi_dmul+0x1c2>
 8000422:	f001 4600 	and.w	r6, r1, #2147483648	; 0x80000000
 8000426:	0040      	lsls	r0, r0, #1
 8000428:	eb41 0101 	adc.w	r1, r1, r1
 800042c:	f411 1f80 	tst.w	r1, #1048576	; 0x100000
 8000430:	bf08      	it	eq
 8000432:	3c01      	subeq	r4, #1
 8000434:	d0f7      	beq.n	8000426 <__aeabi_dmul+0x1a6>
 8000436:	ea41 0106 	orr.w	r1, r1, r6
 800043a:	f095 0f00 	teq	r5, #0
 800043e:	bf18      	it	ne
 8000440:	4770      	bxne	lr
 8000442:	f003 4600 	and.w	r6, r3, #2147483648	; 0x80000000
 8000446:	0052      	lsls	r2, r2, #1
 8000448:	eb43 0303 	adc.w	r3, r3, r3
 800044c:	f413 1f80 	tst.w	r3, #1048576	; 0x100000
 8000450:	bf08      	it	eq
 8000452:	3d01      	subeq	r5, #1
 8000454:	d0f7      	beq.n	8000446 <__aeabi_dmul+0x1c6>
 8000456:	ea43 0306 	orr.w	r3, r3, r6
 800045a:	4770      	bx	lr
 800045c:	ea94 0f0c 	teq	r4, ip
 8000460:	ea0c 5513 	and.w	r5, ip, r3, lsr #20
 8000464:	bf18      	it	ne
 8000466:	ea95 0f0c 	teqne	r5, ip
 800046a:	d00c      	beq.n	8000486 <__aeabi_dmul+0x206>
 800046c:	ea50 0641 	orrs.w	r6, r0, r1, lsl #1
 8000470:	bf18      	it	ne
 8000472:	ea52 0643 	orrsne.w	r6, r2, r3, lsl #1
 8000476:	d1d1      	bne.n	800041c <__aeabi_dmul+0x19c>
 8000478:	ea81 0103 	eor.w	r1, r1, r3
 800047c:	f001 4100 	and.w	r1, r1, #2147483648	; 0x80000000
 8000480:	f04f 0000 	mov.w	r0, #0
 8000484:	bd70      	pop	{r4, r5, r6, pc}
 8000486:	ea50 0641 	orrs.w	r6, r0, r1, lsl #1
 800048a:	bf06      	itte	eq
 800048c:	4610      	moveq	r0, r2
 800048e:	4619      	moveq	r1, r3
 8000490:	ea52 0643 	orrsne.w	r6, r2, r3, lsl #1
 8000494:	d019      	beq.n	80004ca <__aeabi_dmul+0x24a>
 8000496:	ea94 0f0c 	teq	r4, ip
 800049a:	d102      	bne.n	80004a2 <__aeabi_dmul+0x222>
 800049c:	ea50 3601 	orrs.w	r6, r0, r1, lsl #12
 80004a0:	d113      	bne.n	80004ca <__aeabi_dmul+0x24a>
 80004a2:	ea95 0f0c 	teq	r5, ip
 80004a6:	d105      	bne.n	80004b4 <__aeabi_dmul+0x234>
 80004a8:	ea52 3603 	orrs.w	r6, r2, r3, lsl #12
 80004ac:	bf1c      	itt	ne
 80004ae:	4610      	movne	r0, r2
 80004b0:	4619      	movne	r1, r3
 80004b2:	d10a      	bne.n	80004ca <__aeabi_dmul+0x24a>
 80004b4:	ea81 0103 	eor.w	r1, r1, r3
 80004b8:	f001 4100 	and.w	r1, r1, #2147483648	; 0x80000000
 80004bc:	f041 41fe 	orr.w	r1, r1, #2130706432	; 0x7f000000
 80004c0:	f441 0170 	orr.w	r1, r1, #15728640	; 0xf00000
 80004c4:	f04f 0000 	mov.w	r0, #0
 80004c8:	bd70      	pop	{r4, r5, r6, pc}
 80004ca:	f041 41fe 	orr.w	r1, r1, #2130706432	; 0x7f000000
 80004ce:	f441 0178 	orr.w	r1, r1, #16252928	; 0xf80000
 80004d2:	bd70      	pop	{r4, r5, r6, pc}

080004d4 <__aeabi_drsub>:
 80004d4:	f081 4100 	eor.w	r1, r1, #2147483648	; 0x80000000
 80004d8:	e002      	b.n	80004e0 <__adddf3>
 80004da:	bf00      	nop

080004dc <__aeabi_dsub>:
 80004dc:	f083 4300 	eor.w	r3, r3, #2147483648	; 0x80000000

080004e0 <__adddf3>:
 80004e0:	b530      	push	{r4, r5, lr}
 80004e2:	ea4f 0441 	mov.w	r4, r1, lsl #1
 80004e6:	ea4f 0543 	mov.w	r5, r3, lsl #1
 80004ea:	ea94 0f05 	teq	r4, r5
 80004ee:	bf08      	it	eq
 80004f0:	ea90 0f02 	teqeq	r0, r2
 80004f4:	bf1f      	itttt	ne
 80004f6:	ea54 0c00 	orrsne.w	ip, r4, r0
 80004fa:	ea55 0c02 	orrsne.w	ip, r5, r2
 80004fe:	ea7f 5c64 	mvnsne.w	ip, r4, asr #21
 8000502:	ea7f 5c65 	mvnsne.w	ip, r5, asr #21
 8000506:	f000 80e2 	beq.w	80006ce <__adddf3+0x1ee>
 800050a:	ea4f 5454 	mov.w	r4, r4, lsr #21
 800050e:	ebd4 5555 	rsbs	r5, r4, r5, lsr #21
 8000512:	bfb8      	it	lt
 8000514:	426d      	neglt	r5, r5
 8000516:	dd0c      	ble.n	8000532 <__adddf3+0x52>
 8000518:	442c      	add	r4, r5
 800051a:	ea80 0202 	eor.w	r2, r0, r2
 800051e:	ea81 0303 	eor.w	r3, r1, r3
 8000522:	ea82 0000 	eor.w	r0, r2, r0
 8000526:	ea83 0101 	eor.w	r1, r3, r1
 800052a:	ea80 0202 	eor.w	r2, r0, r2
 800052e:	ea81 0303 	eor.w	r3, r1, r3
 8000532:	2d36      	cmp	r5, #54	; 0x36
 8000534:	bf88      	it	hi
 8000536:	bd30      	pophi	{r4, r5, pc}
 8000538:	f011 4f00 	tst.w	r1, #2147483648	; 0x80000000
 800053c:	ea4f 3101 	mov.w	r1, r1, lsl #12
 8000540:	f44f 1c80 	mov.w	ip, #1048576	; 0x100000
 8000544:	ea4c 3111 	orr.w	r1, ip, r1, lsr #12
 8000548:	d002      	beq.n	8000550 <__adddf3+0x70>
 800054a:	4240      	negs	r0, r0
 800054c:	eb61 0141 	sbc.w	r1, r1, r1, lsl #1
 8000550:	f013 4f00 	tst.w	r3, #2147483648	; 0x80000000
 8000554:	ea4f 3303 	mov.w	r3, r3, lsl #12
 8000558:	ea4c 3313 	orr.w	r3, ip, r3, lsr #12
 800055c:	d002      	beq.n	8000564 <__adddf3+0x84>
 800055e:	4252      	negs	r2, r2
 8000560:	eb63 0343 	sbc.w	r3, r3, r3, lsl #1
 8000564:	ea94 0f05 	teq	r4, r5
 8000568:	f000 80a7 	beq.w	80006ba <__adddf3+0x1da>
 800056c:	f1a4 0401 	sub.w	r4, r4, #1
 8000570:	f1d5 0e20 	rsbs	lr, r5, #32
 8000574:	db0d      	blt.n	8000592 <__adddf3+0xb2>
 8000576:	fa02 fc0e 	lsl.w	ip, r2, lr
 800057a:	fa22 f205 	lsr.w	r2, r2, r5
 800057e:	1880      	adds	r0, r0, r2
 8000580:	f141 0100 	adc.w	r1, r1, #0
 8000584:	fa03 f20e 	lsl.w	r2, r3, lr
 8000588:	1880      	adds	r0, r0, r2
 800058a:	fa43 f305 	asr.w	r3, r3, r5
 800058e:	4159      	adcs	r1, r3
 8000590:	e00e      	b.n	80005b0 <__adddf3+0xd0>
 8000592:	f1a5 0520 	sub.w	r5, r5, #32
 8000596:	f10e 0e20 	add.w	lr, lr, #32
 800059a:	2a01      	cmp	r2, #1
 800059c:	fa03 fc0e 	lsl.w	ip, r3, lr
 80005a0:	bf28      	it	cs
 80005a2:	f04c 0c02 	orrcs.w	ip, ip, #2
 80005a6:	fa43 f305 	asr.w	r3, r3, r5
 80005aa:	18c0      	adds	r0, r0, r3
 80005ac:	eb51 71e3 	adcs.w	r1, r1, r3, asr #31
 80005b0:	f001 4500 	and.w	r5, r1, #2147483648	; 0x80000000
 80005b4:	d507      	bpl.n	80005c6 <__adddf3+0xe6>
 80005b6:	f04f 0e00 	mov.w	lr, #0
 80005ba:	f1dc 0c00 	rsbs	ip, ip, #0
 80005be:	eb7e 0000 	sbcs.w	r0, lr, r0
 80005c2:	eb6e 0101 	sbc.w	r1, lr, r1
 80005c6:	f5b1 1f80 	cmp.w	r1, #1048576	; 0x100000
 80005ca:	d31b      	bcc.n	8000604 <__adddf3+0x124>
 80005cc:	f5b1 1f00 	cmp.w	r1, #2097152	; 0x200000
 80005d0:	d30c      	bcc.n	80005ec <__adddf3+0x10c>
 80005d2:	0849      	lsrs	r1, r1, #1
 80005d4:	ea5f 0030 	movs.w	r0, r0, rrx
 80005d8:	ea4f 0c3c 	mov.w	ip, ip, rrx
 80005dc:	f104 0401 	add.w	r4, r4, #1
 80005e0:	ea4f 5244 	mov.w	r2, r4, lsl #21
 80005e4:	f512 0f80 	cmn.w	r2, #4194304	; 0x400000
 80005e8:	f080 809a 	bcs.w	8000720 <__adddf3+0x240>
 80005ec:	f1bc 4f00 	cmp.w	ip, #2147483648	; 0x80000000
 80005f0:	bf08      	it	eq
 80005f2:	ea5f 0c50 	movseq.w	ip, r0, lsr #1
 80005f6:	f150 0000 	adcs.w	r0, r0, #0
 80005fa:	eb41 5104 	adc.w	r1, r1, r4, lsl #20
 80005fe:	ea41 0105 	orr.w	r1, r1, r5
 8000602:	bd30      	pop	{r4, r5, pc}
 8000604:	ea5f 0c4c 	movs.w	ip, ip, lsl #1
 8000608:	4140      	adcs	r0, r0
 800060a:	eb41 0101 	adc.w	r1, r1, r1
 800060e:	3c01      	subs	r4, #1
 8000610:	bf28      	it	cs
 8000612:	f5b1 1f80 	cmpcs.w	r1, #1048576	; 0x100000
 8000616:	d2e9      	bcs.n	80005ec <__adddf3+0x10c>
 8000618:	f091 0f00 	teq	r1, #0
 800061c:	bf04      	itt	eq
 800061e:	4601      	moveq	r1, r0
 8000620:	2000      	moveq	r0, #0
 8000622:	fab1 f381 	clz	r3, r1
 8000626:	bf08      	it	eq
 8000628:	3320      	addeq	r3, #32
 800062a:	f1a3 030b 	sub.w	r3, r3, #11
 800062e:	f1b3 0220 	subs.w	r2, r3, #32
 8000632:	da0c      	bge.n	800064e <__adddf3+0x16e>
 8000634:	320c      	adds	r2, #12
 8000636:	dd08      	ble.n	800064a <__adddf3+0x16a>
 8000638:	f102 0c14 	add.w	ip, r2, #20
 800063c:	f1c2 020c 	rsb	r2, r2, #12
 8000640:	fa01 f00c 	lsl.w	r0, r1, ip
 8000644:	fa21 f102 	lsr.w	r1, r1, r2
 8000648:	e00c      	b.n	8000664 <__adddf3+0x184>
 800064a:	f102 0214 	add.w	r2, r2, #20
 800064e:	bfd8      	it	le
 8000650:	f1c2 0c20 	rsble	ip, r2, #32
 8000654:	fa01 f102 	lsl.w	r1, r1, r2
 8000658:	fa20 fc0c 	lsr.w	ip, r0, ip
 800065c:	bfdc      	itt	le
 800065e:	ea41 010c 	orrle.w	r1, r1, ip
 8000662:	4090      	lslle	r0, r2
 8000664:	1ae4      	subs	r4, r4, r3
 8000666:	bfa2      	ittt	ge
 8000668:	eb01 5104 	addge.w	r1, r1, r4, lsl #20
 800066c:	4329      	orrge	r1, r5
 800066e:	bd30      	popge	{r4, r5, pc}
 8000670:	ea6f 0404 	mvn.w	r4, r4
 8000674:	3c1f      	subs	r4, #31
 8000676:	da1c      	bge.n	80006b2 <__adddf3+0x1d2>
 8000678:	340c      	adds	r4, #12
 800067a:	dc0e      	bgt.n	800069a <__adddf3+0x1ba>
 800067c:	f104 0414 	add.w	r4, r4, #20
 8000680:	f1c4 0220 	rsb	r2, r4, #32
 8000684:	fa20 f004 	lsr.w	r0, r0, r4
 8000688:	fa01 f302 	lsl.w	r3, r1, r2
 800068c:	ea40 0003 	orr.w	r0, r0, r3
 8000690:	fa21 f304 	lsr.w	r3, r1, r4
 8000694:	ea45 0103 	orr.w	r1, r5, r3
 8000698:	bd30      	pop	{r4, r5, pc}
 800069a:	f1c4 040c 	rsb	r4, r4, #12
 800069e:	f1c4 0220 	rsb	r2, r4, #32
 80006a2:	fa20 f002 	lsr.w	r0, r0, r2
 80006a6:	fa01 f304 	lsl.w	r3, r1, r4
 80006aa:	ea40 0003 	orr.w	r0, r0, r3
 80006ae:	4629      	mov	r1, r5
 80006b0:	bd30      	pop	{r4, r5, pc}
 80006b2:	fa21 f004 	lsr.w	r0, r1, r4
 80006b6:	4629      	mov	r1, r5
 80006b8:	bd30      	pop	{r4, r5, pc}
 80006ba:	f094 0f00 	teq	r4, #0
 80006be:	f483 1380 	eor.w	r3, r3, #1048576	; 0x100000
 80006c2:	bf06      	itte	eq
 80006c4:	f481 1180 	eoreq.w	r1, r1, #1048576	; 0x100000
 80006c8:	3401      	addeq	r4, #1
 80006ca:	3d01      	subne	r5, #1
 80006cc:	e74e      	b.n	800056c <__adddf3+0x8c>
 80006ce:	ea7f 5c64 	mvns.w	ip, r4, asr #21
 80006d2:	bf18      	it	ne
 80006d4:	ea7f 5c65 	mvnsne.w	ip, r5, asr #21
 80006d8:	d029      	beq.n	800072e <__adddf3+0x24e>
 80006da:	ea94 0f05 	teq	r4, r5
 80006de:	bf08      	it	eq
 80006e0:	ea90 0f02 	teqeq	r0, r2
 80006e4:	d005      	beq.n	80006f2 <__adddf3+0x212>
 80006e6:	ea54 0c00 	orrs.w	ip, r4, r0
 80006ea:	bf04      	itt	eq
 80006ec:	4619      	moveq	r1, r3
 80006ee:	4610      	moveq	r0, r2
 80006f0:	bd30      	pop	{r4, r5, pc}
 80006f2:	ea91 0f03 	teq	r1, r3
 80006f6:	bf1e      	ittt	ne
 80006f8:	2100      	movne	r1, #0
 80006fa:	2000      	movne	r0, #0
 80006fc:	bd30      	popne	{r4, r5, pc}
 80006fe:	ea5f 5c54 	movs.w	ip, r4, lsr #21
 8000702:	d105      	bne.n	8000710 <__adddf3+0x230>
 8000704:	0040      	lsls	r0, r0, #1
 8000706:	4149      	adcs	r1, r1
 8000708:	bf28      	it	cs
 800070a:	f041 4100 	orrcs.w	r1, r1, #2147483648	; 0x80000000
 800070e:	bd30      	pop	{r4, r5, pc}
 8000710:	f514 0480 	adds.w	r4, r4, #4194304	; 0x400000
 8000714:	bf3c      	itt	cc
 8000716:	f501 1180 	addcc.w	r1, r1, #1048576	; 0x100000
 800071a:	bd30      	popcc	{r4, r5, pc}
 800071c:	f001 4500 	and.w	r5, r1, #2147483648	; 0x80000000
 8000720:	f045 41fe 	orr.w	r1, r5, #2130706432	; 0x7f000000
 8000724:	f441 0170 	orr.w	r1, r1, #15728640	; 0xf00000
 8000728:	f04f 0000 	mov.w	r0, #0
 800072c:	bd30      	pop	{r4, r5, pc}
 800072e:	ea7f 5c64 	mvns.w	ip, r4, asr #21
 8000732:	bf1a      	itte	ne
 8000734:	4619      	movne	r1, r3
 8000736:	4610      	movne	r0, r2
 8000738:	ea7f 5c65 	mvnseq.w	ip, r5, asr #21
 800073c:	bf1c      	itt	ne
 800073e:	460b      	movne	r3, r1
 8000740:	4602      	movne	r2, r0
 8000742:	ea50 3401 	orrs.w	r4, r0, r1, lsl #12
 8000746:	bf06      	itte	eq
 8000748:	ea52 3503 	orrseq.w	r5, r2, r3, lsl #12
 800074c:	ea91 0f03 	teqeq	r1, r3
 8000750:	f441 2100 	orrne.w	r1, r1, #524288	; 0x80000
 8000754:	bd30      	pop	{r4, r5, pc}
 8000756:	bf00      	nop

08000758 <__aeabi_ui2d>:
 8000758:	f090 0f00 	teq	r0, #0
 800075c:	bf04      	itt	eq
 800075e:	2100      	moveq	r1, #0
 8000760:	4770      	bxeq	lr
 8000762:	b530      	push	{r4, r5, lr}
 8000764:	f44f 6480 	mov.w	r4, #1024	; 0x400
 8000768:	f104 0432 	add.w	r4, r4, #50	; 0x32
 800076c:	f04f 0500 	mov.w	r5, #0
 8000770:	f04f 0100 	mov.w	r1, #0
 8000774:	e750      	b.n	8000618 <__adddf3+0x138>
 8000776:	bf00      	nop

08000778 <__aeabi_i2d>:
 8000778:	f090 0f00 	teq	r0, #0
 800077c:	bf04      	itt	eq
 800077e:	2100      	moveq	r1, #0
 8000780:	4770      	bxeq	lr
 8000782:	b530      	push	{r4, r5, lr}
 8000784:	f44f 6480 	mov.w	r4, #1024	; 0x400
 8000788:	f104 0432 	add.w	r4, r4, #50	; 0x32
 800078c:	f010 4500 	ands.w	r5, r0, #2147483648	; 0x80000000
 8000790:	bf48      	it	mi
 8000792:	4240      	negmi	r0, r0
 8000794:	f04f 0100 	mov.w	r1, #0
 8000798:	e73e      	b.n	8000618 <__adddf3+0x138>
 800079a:	bf00      	nop

0800079c <__aeabi_f2d>:
 800079c:	0042      	lsls	r2, r0, #1
 800079e:	ea4f 01e2 	mov.w	r1, r2, asr #3
 80007a2:	ea4f 0131 	mov.w	r1, r1, rrx
 80007a6:	ea4f 7002 	mov.w	r0, r2, lsl #28
 80007aa:	bf1f      	itttt	ne
 80007ac:	f012 437f 	andsne.w	r3, r2, #4278190080	; 0xff000000
 80007b0:	f093 4f7f 	teqne	r3, #4278190080	; 0xff000000
 80007b4:	f081 5160 	eorne.w	r1, r1, #939524096	; 0x38000000
 80007b8:	4770      	bxne	lr
 80007ba:	f032 427f 	bics.w	r2, r2, #4278190080	; 0xff000000
 80007be:	bf08      	it	eq
 80007c0:	4770      	bxeq	lr
 80007c2:	f093 4f7f 	teq	r3, #4278190080	; 0xff000000
 80007c6:	bf04      	itt	eq
 80007c8:	f441 2100 	orreq.w	r1, r1, #524288	; 0x80000
 80007cc:	4770      	bxeq	lr
 80007ce:	b530      	push	{r4, r5, lr}
 80007d0:	f44f 7460 	mov.w	r4, #896	; 0x380
 80007d4:	f001 4500 	and.w	r5, r1, #2147483648	; 0x80000000
 80007d8:	f021 4100 	bic.w	r1, r1, #2147483648	; 0x80000000
 80007dc:	e71c      	b.n	8000618 <__adddf3+0x138>
 80007de:	bf00      	nop

080007e0 <__aeabi_ul2d>:
 80007e0:	ea50 0201 	orrs.w	r2, r0, r1
 80007e4:	bf08      	it	eq
 80007e6:	4770      	bxeq	lr
 80007e8:	b530      	push	{r4, r5, lr}
 80007ea:	f04f 0500 	mov.w	r5, #0
 80007ee:	e00a      	b.n	8000806 <__aeabi_l2d+0x16>

080007f0 <__aeabi_l2d>:
 80007f0:	ea50 0201 	orrs.w	r2, r0, r1
 80007f4:	bf08      	it	eq
 80007f6:	4770      	bxeq	lr
 80007f8:	b530      	push	{r4, r5, lr}
 80007fa:	f011 4500 	ands.w	r5, r1, #2147483648	; 0x80000000
 80007fe:	d502      	bpl.n	8000806 <__aeabi_l2d+0x16>
 8000800:	4240      	negs	r0, r0
 8000802:	eb61 0141 	sbc.w	r1, r1, r1, lsl #1
 8000806:	f44f 6480 	mov.w	r4, #1024	; 0x400
 800080a:	f104 0432 	add.w	r4, r4, #50	; 0x32
 800080e:	ea5f 5c91 	movs.w	ip, r1, lsr #22
 8000812:	f43f aed8 	beq.w	80005c6 <__adddf3+0xe6>
 8000816:	f04f 0203 	mov.w	r2, #3
 800081a:	ea5f 0cdc 	movs.w	ip, ip, lsr #3
 800081e:	bf18      	it	ne
 8000820:	3203      	addne	r2, #3
 8000822:	ea5f 0cdc 	movs.w	ip, ip, lsr #3
 8000826:	bf18      	it	ne
 8000828:	3203      	addne	r2, #3
 800082a:	eb02 02dc 	add.w	r2, r2, ip, lsr #3
 800082e:	f1c2 0320 	rsb	r3, r2, #32
 8000832:	fa00 fc03 	lsl.w	ip, r0, r3
 8000836:	fa20 f002 	lsr.w	r0, r0, r2
 800083a:	fa01 fe03 	lsl.w	lr, r1, r3
 800083e:	ea40 000e 	orr.w	r0, r0, lr
 8000842:	fa21 f102 	lsr.w	r1, r1, r2
 8000846:	4414      	add	r4, r2
 8000848:	e6bd      	b.n	80005c6 <__adddf3+0xe6>
 800084a:	bf00      	nop

0800084c <__aeabi_d2f>:
 800084c:	ea4f 0241 	mov.w	r2, r1, lsl #1
 8000850:	f1b2 43e0 	subs.w	r3, r2, #1879048192	; 0x70000000
 8000854:	bf24      	itt	cs
 8000856:	f5b3 1c00 	subscs.w	ip, r3, #2097152	; 0x200000
 800085a:	f1dc 5cfe 	rsbscs	ip, ip, #532676608	; 0x1fc00000
 800085e:	d90d      	bls.n	800087c <__aeabi_d2f+0x30>
 8000860:	f001 4c00 	and.w	ip, r1, #2147483648	; 0x80000000
 8000864:	ea4f 02c0 	mov.w	r2, r0, lsl #3
 8000868:	ea4c 7050 	orr.w	r0, ip, r0, lsr #29
 800086c:	f1b2 4f00 	cmp.w	r2, #2147483648	; 0x80000000
 8000870:	eb40 0083 	adc.w	r0, r0, r3, lsl #2
 8000874:	bf08      	it	eq
 8000876:	f020 0001 	biceq.w	r0, r0, #1
 800087a:	4770      	bx	lr
 800087c:	f011 4f80 	tst.w	r1, #1073741824	; 0x40000000
 8000880:	d121      	bne.n	80008c6 <__aeabi_d2f+0x7a>
 8000882:	f113 7238 	adds.w	r2, r3, #48234496	; 0x2e00000
 8000886:	bfbc      	itt	lt
 8000888:	f001 4000 	andlt.w	r0, r1, #2147483648	; 0x80000000
 800088c:	4770      	bxlt	lr
 800088e:	f441 1180 	orr.w	r1, r1, #1048576	; 0x100000
 8000892:	ea4f 5252 	mov.w	r2, r2, lsr #21
 8000896:	f1c2 0218 	rsb	r2, r2, #24
 800089a:	f1c2 0c20 	rsb	ip, r2, #32
 800089e:	fa10 f30c 	lsls.w	r3, r0, ip
 80008a2:	fa20 f002 	lsr.w	r0, r0, r2
 80008a6:	bf18      	it	ne
 80008a8:	f040 0001 	orrne.w	r0, r0, #1
 80008ac:	ea4f 23c1 	mov.w	r3, r1, lsl #11
 80008b0:	ea4f 23d3 	mov.w	r3, r3, lsr #11
 80008b4:	fa03 fc0c 	lsl.w	ip, r3, ip
 80008b8:	ea40 000c 	orr.w	r0, r0, ip
 80008bc:	fa23 f302 	lsr.w	r3, r3, r2
 80008c0:	ea4f 0343 	mov.w	r3, r3, lsl #1
 80008c4:	e7cc      	b.n	8000860 <__aeabi_d2f+0x14>
 80008c6:	ea7f 5362 	mvns.w	r3, r2, asr #21
 80008ca:	d107      	bne.n	80008dc <__aeabi_d2f+0x90>
 80008cc:	ea50 3301 	orrs.w	r3, r0, r1, lsl #12
 80008d0:	bf1e      	ittt	ne
 80008d2:	f04f 40fe 	movne.w	r0, #2130706432	; 0x7f000000
 80008d6:	f440 0040 	orrne.w	r0, r0, #12582912	; 0xc00000
 80008da:	4770      	bxne	lr
 80008dc:	f001 4000 	and.w	r0, r1, #2147483648	; 0x80000000
 80008e0:	f040 40fe 	orr.w	r0, r0, #2130706432	; 0x7f000000
 80008e4:	f440 0000 	orr.w	r0, r0, #8388608	; 0x800000
 80008e8:	4770      	bx	lr
 80008ea:	bf00      	nop

080008ec <__aeabi_uldivmod>:
 80008ec:	b953      	cbnz	r3, 8000904 <__aeabi_uldivmod+0x18>
 80008ee:	b94a      	cbnz	r2, 8000904 <__aeabi_uldivmod+0x18>
 80008f0:	2900      	cmp	r1, #0
 80008f2:	bf08      	it	eq
 80008f4:	2800      	cmpeq	r0, #0
 80008f6:	bf1c      	itt	ne
 80008f8:	f04f 31ff 	movne.w	r1, #4294967295
 80008fc:	f04f 30ff 	movne.w	r0, #4294967295
 8000900:	f000 b96e 	b.w	8000be0 <__aeabi_idiv0>
 8000904:	f1ad 0c08 	sub.w	ip, sp, #8
 8000908:	e96d ce04 	strd	ip, lr, [sp, #-16]!
 800090c:	f000 f806 	bl	800091c <__udivmoddi4>
 8000910:	f8dd e004 	ldr.w	lr, [sp, #4]
 8000914:	e9dd 2302 	ldrd	r2, r3, [sp, #8]
 8000918:	b004      	add	sp, #16
 800091a:	4770      	bx	lr

0800091c <__udivmoddi4>:
 800091c:	e92d 47f0 	stmdb	sp!, {r4, r5, r6, r7, r8, r9, sl, lr}
 8000920:	9d08      	ldr	r5, [sp, #32]
 8000922:	4604      	mov	r4, r0
 8000924:	468c      	mov	ip, r1
 8000926:	2b00      	cmp	r3, #0
 8000928:	f040 8083 	bne.w	8000a32 <__udivmoddi4+0x116>
 800092c:	428a      	cmp	r2, r1
 800092e:	4617      	mov	r7, r2
 8000930:	d947      	bls.n	80009c2 <__udivmoddi4+0xa6>
 8000932:	fab2 f282 	clz	r2, r2
 8000936:	b142      	cbz	r2, 800094a <__udivmoddi4+0x2e>
 8000938:	f1c2 0020 	rsb	r0, r2, #32
 800093c:	fa24 f000 	lsr.w	r0, r4, r0
 8000940:	4091      	lsls	r1, r2
 8000942:	4097      	lsls	r7, r2
 8000944:	ea40 0c01 	orr.w	ip, r0, r1
 8000948:	4094      	lsls	r4, r2
 800094a:	ea4f 4817 	mov.w	r8, r7, lsr #16
 800094e:	0c23      	lsrs	r3, r4, #16
 8000950:	fbbc f6f8 	udiv	r6, ip, r8
 8000954:	fa1f fe87 	uxth.w	lr, r7
 8000958:	fb08 c116 	mls	r1, r8, r6, ip
 800095c:	ea43 4301 	orr.w	r3, r3, r1, lsl #16
 8000960:	fb06 f10e 	mul.w	r1, r6, lr
 8000964:	4299      	cmp	r1, r3
 8000966:	d909      	bls.n	800097c <__udivmoddi4+0x60>
 8000968:	18fb      	adds	r3, r7, r3
 800096a:	f106 30ff 	add.w	r0, r6, #4294967295
 800096e:	f080 8119 	bcs.w	8000ba4 <__udivmoddi4+0x288>
 8000972:	4299      	cmp	r1, r3
 8000974:	f240 8116 	bls.w	8000ba4 <__udivmoddi4+0x288>
 8000978:	3e02      	subs	r6, #2
 800097a:	443b      	add	r3, r7
 800097c:	1a5b      	subs	r3, r3, r1
 800097e:	b2a4      	uxth	r4, r4
 8000980:	fbb3 f0f8 	udiv	r0, r3, r8
 8000984:	fb08 3310 	mls	r3, r8, r0, r3
 8000988:	ea44 4403 	orr.w	r4, r4, r3, lsl #16
 800098c:	fb00 fe0e 	mul.w	lr, r0, lr
 8000990:	45a6      	cmp	lr, r4
 8000992:	d909      	bls.n	80009a8 <__udivmoddi4+0x8c>
 8000994:	193c      	adds	r4, r7, r4
 8000996:	f100 33ff 	add.w	r3, r0, #4294967295
 800099a:	f080 8105 	bcs.w	8000ba8 <__udivmoddi4+0x28c>
 800099e:	45a6      	cmp	lr, r4
 80009a0:	f240 8102 	bls.w	8000ba8 <__udivmoddi4+0x28c>
 80009a4:	3802      	subs	r0, #2
 80009a6:	443c      	add	r4, r7
 80009a8:	ea40 4006 	orr.w	r0, r0, r6, lsl #16
 80009ac:	eba4 040e 	sub.w	r4, r4, lr
 80009b0:	2600      	movs	r6, #0
 80009b2:	b11d      	cbz	r5, 80009bc <__udivmoddi4+0xa0>
 80009b4:	40d4      	lsrs	r4, r2
 80009b6:	2300      	movs	r3, #0
 80009b8:	e9c5 4300 	strd	r4, r3, [r5]
 80009bc:	4631      	mov	r1, r6
 80009be:	e8bd 87f0 	ldmia.w	sp!, {r4, r5, r6, r7, r8, r9, sl, pc}
 80009c2:	b902      	cbnz	r2, 80009c6 <__udivmoddi4+0xaa>
 80009c4:	deff      	udf	#255	; 0xff
 80009c6:	fab2 f282 	clz	r2, r2
 80009ca:	2a00      	cmp	r2, #0
 80009cc:	d150      	bne.n	8000a70 <__udivmoddi4+0x154>
 80009ce:	1bcb      	subs	r3, r1, r7
 80009d0:	ea4f 4e17 	mov.w	lr, r7, lsr #16
 80009d4:	fa1f f887 	uxth.w	r8, r7
 80009d8:	2601      	movs	r6, #1
 80009da:	fbb3 fcfe 	udiv	ip, r3, lr
 80009de:	0c21      	lsrs	r1, r4, #16
 80009e0:	fb0e 331c 	mls	r3, lr, ip, r3
 80009e4:	ea41 4103 	orr.w	r1, r1, r3, lsl #16
 80009e8:	fb08 f30c 	mul.w	r3, r8, ip
 80009ec:	428b      	cmp	r3, r1
 80009ee:	d907      	bls.n	8000a00 <__udivmoddi4+0xe4>
 80009f0:	1879      	adds	r1, r7, r1
 80009f2:	f10c 30ff 	add.w	r0, ip, #4294967295
 80009f6:	d202      	bcs.n	80009fe <__udivmoddi4+0xe2>
 80009f8:	428b      	cmp	r3, r1
 80009fa:	f200 80e9 	bhi.w	8000bd0 <__udivmoddi4+0x2b4>
 80009fe:	4684      	mov	ip, r0
 8000a00:	1ac9      	subs	r1, r1, r3
 8000a02:	b2a3      	uxth	r3, r4
 8000a04:	fbb1 f0fe 	udiv	r0, r1, lr
 8000a08:	fb0e 1110 	mls	r1, lr, r0, r1
 8000a0c:	ea43 4401 	orr.w	r4, r3, r1, lsl #16
 8000a10:	fb08 f800 	mul.w	r8, r8, r0
 8000a14:	45a0      	cmp	r8, r4
 8000a16:	d907      	bls.n	8000a28 <__udivmoddi4+0x10c>
 8000a18:	193c      	adds	r4, r7, r4
 8000a1a:	f100 33ff 	add.w	r3, r0, #4294967295
 8000a1e:	d202      	bcs.n	8000a26 <__udivmoddi4+0x10a>
 8000a20:	45a0      	cmp	r8, r4
 8000a22:	f200 80d9 	bhi.w	8000bd8 <__udivmoddi4+0x2bc>
 8000a26:	4618      	mov	r0, r3
 8000a28:	eba4 0408 	sub.w	r4, r4, r8
 8000a2c:	ea40 400c 	orr.w	r0, r0, ip, lsl #16
 8000a30:	e7bf      	b.n	80009b2 <__udivmoddi4+0x96>
 8000a32:	428b      	cmp	r3, r1
 8000a34:	d909      	bls.n	8000a4a <__udivmoddi4+0x12e>
 8000a36:	2d00      	cmp	r5, #0
 8000a38:	f000 80b1 	beq.w	8000b9e <__udivmoddi4+0x282>
 8000a3c:	2600      	movs	r6, #0
 8000a3e:	e9c5 0100 	strd	r0, r1, [r5]
 8000a42:	4630      	mov	r0, r6
 8000a44:	4631      	mov	r1, r6
 8000a46:	e8bd 87f0 	ldmia.w	sp!, {r4, r5, r6, r7, r8, r9, sl, pc}
 8000a4a:	fab3 f683 	clz	r6, r3
 8000a4e:	2e00      	cmp	r6, #0
 8000a50:	d14a      	bne.n	8000ae8 <__udivmoddi4+0x1cc>
 8000a52:	428b      	cmp	r3, r1
 8000a54:	d302      	bcc.n	8000a5c <__udivmoddi4+0x140>
 8000a56:	4282      	cmp	r2, r0
 8000a58:	f200 80b8 	bhi.w	8000bcc <__udivmoddi4+0x2b0>
 8000a5c:	1a84      	subs	r4, r0, r2
 8000a5e:	eb61 0103 	sbc.w	r1, r1, r3
 8000a62:	2001      	movs	r0, #1
 8000a64:	468c      	mov	ip, r1
 8000a66:	2d00      	cmp	r5, #0
 8000a68:	d0a8      	beq.n	80009bc <__udivmoddi4+0xa0>
 8000a6a:	e9c5 4c00 	strd	r4, ip, [r5]
 8000a6e:	e7a5      	b.n	80009bc <__udivmoddi4+0xa0>
 8000a70:	f1c2 0320 	rsb	r3, r2, #32
 8000a74:	fa20 f603 	lsr.w	r6, r0, r3
 8000a78:	4097      	lsls	r7, r2
 8000a7a:	fa01 f002 	lsl.w	r0, r1, r2
 8000a7e:	ea4f 4e17 	mov.w	lr, r7, lsr #16
 8000a82:	40d9      	lsrs	r1, r3
 8000a84:	4330      	orrs	r0, r6
 8000a86:	0c03      	lsrs	r3, r0, #16
 8000a88:	fbb1 f6fe 	udiv	r6, r1, lr
 8000a8c:	fa1f f887 	uxth.w	r8, r7
 8000a90:	fb0e 1116 	mls	r1, lr, r6, r1
 8000a94:	ea43 4301 	orr.w	r3, r3, r1, lsl #16
 8000a98:	fb06 f108 	mul.w	r1, r6, r8
 8000a9c:	4299      	cmp	r1, r3
 8000a9e:	fa04 f402 	lsl.w	r4, r4, r2
 8000aa2:	d909      	bls.n	8000ab8 <__udivmoddi4+0x19c>
 8000aa4:	18fb      	adds	r3, r7, r3
 8000aa6:	f106 3cff 	add.w	ip, r6, #4294967295
 8000aaa:	f080 808d 	bcs.w	8000bc8 <__udivmoddi4+0x2ac>
 8000aae:	4299      	cmp	r1, r3
 8000ab0:	f240 808a 	bls.w	8000bc8 <__udivmoddi4+0x2ac>
 8000ab4:	3e02      	subs	r6, #2
 8000ab6:	443b      	add	r3, r7
 8000ab8:	1a5b      	subs	r3, r3, r1
 8000aba:	b281      	uxth	r1, r0
 8000abc:	fbb3 f0fe 	udiv	r0, r3, lr
 8000ac0:	fb0e 3310 	mls	r3, lr, r0, r3
 8000ac4:	ea41 4103 	orr.w	r1, r1, r3, lsl #16
 8000ac8:	fb00 f308 	mul.w	r3, r0, r8
 8000acc:	428b      	cmp	r3, r1
 8000ace:	d907      	bls.n	8000ae0 <__udivmoddi4+0x1c4>
 8000ad0:	1879      	adds	r1, r7, r1
 8000ad2:	f100 3cff 	add.w	ip, r0, #4294967295
 8000ad6:	d273      	bcs.n	8000bc0 <__udivmoddi4+0x2a4>
 8000ad8:	428b      	cmp	r3, r1
 8000ada:	d971      	bls.n	8000bc0 <__udivmoddi4+0x2a4>
 8000adc:	3802      	subs	r0, #2
 8000ade:	4439      	add	r1, r7
 8000ae0:	1acb      	subs	r3, r1, r3
 8000ae2:	ea40 4606 	orr.w	r6, r0, r6, lsl #16
 8000ae6:	e778      	b.n	80009da <__udivmoddi4+0xbe>
 8000ae8:	f1c6 0c20 	rsb	ip, r6, #32
 8000aec:	fa03 f406 	lsl.w	r4, r3, r6
 8000af0:	fa22 f30c 	lsr.w	r3, r2, ip
 8000af4:	431c      	orrs	r4, r3
 8000af6:	fa20 f70c 	lsr.w	r7, r0, ip
 8000afa:	fa01 f306 	lsl.w	r3, r1, r6
 8000afe:	ea4f 4e14 	mov.w	lr, r4, lsr #16
 8000b02:	fa21 f10c 	lsr.w	r1, r1, ip
 8000b06:	431f      	orrs	r7, r3
 8000b08:	0c3b      	lsrs	r3, r7, #16
 8000b0a:	fbb1 f9fe 	udiv	r9, r1, lr
 8000b0e:	fa1f f884 	uxth.w	r8, r4
 8000b12:	fb0e 1119 	mls	r1, lr, r9, r1
 8000b16:	ea43 4101 	orr.w	r1, r3, r1, lsl #16
 8000b1a:	fb09 fa08 	mul.w	sl, r9, r8
 8000b1e:	458a      	cmp	sl, r1
 8000b20:	fa02 f206 	lsl.w	r2, r2, r6
 8000b24:	fa00 f306 	lsl.w	r3, r0, r6
 8000b28:	d908      	bls.n	8000b3c <__udivmoddi4+0x220>
 8000b2a:	1861      	adds	r1, r4, r1
 8000b2c:	f109 30ff 	add.w	r0, r9, #4294967295
 8000b30:	d248      	bcs.n	8000bc4 <__udivmoddi4+0x2a8>
 8000b32:	458a      	cmp	sl, r1
 8000b34:	d946      	bls.n	8000bc4 <__udivmoddi4+0x2a8>
 8000b36:	f1a9 0902 	sub.w	r9, r9, #2
 8000b3a:	4421      	add	r1, r4
 8000b3c:	eba1 010a 	sub.w	r1, r1, sl
 8000b40:	b2bf      	uxth	r7, r7
 8000b42:	fbb1 f0fe 	udiv	r0, r1, lr
 8000b46:	fb0e 1110 	mls	r1, lr, r0, r1
 8000b4a:	ea47 4701 	orr.w	r7, r7, r1, lsl #16
 8000b4e:	fb00 f808 	mul.w	r8, r0, r8
 8000b52:	45b8      	cmp	r8, r7
 8000b54:	d907      	bls.n	8000b66 <__udivmoddi4+0x24a>
 8000b56:	19e7      	adds	r7, r4, r7
 8000b58:	f100 31ff 	add.w	r1, r0, #4294967295
 8000b5c:	d22e      	bcs.n	8000bbc <__udivmoddi4+0x2a0>
 8000b5e:	45b8      	cmp	r8, r7
 8000b60:	d92c      	bls.n	8000bbc <__udivmoddi4+0x2a0>
 8000b62:	3802      	subs	r0, #2
 8000b64:	4427      	add	r7, r4
 8000b66:	ea40 4009 	orr.w	r0, r0, r9, lsl #16
 8000b6a:	eba7 0708 	sub.w	r7, r7, r8
 8000b6e:	fba0 8902 	umull	r8, r9, r0, r2
 8000b72:	454f      	cmp	r7, r9
 8000b74:	46c6      	mov	lr, r8
 8000b76:	4649      	mov	r1, r9
 8000b78:	d31a      	bcc.n	8000bb0 <__udivmoddi4+0x294>
 8000b7a:	d017      	beq.n	8000bac <__udivmoddi4+0x290>
 8000b7c:	b15d      	cbz	r5, 8000b96 <__udivmoddi4+0x27a>
 8000b7e:	ebb3 020e 	subs.w	r2, r3, lr
 8000b82:	eb67 0701 	sbc.w	r7, r7, r1
 8000b86:	fa07 fc0c 	lsl.w	ip, r7, ip
 8000b8a:	40f2      	lsrs	r2, r6
 8000b8c:	ea4c 0202 	orr.w	r2, ip, r2
 8000b90:	40f7      	lsrs	r7, r6
 8000b92:	e9c5 2700 	strd	r2, r7, [r5]
 8000b96:	2600      	movs	r6, #0
 8000b98:	4631      	mov	r1, r6
 8000b9a:	e8bd 87f0 	ldmia.w	sp!, {r4, r5, r6, r7, r8, r9, sl, pc}
 8000b9e:	462e      	mov	r6, r5
 8000ba0:	4628      	mov	r0, r5
 8000ba2:	e70b      	b.n	80009bc <__udivmoddi4+0xa0>
 8000ba4:	4606      	mov	r6, r0
 8000ba6:	e6e9      	b.n	800097c <__udivmoddi4+0x60>
 8000ba8:	4618      	mov	r0, r3
 8000baa:	e6fd      	b.n	80009a8 <__udivmoddi4+0x8c>
 8000bac:	4543      	cmp	r3, r8
 8000bae:	d2e5      	bcs.n	8000b7c <__udivmoddi4+0x260>
 8000bb0:	ebb8 0e02 	subs.w	lr, r8, r2
 8000bb4:	eb69 0104 	sbc.w	r1, r9, r4
 8000bb8:	3801      	subs	r0, #1
 8000bba:	e7df      	b.n	8000b7c <__udivmoddi4+0x260>
 8000bbc:	4608      	mov	r0, r1
 8000bbe:	e7d2      	b.n	8000b66 <__udivmoddi4+0x24a>
 8000bc0:	4660      	mov	r0, ip
 8000bc2:	e78d      	b.n	8000ae0 <__udivmoddi4+0x1c4>
 8000bc4:	4681      	mov	r9, r0
 8000bc6:	e7b9      	b.n	8000b3c <__udivmoddi4+0x220>
 8000bc8:	4666      	mov	r6, ip
 8000bca:	e775      	b.n	8000ab8 <__udivmoddi4+0x19c>
 8000bcc:	4630      	mov	r0, r6
 8000bce:	e74a      	b.n	8000a66 <__udivmoddi4+0x14a>
 8000bd0:	f1ac 0c02 	sub.w	ip, ip, #2
 8000bd4:	4439      	add	r1, r7
 8000bd6:	e713      	b.n	8000a00 <__udivmoddi4+0xe4>
 8000bd8:	3802      	subs	r0, #2
 8000bda:	443c      	add	r4, r7
 8000bdc:	e724      	b.n	8000a28 <__udivmoddi4+0x10c>
 8000bde:	bf00      	nop

08000be0 <__aeabi_idiv0>:
 8000be0:	4770      	bx	lr
 8000be2:	bf00      	nop

08000be4 <readSampleFile>:
 8000be4:	b5f0      	push	{r4, r5, r6, r7, lr}
 8000be6:	b08b      	sub	sp, #44	; 0x2c
 8000be8:	ad06      	add	r5, sp, #24
 8000bea:	4606      	mov	r6, r0
 8000bec:	460c      	mov	r4, r1
 8000bee:	462f      	mov	r7, r5
 8000bf0:	4623      	mov	r3, r4
 8000bf2:	2201      	movs	r2, #1
 8000bf4:	a902      	add	r1, sp, #8
 8000bf6:	4630      	mov	r0, r6
 8000bf8:	f004 fd78 	bl	80056ec <f_read>
 8000bfc:	f89d 3008 	ldrb.w	r3, [sp, #8]
 8000c00:	f805 3b01 	strb.w	r3, [r5], #1
 8000c04:	2b0a      	cmp	r3, #10
 8000c06:	d107      	bne.n	8000c18 <readSampleFile+0x34>
 8000c08:	4906      	ldr	r1, [pc, #24]	; (8000c24 <readSampleFile+0x40>)
 8000c0a:	aa01      	add	r2, sp, #4
 8000c0c:	4638      	mov	r0, r7
 8000c0e:	f005 fa15 	bl	800603c <siscanf>
 8000c12:	9801      	ldr	r0, [sp, #4]
 8000c14:	b00b      	add	sp, #44	; 0x2c
 8000c16:	bdf0      	pop	{r4, r5, r6, r7, pc}
 8000c18:	6823      	ldr	r3, [r4, #0]
 8000c1a:	2b00      	cmp	r3, #0
 8000c1c:	dce8      	bgt.n	8000bf0 <readSampleFile+0xc>
 8000c1e:	2000      	movs	r0, #0
 8000c20:	e7f8      	b.n	8000c14 <readSampleFile+0x30>
 8000c22:	bf00      	nop
 8000c24:	08007bc0 	.word	0x08007bc0

08000c28 <SystemClock_Config>:
 8000c28:	b510      	push	{r4, lr}
 8000c2a:	b094      	sub	sp, #80	; 0x50
 8000c2c:	2210      	movs	r2, #16
 8000c2e:	2100      	movs	r1, #0
 8000c30:	a80a      	add	r0, sp, #40	; 0x28
 8000c32:	f005 f921 	bl	8005e78 <memset>
 8000c36:	2214      	movs	r2, #20
 8000c38:	2100      	movs	r1, #0
 8000c3a:	a803      	add	r0, sp, #12
 8000c3c:	f005 f91c 	bl	8005e78 <memset>
 8000c40:	4b20      	ldr	r3, [pc, #128]	; (8000cc4 <SystemClock_Config+0x9c>)
 8000c42:	2100      	movs	r1, #0
 8000c44:	9101      	str	r1, [sp, #4]
 8000c46:	6c1a      	ldr	r2, [r3, #64]	; 0x40
 8000c48:	f042 5280 	orr.w	r2, r2, #268435456	; 0x10000000
 8000c4c:	641a      	str	r2, [r3, #64]	; 0x40
 8000c4e:	6c1b      	ldr	r3, [r3, #64]	; 0x40
 8000c50:	f003 5380 	and.w	r3, r3, #268435456	; 0x10000000
 8000c54:	9301      	str	r3, [sp, #4]
 8000c56:	9b01      	ldr	r3, [sp, #4]
 8000c58:	4b1b      	ldr	r3, [pc, #108]	; (8000cc8 <SystemClock_Config+0xa0>)
 8000c5a:	9102      	str	r1, [sp, #8]
 8000c5c:	681a      	ldr	r2, [r3, #0]
 8000c5e:	f442 4280 	orr.w	r2, r2, #16384	; 0x4000
 8000c62:	601a      	str	r2, [r3, #0]
 8000c64:	681b      	ldr	r3, [r3, #0]
 8000c66:	f403 4380 	and.w	r3, r3, #16384	; 0x4000
 8000c6a:	9302      	str	r3, [sp, #8]
 8000c6c:	9b02      	ldr	r3, [sp, #8]
 8000c6e:	2101      	movs	r1, #1
 8000c70:	f44f 3380 	mov.w	r3, #65536	; 0x10000
 8000c74:	2402      	movs	r4, #2
 8000c76:	e9cd 1308 	strd	r1, r3, [sp, #32]
 8000c7a:	f44f 0380 	mov.w	r3, #4194304	; 0x400000
 8000c7e:	2008      	movs	r0, #8
 8000c80:	e9cd 430e 	strd	r4, r3, [sp, #56]	; 0x38
 8000c84:	f44f 73a8 	mov.w	r3, #336	; 0x150
 8000c88:	e9cd 0310 	strd	r0, r3, [sp, #64]	; 0x40
 8000c8c:	2307      	movs	r3, #7
 8000c8e:	a808      	add	r0, sp, #32
 8000c90:	9412      	str	r4, [sp, #72]	; 0x48
 8000c92:	9313      	str	r3, [sp, #76]	; 0x4c
 8000c94:	f001 fbde 	bl	8002454 <HAL_RCC_OscConfig>
 8000c98:	b108      	cbz	r0, 8000c9e <SystemClock_Config+0x76>
 8000c9a:	b672      	cpsid	i
 8000c9c:	e7fe      	b.n	8000c9c <SystemClock_Config+0x74>
 8000c9e:	230f      	movs	r3, #15
 8000ca0:	e9cd 3403 	strd	r3, r4, [sp, #12]
 8000ca4:	9005      	str	r0, [sp, #20]
 8000ca6:	f44f 52a0 	mov.w	r2, #5120	; 0x1400
 8000caa:	f44f 5380 	mov.w	r3, #4096	; 0x1000
 8000cae:	2105      	movs	r1, #5
 8000cb0:	a803      	add	r0, sp, #12
 8000cb2:	e9cd 2306 	strd	r2, r3, [sp, #24]
 8000cb6:	f001 fda7 	bl	8002808 <HAL_RCC_ClockConfig>
 8000cba:	b108      	cbz	r0, 8000cc0 <SystemClock_Config+0x98>
 8000cbc:	b672      	cpsid	i
 8000cbe:	e7fe      	b.n	8000cbe <SystemClock_Config+0x96>
 8000cc0:	b014      	add	sp, #80	; 0x50
 8000cc2:	bd10      	pop	{r4, pc}
 8000cc4:	40023800 	.word	0x40023800
 8000cc8:	40007000 	.word	0x40007000

08000ccc <main>:
 8000ccc:	e92d 47f0 	stmdb	sp!, {r4, r5, r6, r7, r8, r9, sl, lr}
 8000cd0:	ed2d 8b02 	vpush	{d8}
 8000cd4:	f5ad 5d28 	sub.w	sp, sp, #10752	; 0x2a00
 8000cd8:	b084      	sub	sp, #16
 8000cda:	f50d 54cf 	add.w	r4, sp, #6624	; 0x19e0
 8000cde:	f000 fda9 	bl	8001834 <HAL_Init>
 8000ce2:	f7ff ffa1 	bl	8000c28 <SystemClock_Config>
 8000ce6:	2214      	movs	r2, #20
 8000ce8:	2100      	movs	r1, #0
 8000cea:	4620      	mov	r0, r4
 8000cec:	f005 f8c4 	bl	8005e78 <memset>
 8000cf0:	2500      	movs	r5, #0
 8000cf2:	4b97      	ldr	r3, [pc, #604]	; (8000f50 <main+0x284>)
 8000cf4:	9503      	str	r5, [sp, #12]
 8000cf6:	6b1a      	ldr	r2, [r3, #48]	; 0x30
 8000cf8:	4896      	ldr	r0, [pc, #600]	; (8000f54 <main+0x288>)
 8000cfa:	f8df a258 	ldr.w	sl, [pc, #600]	; 8000f54 <main+0x288>
 8000cfe:	f8df 927c 	ldr.w	r9, [pc, #636]	; 8000f7c <main+0x2b0>
 8000d02:	f042 0280 	orr.w	r2, r2, #128	; 0x80
 8000d06:	631a      	str	r2, [r3, #48]	; 0x30
 8000d08:	6b1a      	ldr	r2, [r3, #48]	; 0x30
 8000d0a:	f002 0280 	and.w	r2, r2, #128	; 0x80
 8000d0e:	9203      	str	r2, [sp, #12]
 8000d10:	9a03      	ldr	r2, [sp, #12]
 8000d12:	9504      	str	r5, [sp, #16]
 8000d14:	6b1a      	ldr	r2, [r3, #48]	; 0x30
 8000d16:	f042 0204 	orr.w	r2, r2, #4
 8000d1a:	631a      	str	r2, [r3, #48]	; 0x30
 8000d1c:	6b1a      	ldr	r2, [r3, #48]	; 0x30
 8000d1e:	f002 0204 	and.w	r2, r2, #4
 8000d22:	9204      	str	r2, [sp, #16]
 8000d24:	9a04      	ldr	r2, [sp, #16]
 8000d26:	9505      	str	r5, [sp, #20]
 8000d28:	6b1a      	ldr	r2, [r3, #48]	; 0x30
 8000d2a:	f042 0201 	orr.w	r2, r2, #1
 8000d2e:	631a      	str	r2, [r3, #48]	; 0x30
 8000d30:	6b1a      	ldr	r2, [r3, #48]	; 0x30
 8000d32:	f002 0201 	and.w	r2, r2, #1
 8000d36:	9205      	str	r2, [sp, #20]
 8000d38:	9a05      	ldr	r2, [sp, #20]
 8000d3a:	9506      	str	r5, [sp, #24]
 8000d3c:	6b1a      	ldr	r2, [r3, #48]	; 0x30
 8000d3e:	f042 0208 	orr.w	r2, r2, #8
 8000d42:	631a      	str	r2, [r3, #48]	; 0x30
 8000d44:	6b1b      	ldr	r3, [r3, #48]	; 0x30
 8000d46:	f003 0308 	and.w	r3, r3, #8
 8000d4a:	f50d 57cf 	add.w	r7, sp, #6624	; 0x19e0
 8000d4e:	462a      	mov	r2, r5
 8000d50:	9306      	str	r3, [sp, #24]
 8000d52:	2101      	movs	r1, #1
 8000d54:	9b06      	ldr	r3, [sp, #24]
 8000d56:	3710      	adds	r7, #16
 8000d58:	f000 fef4 	bl	8001b44 <HAL_GPIO_WritePin>
 8000d5c:	462a      	mov	r2, r5
 8000d5e:	487e      	ldr	r0, [pc, #504]	; (8000f58 <main+0x28c>)
 8000d60:	f44f 4170 	mov.w	r1, #61440	; 0xf000
 8000d64:	f000 feee 	bl	8001b44 <HAL_GPIO_WritePin>
 8000d68:	2601      	movs	r6, #1
 8000d6a:	487a      	ldr	r0, [pc, #488]	; (8000f54 <main+0x288>)
 8000d6c:	60e5      	str	r5, [r4, #12]
 8000d6e:	4621      	mov	r1, r4
 8000d70:	e9c4 6501 	strd	r6, r5, [r4, #4]
 8000d74:	f847 6c10 	str.w	r6, [r7, #-16]
 8000d78:	f000 fe04 	bl	8001984 <HAL_GPIO_Init>
 8000d7c:	4877      	ldr	r0, [pc, #476]	; (8000f5c <main+0x290>)
 8000d7e:	f847 6c10 	str.w	r6, [r7, #-16]
 8000d82:	4621      	mov	r1, r4
 8000d84:	e9c4 5501 	strd	r5, r5, [r4, #4]
 8000d88:	f000 fdfc 	bl	8001984 <HAL_GPIO_Init>
 8000d8c:	f44f 4370 	mov.w	r3, #61440	; 0xf000
 8000d90:	4871      	ldr	r0, [pc, #452]	; (8000f58 <main+0x28c>)
 8000d92:	f847 3c10 	str.w	r3, [r7, #-16]
 8000d96:	4621      	mov	r1, r4
 8000d98:	e9c4 6501 	strd	r6, r5, [r4, #4]
 8000d9c:	60e5      	str	r5, [r4, #12]
 8000d9e:	f000 fdf1 	bl	8001984 <HAL_GPIO_Init>
 8000da2:	f002 f977 	bl	8003094 <MX_FATFS_Init>
 8000da6:	f004 fec1 	bl	8005b2c <MX_USB_HOST_Init>
 8000daa:	2104      	movs	r1, #4
 8000dac:	a80b      	add	r0, sp, #44	; 0x2c
 8000dae:	f88d 502c 	strb.w	r5, [sp, #44]	; 0x2c
 8000db2:	f000 fa4f 	bl	8001254 <pedalboard_append>
 8000db6:	4631      	mov	r1, r6
 8000db8:	a80b      	add	r0, sp, #44	; 0x2c
 8000dba:	f000 fa4b 	bl	8001254 <pedalboard_append>
 8000dbe:	2105      	movs	r1, #5
 8000dc0:	a80b      	add	r0, sp, #44	; 0x2c
 8000dc2:	f000 fa47 	bl	8001254 <pedalboard_append>
 8000dc6:	4d64      	ldr	r5, [pc, #400]	; (8000f58 <main+0x28c>)
 8000dc8:	f004 fed0 	bl	8005b6c <MX_USB_HOST_Process>
 8000dcc:	2200      	movs	r2, #0
 8000dce:	2101      	movs	r1, #1
 8000dd0:	4650      	mov	r0, sl
 8000dd2:	f000 feb7 	bl	8001b44 <HAL_GPIO_WritePin>
 8000dd6:	f899 6000 	ldrb.w	r6, [r9]
 8000dda:	2e02      	cmp	r6, #2
 8000ddc:	d165      	bne.n	8000eaa <main+0x1de>
 8000dde:	485f      	ldr	r0, [pc, #380]	; (8000f5c <main+0x290>)
 8000de0:	2101      	movs	r1, #1
 8000de2:	f000 fea9 	bl	8001b38 <HAL_GPIO_ReadPin>
 8000de6:	2801      	cmp	r0, #1
 8000de8:	4607      	mov	r7, r0
 8000dea:	d1ed      	bne.n	8000dc8 <main+0xfc>
 8000dec:	4602      	mov	r2, r0
 8000dee:	495c      	ldr	r1, [pc, #368]	; (8000f60 <main+0x294>)
 8000df0:	f50d 601b 	add.w	r0, sp, #2480	; 0x9b0
 8000df4:	f004 fb76 	bl	80054e4 <f_open>
 8000df8:	495a      	ldr	r1, [pc, #360]	; (8000f64 <main+0x298>)
 8000dfa:	2208      	movs	r2, #8
 8000dfc:	4680      	mov	r8, r0
 8000dfe:	4620      	mov	r0, r4
 8000e00:	f004 fb70 	bl	80054e4 <f_open>
 8000e04:	4620      	mov	r0, r4
 8000e06:	f004 fe4a 	bl	8005a9e <f_close>
 8000e0a:	4632      	mov	r2, r6
 8000e0c:	4955      	ldr	r1, [pc, #340]	; (8000f64 <main+0x298>)
 8000e0e:	4620      	mov	r0, r4
 8000e10:	f004 fb68 	bl	80054e4 <f_open>
 8000e14:	ea48 0000 	orr.w	r0, r8, r0
 8000e18:	f010 0fff 	tst.w	r0, #255	; 0xff
 8000e1c:	463a      	mov	r2, r7
 8000e1e:	d137      	bne.n	8000e90 <main+0x1c4>
 8000e20:	f44f 5180 	mov.w	r1, #4096	; 0x1000
 8000e24:	4628      	mov	r0, r5
 8000e26:	f000 fe8d 	bl	8001b44 <HAL_GPIO_WritePin>
 8000e2a:	4e4f      	ldr	r6, [pc, #316]	; (8000f68 <main+0x29c>)
 8000e2c:	a901      	add	r1, sp, #4
 8000e2e:	f50d 601b 	add.w	r0, sp, #2480	; 0x9b0
 8000e32:	f7ff fed7 	bl	8000be4 <readSampleFile>
 8000e36:	ee07 0a90 	vmov	s15, r0
 8000e3a:	a80b      	add	r0, sp, #44	; 0x2c
 8000e3c:	eeb8 0ae7 	vcvt.f32.s32	s0, s15
 8000e40:	f000 fa6c 	bl	800131c <pedalboard_process>
 8000e44:	eefd 7ac0 	vcvt.s32.f32	s15, s0
 8000e48:	4631      	mov	r1, r6
 8000e4a:	ee17 2a90 	vmov	r2, s15
 8000e4e:	a807      	add	r0, sp, #28
 8000e50:	f005 f8d4 	bl	8005ffc <siprintf>
 8000e54:	a807      	add	r0, sp, #28
 8000e56:	f7ff f9bb 	bl	80001d0 <strlen>
 8000e5a:	ab02      	add	r3, sp, #8
 8000e5c:	4602      	mov	r2, r0
 8000e5e:	a907      	add	r1, sp, #28
 8000e60:	4620      	mov	r0, r4
 8000e62:	f004 fd03 	bl	800586c <f_write>
 8000e66:	9b01      	ldr	r3, [sp, #4]
 8000e68:	2b00      	cmp	r3, #0
 8000e6a:	dcdf      	bgt.n	8000e2c <main+0x160>
 8000e6c:	f44f 707a 	mov.w	r0, #1000	; 0x3e8
 8000e70:	f000 fd0c 	bl	800188c <HAL_Delay>
 8000e74:	2200      	movs	r2, #0
 8000e76:	f44f 5180 	mov.w	r1, #4096	; 0x1000
 8000e7a:	4628      	mov	r0, r5
 8000e7c:	f000 fe62 	bl	8001b44 <HAL_GPIO_WritePin>
 8000e80:	f50d 601b 	add.w	r0, sp, #2480	; 0x9b0
 8000e84:	f004 fe0b 	bl	8005a9e <f_close>
 8000e88:	4620      	mov	r0, r4
 8000e8a:	f004 fe08 	bl	8005a9e <f_close>
 8000e8e:	e79b      	b.n	8000dc8 <main+0xfc>
 8000e90:	f44f 4180 	mov.w	r1, #16384	; 0x4000
 8000e94:	4628      	mov	r0, r5
 8000e96:	f000 fe55 	bl	8001b44 <HAL_GPIO_WritePin>
 8000e9a:	f44f 707a 	mov.w	r0, #1000	; 0x3e8
 8000e9e:	f000 fcf5 	bl	800188c <HAL_Delay>
 8000ea2:	2200      	movs	r2, #0
 8000ea4:	f44f 4180 	mov.w	r1, #16384	; 0x4000
 8000ea8:	e7e7      	b.n	8000e7a <main+0x1ae>
 8000eaa:	2e03      	cmp	r6, #3
 8000eac:	d001      	beq.n	8000eb2 <main+0x1e6>
 8000eae:	2e00      	cmp	r6, #0
 8000eb0:	d13d      	bne.n	8000f2e <main+0x262>
 8000eb2:	2200      	movs	r2, #0
 8000eb4:	f44f 5180 	mov.w	r1, #4096	; 0x1000
 8000eb8:	4628      	mov	r0, r5
 8000eba:	f000 fe43 	bl	8001b44 <HAL_GPIO_WritePin>
 8000ebe:	2200      	movs	r2, #0
 8000ec0:	f44f 5100 	mov.w	r1, #8192	; 0x2000
 8000ec4:	4628      	mov	r0, r5
 8000ec6:	f000 fe3d 	bl	8001b44 <HAL_GPIO_WritePin>
 8000eca:	2200      	movs	r2, #0
 8000ecc:	f44f 4180 	mov.w	r1, #16384	; 0x4000
 8000ed0:	4628      	mov	r0, r5
 8000ed2:	f000 fe37 	bl	8001b44 <HAL_GPIO_WritePin>
 8000ed6:	2200      	movs	r2, #0
 8000ed8:	f44f 4100 	mov.w	r1, #32768	; 0x8000
 8000edc:	4628      	mov	r0, r5
 8000ede:	f000 fe31 	bl	8001b44 <HAL_GPIO_WritePin>
 8000ee2:	481e      	ldr	r0, [pc, #120]	; (8000f5c <main+0x290>)
 8000ee4:	2101      	movs	r1, #1
 8000ee6:	f000 fe27 	bl	8001b38 <HAL_GPIO_ReadPin>
 8000eea:	2801      	cmp	r0, #1
 8000eec:	4602      	mov	r2, r0
 8000eee:	f47f af6b 	bne.w	8000dc8 <main+0xfc>
 8000ef2:	f44f 5180 	mov.w	r1, #4096	; 0x1000
 8000ef6:	4628      	mov	r0, r5
 8000ef8:	f000 fe24 	bl	8001b44 <HAL_GPIO_WritePin>
 8000efc:	ed9f 8a1b 	vldr	s16, [pc, #108]	; 8000f6c <main+0x2a0>
 8000f00:	4f1b      	ldr	r7, [pc, #108]	; (8000f70 <main+0x2a4>)
 8000f02:	2600      	movs	r6, #0
 8000f04:	4631      	mov	r1, r6
 8000f06:	eef0 0a00 	vmov.f32	s1, #0	; 0x40000000  2.0
 8000f0a:	2073      	movs	r0, #115	; 0x73
 8000f0c:	eeb0 0a48 	vmov.f32	s0, s16
 8000f10:	f000 faee 	bl	80014f0 <wave_gen>
 8000f14:	3601      	adds	r6, #1
 8000f16:	a80b      	add	r0, sp, #44	; 0x2c
 8000f18:	f000 fa00 	bl	800131c <pedalboard_process>
 8000f1c:	42be      	cmp	r6, r7
 8000f1e:	d1f1      	bne.n	8000f04 <main+0x238>
 8000f20:	2200      	movs	r2, #0
 8000f22:	f44f 5180 	mov.w	r1, #4096	; 0x1000
 8000f26:	4628      	mov	r0, r5
 8000f28:	f000 fe0c 	bl	8001b44 <HAL_GPIO_WritePin>
 8000f2c:	e74c      	b.n	8000dc8 <main+0xfc>
 8000f2e:	2e01      	cmp	r6, #1
 8000f30:	f47f af4a 	bne.w	8000dc8 <main+0xfc>
 8000f34:	2200      	movs	r2, #0
 8000f36:	490f      	ldr	r1, [pc, #60]	; (8000f74 <main+0x2a8>)
 8000f38:	480f      	ldr	r0, [pc, #60]	; (8000f78 <main+0x2ac>)
 8000f3a:	f004 fa9f 	bl	800547c <f_mount>
 8000f3e:	4632      	mov	r2, r6
 8000f40:	b910      	cbnz	r0, 8000f48 <main+0x27c>
 8000f42:	f44f 4100 	mov.w	r1, #32768	; 0x8000
 8000f46:	e7ee      	b.n	8000f26 <main+0x25a>
 8000f48:	f44f 4180 	mov.w	r1, #16384	; 0x4000
 8000f4c:	e7eb      	b.n	8000f26 <main+0x25a>
 8000f4e:	bf00      	nop
 8000f50:	40023800 	.word	0x40023800
 8000f54:	40020800 	.word	0x40020800
 8000f58:	40020c00 	.word	0x40020c00
 8000f5c:	40020000 	.word	0x40020000
 8000f60:	08007bc4 	.word	0x08007bc4
 8000f64:	08007bcc 	.word	0x08007bcc
 8000f68:	08007bd5 	.word	0x08007bd5
 8000f6c:	467a0000 	.word	0x467a0000
 8000f70:	00142ff8 	.word	0x00142ff8
 8000f74:	2000181c 	.word	0x2000181c
 8000f78:	200007e4 	.word	0x200007e4
 8000f7c:	200007d8 	.word	0x200007d8

08000f80 <Error_Handler>:
 8000f80:	b672      	cpsid	i
 8000f82:	e7fe      	b.n	8000f82 <Error_Handler+0x2>

08000f84 <bypass_process>:
 8000f84:	4770      	bx	lr
	...

08000f88 <bitcrusher_rs_process>:
 8000f88:	ed90 7a10 	vldr	s14, [r0, #64]	; 0x40
 8000f8c:	eec0 7a07 	vdiv.f32	s15, s0, s14
 8000f90:	b5f8      	push	{r3, r4, r5, r6, r7, lr}
 8000f92:	ed2d 8b02 	vpush	{d8}
 8000f96:	eefd 7ae7 	vcvt.s32.f32	s15, s15
 8000f9a:	edd0 8a18 	vldr	s17, [r0, #96]	; 0x60
 8000f9e:	ee17 3a90 	vmov	r3, s15
 8000fa2:	b21b      	sxth	r3, r3
 8000fa4:	ee07 3a90 	vmov	s15, r3
 8000fa8:	eef8 7ae7 	vcvt.f32.s32	s15, s15
 8000fac:	eeb0 8a40 	vmov.f32	s16, s0
 8000fb0:	ee67 7a87 	vmul.f32	s15, s15, s14
 8000fb4:	ee67 7aa8 	vmul.f32	s15, s15, s17
 8000fb8:	ee17 0a90 	vmov	r0, s15
 8000fbc:	f7ff fbee 	bl	800079c <__aeabi_f2d>
 8000fc0:	4604      	mov	r4, r0
 8000fc2:	ee18 0a90 	vmov	r0, s17
 8000fc6:	460d      	mov	r5, r1
 8000fc8:	f7ff fbe8 	bl	800079c <__aeabi_f2d>
 8000fcc:	4602      	mov	r2, r0
 8000fce:	460b      	mov	r3, r1
 8000fd0:	2000      	movs	r0, #0
 8000fd2:	490e      	ldr	r1, [pc, #56]	; (800100c <bitcrusher_rs_process+0x84>)
 8000fd4:	f7ff fa82 	bl	80004dc <__aeabi_dsub>
 8000fd8:	4606      	mov	r6, r0
 8000fda:	ee18 0a10 	vmov	r0, s16
 8000fde:	460f      	mov	r7, r1
 8000fe0:	f7ff fbdc 	bl	800079c <__aeabi_f2d>
 8000fe4:	4602      	mov	r2, r0
 8000fe6:	460b      	mov	r3, r1
 8000fe8:	4630      	mov	r0, r6
 8000fea:	4639      	mov	r1, r7
 8000fec:	f7ff f948 	bl	8000280 <__aeabi_dmul>
 8000ff0:	4602      	mov	r2, r0
 8000ff2:	460b      	mov	r3, r1
 8000ff4:	4620      	mov	r0, r4
 8000ff6:	4629      	mov	r1, r5
 8000ff8:	f7ff fa72 	bl	80004e0 <__adddf3>
 8000ffc:	f7ff fc26 	bl	800084c <__aeabi_d2f>
 8001000:	ecbd 8b02 	vpop	{d8}
 8001004:	ee00 0a10 	vmov	s0, r0
 8001008:	bdf8      	pop	{r3, r4, r5, r6, r7, pc}
 800100a:	bf00      	nop
 800100c:	3ff00000 	.word	0x3ff00000

08001010 <low_pass_filter_process>:
 8001010:	6802      	ldr	r2, [r0, #0]
 8001012:	ed9f 7a2f 	vldr	s14, [pc, #188]	; 80010d0 <low_pass_filter_process+0xc0>
 8001016:	e92d 43f8 	stmdb	sp!, {r3, r4, r5, r6, r7, r8, r9, lr}
 800101a:	f240 13b9 	movw	r3, #441	; 0x1b9
 800101e:	4e2d      	ldr	r6, [pc, #180]	; (80010d4 <low_pass_filter_process+0xc4>)
 8001020:	4f2d      	ldr	r7, [pc, #180]	; (80010d8 <low_pass_filter_process+0xc8>)
 8001022:	4293      	cmp	r3, r2
 8001024:	bf28      	it	cs
 8001026:	4613      	movcs	r3, r2
 8001028:	8832      	ldrh	r2, [r6, #0]
 800102a:	fbb2 f1f3 	udiv	r1, r2, r3
 800102e:	fb03 2111 	mls	r1, r3, r1, r2
 8001032:	eb07 0181 	add.w	r1, r7, r1, lsl #2
 8001036:	ed2d 8b02 	vpush	{d8}
 800103a:	ee10 5a10 	vmov	r5, s0
 800103e:	ed81 0a00 	vstr	s0, [r1]
 8001042:	1ad1      	subs	r1, r2, r3
 8001044:	b289      	uxth	r1, r1
 8001046:	b28c      	uxth	r4, r1
 8001048:	42a2      	cmp	r2, r4
 800104a:	d834      	bhi.n	80010b6 <low_pass_filter_process+0xa6>
 800104c:	ee07 3a90 	vmov	s15, r3
 8001050:	eef8 7ae7 	vcvt.f32.s32	s15, s15
 8001054:	ed90 8a18 	vldr	s16, [r0, #96]	; 0x60
 8001058:	eec7 6a27 	vdiv.f32	s13, s14, s15
 800105c:	3201      	adds	r2, #1
 800105e:	8032      	strh	r2, [r6, #0]
 8001060:	ee66 7a88 	vmul.f32	s15, s13, s16
 8001064:	ee17 0a90 	vmov	r0, s15
 8001068:	f7ff fb98 	bl	800079c <__aeabi_f2d>
 800106c:	4606      	mov	r6, r0
 800106e:	ee18 0a10 	vmov	r0, s16
 8001072:	460f      	mov	r7, r1
 8001074:	f7ff fb92 	bl	800079c <__aeabi_f2d>
 8001078:	4602      	mov	r2, r0
 800107a:	460b      	mov	r3, r1
 800107c:	2000      	movs	r0, #0
 800107e:	4917      	ldr	r1, [pc, #92]	; (80010dc <low_pass_filter_process+0xcc>)
 8001080:	f7ff fa2c 	bl	80004dc <__aeabi_dsub>
 8001084:	4680      	mov	r8, r0
 8001086:	4628      	mov	r0, r5
 8001088:	4689      	mov	r9, r1
 800108a:	f7ff fb87 	bl	800079c <__aeabi_f2d>
 800108e:	4602      	mov	r2, r0
 8001090:	460b      	mov	r3, r1
 8001092:	4640      	mov	r0, r8
 8001094:	4649      	mov	r1, r9
 8001096:	f7ff f8f3 	bl	8000280 <__aeabi_dmul>
 800109a:	4602      	mov	r2, r0
 800109c:	460b      	mov	r3, r1
 800109e:	4630      	mov	r0, r6
 80010a0:	4639      	mov	r1, r7
 80010a2:	f7ff fa1d 	bl	80004e0 <__adddf3>
 80010a6:	f7ff fbd1 	bl	800084c <__aeabi_d2f>
 80010aa:	ecbd 8b02 	vpop	{d8}
 80010ae:	ee00 0a10 	vmov	s0, r0
 80010b2:	e8bd 83f8 	ldmia.w	sp!, {r3, r4, r5, r6, r7, r8, r9, pc}
 80010b6:	fbb1 f4f3 	udiv	r4, r1, r3
 80010ba:	fb03 1414 	mls	r4, r3, r4, r1
 80010be:	eb07 0484 	add.w	r4, r7, r4, lsl #2
 80010c2:	edd4 7a00 	vldr	s15, [r4]
 80010c6:	3101      	adds	r1, #1
 80010c8:	ee37 7a27 	vadd.f32	s14, s14, s15
 80010cc:	e7bb      	b.n	8001046 <low_pass_filter_process+0x36>
 80010ce:	bf00      	nop
 80010d0:	00000000 	.word	0x00000000
 80010d4:	20000798 	.word	0x20000798
 80010d8:	200000b0 	.word	0x200000b0
 80010dc:	3ff00000 	.word	0x3ff00000

080010e0 <dyn_amplifier_process>:
 80010e0:	4770      	bx	lr
	...

080010e4 <overdrive_log_pedal_init>:
 80010e4:	b570      	push	{r4, r5, r6, lr}
 80010e6:	4c0b      	ldr	r4, [pc, #44]	; (8001114 <overdrive_log_pedal_init+0x30>)
 80010e8:	4605      	mov	r5, r0
 80010ea:	f100 0610 	add.w	r6, r0, #16
 80010ee:	e894 000f 	ldmia.w	r4, {r0, r1, r2, r3}
 80010f2:	e886 000f 	stmia.w	r6, {r0, r1, r2, r3}
 80010f6:	f104 0310 	add.w	r3, r4, #16
 80010fa:	cb0f      	ldmia	r3, {r0, r1, r2, r3}
 80010fc:	f105 0620 	add.w	r6, r5, #32
 8001100:	3420      	adds	r4, #32
 8001102:	e886 000f 	stmia.w	r6, {r0, r1, r2, r3}
 8001106:	e894 000f 	ldmia.w	r4, {r0, r1, r2, r3}
 800110a:	3560      	adds	r5, #96	; 0x60
 800110c:	e885 000f 	stmia.w	r5, {r0, r1, r2, r3}
 8001110:	bd70      	pop	{r4, r5, r6, pc}
 8001112:	bf00      	nop
 8001114:	080072d4 	.word	0x080072d4

08001118 <amplifier_pedal_init>:
 8001118:	b570      	push	{r4, r5, r6, lr}
 800111a:	4d08      	ldr	r5, [pc, #32]	; (800113c <amplifier_pedal_init+0x24>)
 800111c:	f105 0330 	add.w	r3, r5, #48	; 0x30
 8001120:	4604      	mov	r4, r0
 8001122:	f100 0610 	add.w	r6, r0, #16
 8001126:	cb0f      	ldmia	r3, {r0, r1, r2, r3}
 8001128:	e886 000f 	stmia.w	r6, {r0, r1, r2, r3}
 800112c:	f105 0310 	add.w	r3, r5, #16
 8001130:	cb0f      	ldmia	r3, {r0, r1, r2, r3}
 8001132:	3420      	adds	r4, #32
 8001134:	e884 000f 	stmia.w	r4, {r0, r1, r2, r3}
 8001138:	bd70      	pop	{r4, r5, r6, pc}
 800113a:	bf00      	nop
 800113c:	080072d4 	.word	0x080072d4

08001140 <tremolo_pedal_init>:
 8001140:	b570      	push	{r4, r5, r6, lr}
 8001142:	4d08      	ldr	r5, [pc, #32]	; (8001164 <tremolo_pedal_init+0x24>)
 8001144:	f105 0340 	add.w	r3, r5, #64	; 0x40
 8001148:	4604      	mov	r4, r0
 800114a:	f100 0680 	add.w	r6, r0, #128	; 0x80
 800114e:	cb0f      	ldmia	r3, {r0, r1, r2, r3}
 8001150:	e886 000f 	stmia.w	r6, {r0, r1, r2, r3}
 8001154:	f105 0350 	add.w	r3, r5, #80	; 0x50
 8001158:	cb0f      	ldmia	r3, {r0, r1, r2, r3}
 800115a:	3460      	adds	r4, #96	; 0x60
 800115c:	e884 000f 	stmia.w	r4, {r0, r1, r2, r3}
 8001160:	bd70      	pop	{r4, r5, r6, pc}
 8001162:	bf00      	nop
 8001164:	080072d4 	.word	0x080072d4

08001168 <bitcrusher_rs_pedal_init>:
 8001168:	b570      	push	{r4, r5, r6, lr}
 800116a:	4d08      	ldr	r5, [pc, #32]	; (800118c <bitcrusher_rs_pedal_init+0x24>)
 800116c:	f105 0360 	add.w	r3, r5, #96	; 0x60
 8001170:	4604      	mov	r4, r0
 8001172:	f100 0640 	add.w	r6, r0, #64	; 0x40
 8001176:	cb0f      	ldmia	r3, {r0, r1, r2, r3}
 8001178:	e886 000f 	stmia.w	r6, {r0, r1, r2, r3}
 800117c:	f105 0370 	add.w	r3, r5, #112	; 0x70
 8001180:	cb0f      	ldmia	r3, {r0, r1, r2, r3}
 8001182:	3460      	adds	r4, #96	; 0x60
 8001184:	e884 000f 	stmia.w	r4, {r0, r1, r2, r3}
 8001188:	bd70      	pop	{r4, r5, r6, pc}
 800118a:	bf00      	nop
 800118c:	080072d4 	.word	0x080072d4

08001190 <low_pass_filter_pedal_init>:
 8001190:	b530      	push	{r4, r5, lr}
 8001192:	4d07      	ldr	r5, [pc, #28]	; (80011b0 <low_pass_filter_pedal_init+0x20>)
 8001194:	f105 0380 	add.w	r3, r5, #128	; 0x80
 8001198:	4604      	mov	r4, r0
 800119a:	cb0f      	ldmia	r3, {r0, r1, r2, r3}
 800119c:	e884 000f 	stmia.w	r4, {r0, r1, r2, r3}
 80011a0:	f105 0390 	add.w	r3, r5, #144	; 0x90
 80011a4:	cb0f      	ldmia	r3, {r0, r1, r2, r3}
 80011a6:	3460      	adds	r4, #96	; 0x60
 80011a8:	e884 000f 	stmia.w	r4, {r0, r1, r2, r3}
 80011ac:	bd30      	pop	{r4, r5, pc}
 80011ae:	bf00      	nop
 80011b0:	080072d4 	.word	0x080072d4

080011b4 <overdrive_pedal_init>:
 80011b4:	b5f0      	push	{r4, r5, r6, r7, lr}
 80011b6:	4d12      	ldr	r5, [pc, #72]	; (8001200 <overdrive_pedal_init+0x4c>)
 80011b8:	f105 06a0 	add.w	r6, r5, #160	; 0xa0
 80011bc:	4604      	mov	r4, r0
 80011be:	f100 0710 	add.w	r7, r0, #16
 80011c2:	e896 000f 	ldmia.w	r6, {r0, r1, r2, r3}
 80011c6:	e887 000f 	stmia.w	r7, {r0, r1, r2, r3}
 80011ca:	f105 0310 	add.w	r3, r5, #16
 80011ce:	cb0f      	ldmia	r3, {r0, r1, r2, r3}
 80011d0:	f104 0720 	add.w	r7, r4, #32
 80011d4:	e887 000f 	stmia.w	r7, {r0, r1, r2, r3}
 80011d8:	f105 03b0 	add.w	r3, r5, #176	; 0xb0
 80011dc:	cb0f      	ldmia	r3, {r0, r1, r2, r3}
 80011de:	f104 0730 	add.w	r7, r4, #48	; 0x30
 80011e2:	e887 000f 	stmia.w	r7, {r0, r1, r2, r3}
 80011e6:	e896 000f 	ldmia.w	r6, {r0, r1, r2, r3}
 80011ea:	f104 0750 	add.w	r7, r4, #80	; 0x50
 80011ee:	3590      	adds	r5, #144	; 0x90
 80011f0:	e887 000f 	stmia.w	r7, {r0, r1, r2, r3}
 80011f4:	e895 000f 	ldmia.w	r5, {r0, r1, r2, r3}
 80011f8:	3460      	adds	r4, #96	; 0x60
 80011fa:	e884 000f 	stmia.w	r4, {r0, r1, r2, r3}
 80011fe:	bdf0      	pop	{r4, r5, r6, r7, pc}
 8001200:	080072d4 	.word	0x080072d4

08001204 <fuzz_pedal_init>:
 8001204:	b570      	push	{r4, r5, r6, lr}
 8001206:	4d12      	ldr	r5, [pc, #72]	; (8001250 <fuzz_pedal_init+0x4c>)
 8001208:	f105 03a0 	add.w	r3, r5, #160	; 0xa0
 800120c:	4604      	mov	r4, r0
 800120e:	f100 0610 	add.w	r6, r0, #16
 8001212:	cb0f      	ldmia	r3, {r0, r1, r2, r3}
 8001214:	e886 000f 	stmia.w	r6, {r0, r1, r2, r3}
 8001218:	f105 0310 	add.w	r3, r5, #16
 800121c:	cb0f      	ldmia	r3, {r0, r1, r2, r3}
 800121e:	f104 0620 	add.w	r6, r4, #32
 8001222:	e886 000f 	stmia.w	r6, {r0, r1, r2, r3}
 8001226:	f105 03c0 	add.w	r3, r5, #192	; 0xc0
 800122a:	cb0f      	ldmia	r3, {r0, r1, r2, r3}
 800122c:	f104 0670 	add.w	r6, r4, #112	; 0x70
 8001230:	e886 000f 	stmia.w	r6, {r0, r1, r2, r3}
 8001234:	f105 03d0 	add.w	r3, r5, #208	; 0xd0
 8001238:	cb0f      	ldmia	r3, {r0, r1, r2, r3}
 800123a:	f104 0680 	add.w	r6, r4, #128	; 0x80
 800123e:	3590      	adds	r5, #144	; 0x90
 8001240:	e886 000f 	stmia.w	r6, {r0, r1, r2, r3}
 8001244:	e895 000f 	ldmia.w	r5, {r0, r1, r2, r3}
 8001248:	3460      	adds	r4, #96	; 0x60
 800124a:	e884 000f 	stmia.w	r4, {r0, r1, r2, r3}
 800124e:	bd70      	pop	{r4, r5, r6, pc}
 8001250:	080072d4 	.word	0x080072d4

08001254 <pedalboard_append>:
 8001254:	b538      	push	{r3, r4, r5, lr}
 8001256:	7803      	ldrb	r3, [r0, #0]
 8001258:	2b0f      	cmp	r3, #15
 800125a:	4604      	mov	r4, r0
 800125c:	d80f      	bhi.n	800127e <pedalboard_append+0x2a>
 800125e:	2098      	movs	r0, #152	; 0x98
 8001260:	fb00 4503 	mla	r5, r0, r3, r4
 8001264:	f885 1094 	strb.w	r1, [r5, #148]	; 0x94
 8001268:	b951      	cbnz	r1, 8001280 <pedalboard_append+0x2c>
 800126a:	4628      	mov	r0, r5
 800126c:	3004      	adds	r0, #4
 800126e:	f7ff ff53 	bl	8001118 <amplifier_pedal_init>
 8001272:	4b21      	ldr	r3, [pc, #132]	; (80012f8 <pedalboard_append+0xa4>)
 8001274:	f8c5 3098 	str.w	r3, [r5, #152]	; 0x98
 8001278:	7823      	ldrb	r3, [r4, #0]
 800127a:	3301      	adds	r3, #1
 800127c:	7023      	strb	r3, [r4, #0]
 800127e:	bd38      	pop	{r3, r4, r5, pc}
 8001280:	2901      	cmp	r1, #1
 8001282:	d106      	bne.n	8001292 <pedalboard_append+0x3e>
 8001284:	fb00 4003 	mla	r0, r0, r3, r4
 8001288:	3004      	adds	r0, #4
 800128a:	f7ff ff6d 	bl	8001168 <bitcrusher_rs_pedal_init>
 800128e:	4b1b      	ldr	r3, [pc, #108]	; (80012fc <pedalboard_append+0xa8>)
 8001290:	e7f0      	b.n	8001274 <pedalboard_append+0x20>
 8001292:	2903      	cmp	r1, #3
 8001294:	d101      	bne.n	800129a <pedalboard_append+0x46>
 8001296:	4b1a      	ldr	r3, [pc, #104]	; (8001300 <pedalboard_append+0xac>)
 8001298:	e7ec      	b.n	8001274 <pedalboard_append+0x20>
 800129a:	2904      	cmp	r1, #4
 800129c:	d106      	bne.n	80012ac <pedalboard_append+0x58>
 800129e:	fb10 1003 	smlabb	r0, r0, r3, r1
 80012a2:	4420      	add	r0, r4
 80012a4:	f7ff ffae 	bl	8001204 <fuzz_pedal_init>
 80012a8:	4b16      	ldr	r3, [pc, #88]	; (8001304 <pedalboard_append+0xb0>)
 80012aa:	e7e3      	b.n	8001274 <pedalboard_append+0x20>
 80012ac:	2905      	cmp	r1, #5
 80012ae:	d106      	bne.n	80012be <pedalboard_append+0x6a>
 80012b0:	fb00 4003 	mla	r0, r0, r3, r4
 80012b4:	3004      	adds	r0, #4
 80012b6:	f7ff ff6b 	bl	8001190 <low_pass_filter_pedal_init>
 80012ba:	4b13      	ldr	r3, [pc, #76]	; (8001308 <pedalboard_append+0xb4>)
 80012bc:	e7da      	b.n	8001274 <pedalboard_append+0x20>
 80012be:	2906      	cmp	r1, #6
 80012c0:	d106      	bne.n	80012d0 <pedalboard_append+0x7c>
 80012c2:	fb00 4003 	mla	r0, r0, r3, r4
 80012c6:	3004      	adds	r0, #4
 80012c8:	f7ff ff74 	bl	80011b4 <overdrive_pedal_init>
 80012cc:	4b0f      	ldr	r3, [pc, #60]	; (800130c <pedalboard_append+0xb8>)
 80012ce:	e7d1      	b.n	8001274 <pedalboard_append+0x20>
 80012d0:	2907      	cmp	r1, #7
 80012d2:	d106      	bne.n	80012e2 <pedalboard_append+0x8e>
 80012d4:	fb00 4003 	mla	r0, r0, r3, r4
 80012d8:	3004      	adds	r0, #4
 80012da:	f7ff ff03 	bl	80010e4 <overdrive_log_pedal_init>
 80012de:	4b0c      	ldr	r3, [pc, #48]	; (8001310 <pedalboard_append+0xbc>)
 80012e0:	e7c8      	b.n	8001274 <pedalboard_append+0x20>
 80012e2:	2908      	cmp	r1, #8
 80012e4:	d106      	bne.n	80012f4 <pedalboard_append+0xa0>
 80012e6:	fb00 4003 	mla	r0, r0, r3, r4
 80012ea:	3004      	adds	r0, #4
 80012ec:	f7ff ff28 	bl	8001140 <tremolo_pedal_init>
 80012f0:	4b08      	ldr	r3, [pc, #32]	; (8001314 <pedalboard_append+0xc0>)
 80012f2:	e7bf      	b.n	8001274 <pedalboard_append+0x20>
 80012f4:	4b08      	ldr	r3, [pc, #32]	; (8001318 <pedalboard_append+0xc4>)
 80012f6:	e7bd      	b.n	8001274 <pedalboard_append+0x20>
 80012f8:	08001425 	.word	0x08001425
 80012fc:	08000f89 	.word	0x08000f89
 8001300:	080010e1 	.word	0x080010e1
 8001304:	08001605 	.word	0x08001605
 8001308:	08001011 	.word	0x08001011
 800130c:	08001469 	.word	0x08001469
 8001310:	0800136d 	.word	0x0800136d
 8001314:	0800157d 	.word	0x0800157d
 8001318:	08000f85 	.word	0x08000f85

0800131c <pedalboard_process>:
 800131c:	b570      	push	{r4, r5, r6, lr}
 800131e:	4604      	mov	r4, r0
 8001320:	2500      	movs	r5, #0
 8001322:	2698      	movs	r6, #152	; 0x98
 8001324:	7822      	ldrb	r2, [r4, #0]
 8001326:	b2eb      	uxtb	r3, r5
 8001328:	429a      	cmp	r2, r3
 800132a:	d800      	bhi.n	800132e <pedalboard_process+0x12>
 800132c:	bd70      	pop	{r4, r5, r6, pc}
 800132e:	4373      	muls	r3, r6
 8001330:	1d18      	adds	r0, r3, #4
 8001332:	4423      	add	r3, r4
 8001334:	4420      	add	r0, r4
 8001336:	f8d3 3098 	ldr.w	r3, [r3, #152]	; 0x98
 800133a:	4798      	blx	r3
 800133c:	3501      	adds	r5, #1
 800133e:	e7f1      	b.n	8001324 <pedalboard_process+0x8>

08001340 <hard_clip>:
 8001340:	eeb4 0ae0 	vcmpe.f32	s0, s1
 8001344:	eef1 fa10 	vmrs	APSR_nzcv, fpscr
 8001348:	dc0c      	bgt.n	8001364 <hard_clip+0x24>
 800134a:	eef1 0a60 	vneg.f32	s1, s1
 800134e:	eef4 0ac0 	vcmpe.f32	s1, s0
 8001352:	eef1 fa10 	vmrs	APSR_nzcv, fpscr
 8001356:	bfc6      	itte	gt
 8001358:	eeb7 0a00 	vmovgt.f32	s0, #112	; 0x3f800000  1.0
 800135c:	ee70 0ac0 	vsubgt.f32	s1, s1, s0
 8001360:	eef0 0a40 	vmovle.f32	s1, s0
 8001364:	eeb0 0a60 	vmov.f32	s0, s1
 8001368:	4770      	bx	lr
	...

0800136c <overdrive_log_process>:
 800136c:	b538      	push	{r3, r4, r5, lr}
 800136e:	eef7 7a00 	vmov.f32	s15, #112	; 0x3f800000  1.0
 8001372:	eeb4 0ae7 	vcmpe.f32	s0, s15
 8001376:	eef1 fa10 	vmrs	APSR_nzcv, fpscr
 800137a:	ed2d 8b04 	vpush	{d8-d9}
 800137e:	4604      	mov	r4, r0
 8001380:	eeb0 8a40 	vmov.f32	s16, s0
 8001384:	dd38      	ble.n	80013f8 <overdrive_log_process+0x8c>
 8001386:	f005 fe63 	bl	8007050 <log2f>
 800138a:	edd4 7a04 	vldr	s15, [r4, #16]
 800138e:	edd4 0a08 	vldr	s1, [r4, #32]
 8001392:	ee20 0a27 	vmul.f32	s0, s0, s15
 8001396:	f7ff ffd3 	bl	8001340 <hard_clip>
 800139a:	ed94 9a18 	vldr	s18, [r4, #96]	; 0x60
 800139e:	ee19 0a10 	vmov	r0, s18
 80013a2:	eef0 8a40 	vmov.f32	s17, s0
 80013a6:	f7ff f9f9 	bl	800079c <__aeabi_f2d>
 80013aa:	4602      	mov	r2, r0
 80013ac:	460b      	mov	r3, r1
 80013ae:	2000      	movs	r0, #0
 80013b0:	491a      	ldr	r1, [pc, #104]	; (800141c <overdrive_log_process+0xb0>)
 80013b2:	f7ff f893 	bl	80004dc <__aeabi_dsub>
 80013b6:	4604      	mov	r4, r0
 80013b8:	ee18 0a10 	vmov	r0, s16
 80013bc:	460d      	mov	r5, r1
 80013be:	f7ff f9ed 	bl	800079c <__aeabi_f2d>
 80013c2:	4602      	mov	r2, r0
 80013c4:	460b      	mov	r3, r1
 80013c6:	4620      	mov	r0, r4
 80013c8:	4629      	mov	r1, r5
 80013ca:	f7fe ff59 	bl	8000280 <__aeabi_dmul>
 80013ce:	ee69 7a28 	vmul.f32	s15, s18, s17
 80013d2:	4604      	mov	r4, r0
 80013d4:	ee17 0a90 	vmov	r0, s15
 80013d8:	460d      	mov	r5, r1
 80013da:	f7ff f9df 	bl	800079c <__aeabi_f2d>
 80013de:	4602      	mov	r2, r0
 80013e0:	460b      	mov	r3, r1
 80013e2:	4620      	mov	r0, r4
 80013e4:	4629      	mov	r1, r5
 80013e6:	f7ff f87b 	bl	80004e0 <__adddf3>
 80013ea:	f7ff fa2f 	bl	800084c <__aeabi_d2f>
 80013ee:	ecbd 8b04 	vpop	{d8-d9}
 80013f2:	ee00 0a10 	vmov	s0, r0
 80013f6:	bd38      	pop	{r3, r4, r5, pc}
 80013f8:	eeff 7a00 	vmov.f32	s15, #240	; 0xbf800000 -1.0
 80013fc:	eeb4 0ae7 	vcmpe.f32	s0, s15
 8001400:	eef1 fa10 	vmrs	APSR_nzcv, fpscr
 8001404:	d506      	bpl.n	8001414 <overdrive_log_process+0xa8>
 8001406:	eeb1 0a40 	vneg.f32	s0, s0
 800140a:	f005 fe21 	bl	8007050 <log2f>
 800140e:	eeb1 0a40 	vneg.f32	s0, s0
 8001412:	e7ba      	b.n	800138a <overdrive_log_process+0x1e>
 8001414:	ed9f 0a02 	vldr	s0, [pc, #8]	; 8001420 <overdrive_log_process+0xb4>
 8001418:	e7b7      	b.n	800138a <overdrive_log_process+0x1e>
 800141a:	bf00      	nop
 800141c:	3ff00000 	.word	0x3ff00000
 8001420:	00000000 	.word	0x00000000

08001424 <amplifier_process>:
 8001424:	edd0 7a04 	vldr	s15, [r0, #16]
 8001428:	edd0 0a08 	vldr	s1, [r0, #32]
 800142c:	ee20 0a27 	vmul.f32	s0, s0, s15
 8001430:	f7ff bf86 	b.w	8001340 <hard_clip>

08001434 <soft_clip>:
 8001434:	eeb4 0ae0 	vcmpe.f32	s0, s1
 8001438:	eef1 fa10 	vmrs	APSR_nzcv, fpscr
 800143c:	dd06      	ble.n	800144c <soft_clip+0x18>
 800143e:	ee30 0a60 	vsub.f32	s0, s0, s1
 8001442:	eec0 7a01 	vdiv.f32	s15, s0, s2
 8001446:	ee37 0aa0 	vadd.f32	s0, s15, s1
 800144a:	4770      	bx	lr
 800144c:	eef1 7a60 	vneg.f32	s15, s1
 8001450:	eeb4 0ae7 	vcmpe.f32	s0, s15
 8001454:	eef1 fa10 	vmrs	APSR_nzcv, fpscr
 8001458:	bf42      	ittt	mi
 800145a:	ee30 0a20 	vaddmi.f32	s0, s0, s1
 800145e:	eec0 7a01 	vdivmi.f32	s15, s0, s2
 8001462:	ee37 0ae0 	vsubmi.f32	s0, s15, s1
 8001466:	4770      	bx	lr

08001468 <overdrive_process>:
 8001468:	b538      	push	{r3, r4, r5, lr}
 800146a:	ed2d 8b04 	vpush	{d8-d9}
 800146e:	eeb0 8a40 	vmov.f32	s16, s0
 8001472:	ed90 0a04 	vldr	s0, [r0, #16]
 8001476:	ed90 1a14 	vldr	s2, [r0, #80]	; 0x50
 800147a:	edd0 0a0c 	vldr	s1, [r0, #48]	; 0x30
 800147e:	ee28 0a00 	vmul.f32	s0, s16, s0
 8001482:	f7ff ffd7 	bl	8001434 <soft_clip>
 8001486:	edd0 0a08 	vldr	s1, [r0, #32]
 800148a:	f7ff ff59 	bl	8001340 <hard_clip>
 800148e:	ed90 9a18 	vldr	s18, [r0, #96]	; 0x60
 8001492:	ee19 0a10 	vmov	r0, s18
 8001496:	eef0 8a40 	vmov.f32	s17, s0
 800149a:	f7ff f97f 	bl	800079c <__aeabi_f2d>
 800149e:	4602      	mov	r2, r0
 80014a0:	460b      	mov	r3, r1
 80014a2:	2000      	movs	r0, #0
 80014a4:	4911      	ldr	r1, [pc, #68]	; (80014ec <overdrive_process+0x84>)
 80014a6:	f7ff f819 	bl	80004dc <__aeabi_dsub>
 80014aa:	4604      	mov	r4, r0
 80014ac:	ee18 0a10 	vmov	r0, s16
 80014b0:	460d      	mov	r5, r1
 80014b2:	f7ff f973 	bl	800079c <__aeabi_f2d>
 80014b6:	4602      	mov	r2, r0
 80014b8:	460b      	mov	r3, r1
 80014ba:	4620      	mov	r0, r4
 80014bc:	4629      	mov	r1, r5
 80014be:	f7fe fedf 	bl	8000280 <__aeabi_dmul>
 80014c2:	ee69 7a28 	vmul.f32	s15, s18, s17
 80014c6:	4604      	mov	r4, r0
 80014c8:	ee17 0a90 	vmov	r0, s15
 80014cc:	460d      	mov	r5, r1
 80014ce:	f7ff f965 	bl	800079c <__aeabi_f2d>
 80014d2:	4602      	mov	r2, r0
 80014d4:	460b      	mov	r3, r1
 80014d6:	4620      	mov	r0, r4
 80014d8:	4629      	mov	r1, r5
 80014da:	f7ff f801 	bl	80004e0 <__adddf3>
 80014de:	f7ff f9b5 	bl	800084c <__aeabi_d2f>
 80014e2:	ecbd 8b04 	vpop	{d8-d9}
 80014e6:	ee00 0a10 	vmov	s0, r0
 80014ea:	bd38      	pop	{r3, r4, r5, pc}
 80014ec:	3ff00000 	.word	0x3ff00000

080014f0 <wave_gen>:
 80014f0:	b510      	push	{r4, lr}
 80014f2:	ed2d 8b04 	vpush	{d8-d9}
 80014f6:	f5ad 6d00 	sub.w	sp, sp, #2048	; 0x800
 80014fa:	4604      	mov	r4, r0
 80014fc:	ee08 1a10 	vmov	s16, r1
 8001500:	f44f 6200 	mov.w	r2, #2048	; 0x800
 8001504:	491b      	ldr	r1, [pc, #108]	; (8001574 <wave_gen+0x84>)
 8001506:	4668      	mov	r0, sp
 8001508:	eef0 8a40 	vmov.f32	s17, s0
 800150c:	eeb0 9a60 	vmov.f32	s18, s1
 8001510:	f004 fca4 	bl	8005e5c <memcpy>
 8001514:	2c73      	cmp	r4, #115	; 0x73
 8001516:	d129      	bne.n	800156c <wave_gen+0x7c>
 8001518:	eeb8 8a48 	vcvt.f32.u32	s16, s16
 800151c:	f240 11ff 	movw	r1, #511	; 0x1ff
 8001520:	ee68 0a09 	vmul.f32	s1, s16, s18
 8001524:	eefc 7ae0 	vcvt.u32.f32	s15, s1
 8001528:	ee17 3a90 	vmov	r3, s15
 800152c:	f413 6fc0 	tst.w	r3, #1536	; 0x600
 8001530:	f3c3 0208 	ubfx	r2, r3, #0, #9
 8001534:	d10a      	bne.n	800154c <wave_gen+0x5c>
 8001536:	eb0d 0282 	add.w	r2, sp, r2, lsl #2
 800153a:	ed92 0a00 	vldr	s0, [r2]
 800153e:	ee28 0a80 	vmul.f32	s0, s17, s0
 8001542:	f50d 6d00 	add.w	sp, sp, #2048	; 0x800
 8001546:	ecbd 8b04 	vpop	{d8-d9}
 800154a:	bd10      	pop	{r4, pc}
 800154c:	f3c3 2341 	ubfx	r3, r3, #9, #2
 8001550:	2b01      	cmp	r3, #1
 8001552:	d101      	bne.n	8001558 <wave_gen+0x68>
 8001554:	1a8a      	subs	r2, r1, r2
 8001556:	e7ee      	b.n	8001536 <wave_gen+0x46>
 8001558:	2b02      	cmp	r3, #2
 800155a:	bf18      	it	ne
 800155c:	1a8a      	subne	r2, r1, r2
 800155e:	eb0d 0282 	add.w	r2, sp, r2, lsl #2
 8001562:	ed92 0a00 	vldr	s0, [r2]
 8001566:	ee20 0a68 	vnmul.f32	s0, s0, s17
 800156a:	e7ea      	b.n	8001542 <wave_gen+0x52>
 800156c:	ed9f 0a02 	vldr	s0, [pc, #8]	; 8001578 <wave_gen+0x88>
 8001570:	e7e7      	b.n	8001542 <wave_gen+0x52>
 8001572:	bf00      	nop
 8001574:	080073b4 	.word	0x080073b4
 8001578:	00000000 	.word	0x00000000

0800157c <tremolo_process>:
 800157c:	b5f8      	push	{r3, r4, r5, r6, r7, lr}
 800157e:	4b1f      	ldr	r3, [pc, #124]	; (80015fc <tremolo_process+0x80>)
 8001580:	edd0 0a20 	vldr	s1, [r0, #128]	; 0x80
 8001584:	6819      	ldr	r1, [r3, #0]
 8001586:	ed2d 8b02 	vpush	{d8}
 800158a:	1c4a      	adds	r2, r1, #1
 800158c:	eeb0 8a40 	vmov.f32	s16, s0
 8001590:	4604      	mov	r4, r0
 8001592:	eeb7 0a00 	vmov.f32	s0, #112	; 0x3f800000  1.0
 8001596:	2073      	movs	r0, #115	; 0x73
 8001598:	601a      	str	r2, [r3, #0]
 800159a:	f7ff ffa9 	bl	80014f0 <wave_gen>
 800159e:	edd4 8a18 	vldr	s17, [r4, #96]	; 0x60
 80015a2:	ee20 0a08 	vmul.f32	s0, s0, s16
 80015a6:	ee60 7a28 	vmul.f32	s15, s0, s17
 80015aa:	ee17 0a90 	vmov	r0, s15
 80015ae:	f7ff f8f5 	bl	800079c <__aeabi_f2d>
 80015b2:	4604      	mov	r4, r0
 80015b4:	ee18 0a90 	vmov	r0, s17
 80015b8:	460d      	mov	r5, r1
 80015ba:	f7ff f8ef 	bl	800079c <__aeabi_f2d>
 80015be:	4602      	mov	r2, r0
 80015c0:	460b      	mov	r3, r1
 80015c2:	2000      	movs	r0, #0
 80015c4:	490e      	ldr	r1, [pc, #56]	; (8001600 <tremolo_process+0x84>)
 80015c6:	f7fe ff89 	bl	80004dc <__aeabi_dsub>
 80015ca:	4606      	mov	r6, r0
 80015cc:	ee18 0a10 	vmov	r0, s16
 80015d0:	460f      	mov	r7, r1
 80015d2:	f7ff f8e3 	bl	800079c <__aeabi_f2d>
 80015d6:	4602      	mov	r2, r0
 80015d8:	460b      	mov	r3, r1
 80015da:	4630      	mov	r0, r6
 80015dc:	4639      	mov	r1, r7
 80015de:	f7fe fe4f 	bl	8000280 <__aeabi_dmul>
 80015e2:	4602      	mov	r2, r0
 80015e4:	460b      	mov	r3, r1
 80015e6:	4620      	mov	r0, r4
 80015e8:	4629      	mov	r1, r5
 80015ea:	f7fe ff79 	bl	80004e0 <__adddf3>
 80015ee:	f7ff f92d 	bl	800084c <__aeabi_d2f>
 80015f2:	ecbd 8b02 	vpop	{d8}
 80015f6:	ee00 0a10 	vmov	s0, r0
 80015fa:	bdf8      	pop	{r3, r4, r5, r6, r7, pc}
 80015fc:	20000794 	.word	0x20000794
 8001600:	3ff00000 	.word	0x3ff00000

08001604 <fuzz_process>:
 8001604:	b538      	push	{r3, r4, r5, lr}
 8001606:	ed90 7a08 	vldr	s14, [r0, #32]
 800160a:	ed2d 8b04 	vpush	{d8-d9}
 800160e:	eef0 8a40 	vmov.f32	s17, s0
 8001612:	ed90 0a04 	vldr	s0, [r0, #16]
 8001616:	eef0 0a47 	vmov.f32	s1, s14
 800161a:	ee28 0a80 	vmul.f32	s0, s17, s0
 800161e:	4604      	mov	r4, r0
 8001620:	f7ff fe8e 	bl	8001340 <hard_clip>
 8001624:	eeb4 7a40 	vcmp.f32	s14, s0
 8001628:	eef1 fa10 	vmrs	APSR_nzcv, fpscr
 800162c:	eeb0 8a40 	vmov.f32	s16, s0
 8001630:	d13d      	bne.n	80016ae <fuzz_process+0xaa>
 8001632:	4b2c      	ldr	r3, [pc, #176]	; (80016e4 <fuzz_process+0xe0>)
 8001634:	ed90 9a1c 	vldr	s18, [r0, #112]	; 0x70
 8001638:	6819      	ldr	r1, [r3, #0]
 800163a:	edd0 0a20 	vldr	s1, [r0, #128]	; 0x80
 800163e:	1c4a      	adds	r2, r1, #1
 8001640:	eeb0 0a49 	vmov.f32	s0, s18
 8001644:	2073      	movs	r0, #115	; 0x73
 8001646:	601a      	str	r2, [r3, #0]
 8001648:	f7ff ff52 	bl	80014f0 <wave_gen>
 800164c:	ee30 8a08 	vadd.f32	s16, s0, s16
 8001650:	ee38 8a49 	vsub.f32	s16, s16, s18
 8001654:	ed94 9a18 	vldr	s18, [r4, #96]	; 0x60
 8001658:	ee19 0a10 	vmov	r0, s18
 800165c:	f7ff f89e 	bl	800079c <__aeabi_f2d>
 8001660:	4602      	mov	r2, r0
 8001662:	460b      	mov	r3, r1
 8001664:	2000      	movs	r0, #0
 8001666:	4920      	ldr	r1, [pc, #128]	; (80016e8 <fuzz_process+0xe4>)
 8001668:	f7fe ff38 	bl	80004dc <__aeabi_dsub>
 800166c:	4604      	mov	r4, r0
 800166e:	ee18 0a90 	vmov	r0, s17
 8001672:	460d      	mov	r5, r1
 8001674:	f7ff f892 	bl	800079c <__aeabi_f2d>
 8001678:	4602      	mov	r2, r0
 800167a:	460b      	mov	r3, r1
 800167c:	4620      	mov	r0, r4
 800167e:	4629      	mov	r1, r5
 8001680:	f7fe fdfe 	bl	8000280 <__aeabi_dmul>
 8001684:	ee69 7a08 	vmul.f32	s15, s18, s16
 8001688:	4604      	mov	r4, r0
 800168a:	ee17 0a90 	vmov	r0, s15
 800168e:	460d      	mov	r5, r1
 8001690:	f7ff f884 	bl	800079c <__aeabi_f2d>
 8001694:	4602      	mov	r2, r0
 8001696:	460b      	mov	r3, r1
 8001698:	4620      	mov	r0, r4
 800169a:	4629      	mov	r1, r5
 800169c:	f7fe ff20 	bl	80004e0 <__adddf3>
 80016a0:	f7ff f8d4 	bl	800084c <__aeabi_d2f>
 80016a4:	ecbd 8b04 	vpop	{d8-d9}
 80016a8:	ee00 0a10 	vmov	s0, r0
 80016ac:	bd38      	pop	{r3, r4, r5, pc}
 80016ae:	eeff 7a00 	vmov.f32	s15, #240	; 0xbf800000 -1.0
 80016b2:	ee77 7ac7 	vsub.f32	s15, s15, s14
 80016b6:	eef4 7a40 	vcmp.f32	s15, s0
 80016ba:	eef1 fa10 	vmrs	APSR_nzcv, fpscr
 80016be:	d1c9      	bne.n	8001654 <fuzz_process+0x50>
 80016c0:	4b08      	ldr	r3, [pc, #32]	; (80016e4 <fuzz_process+0xe0>)
 80016c2:	ed90 9a1c 	vldr	s18, [r0, #112]	; 0x70
 80016c6:	6819      	ldr	r1, [r3, #0]
 80016c8:	edd0 0a20 	vldr	s1, [r0, #128]	; 0x80
 80016cc:	1c4a      	adds	r2, r1, #1
 80016ce:	eeb0 0a49 	vmov.f32	s0, s18
 80016d2:	2073      	movs	r0, #115	; 0x73
 80016d4:	601a      	str	r2, [r3, #0]
 80016d6:	f7ff ff0b 	bl	80014f0 <wave_gen>
 80016da:	ee38 8a40 	vsub.f32	s16, s16, s0
 80016de:	ee39 8a08 	vadd.f32	s16, s18, s16
 80016e2:	e7b7      	b.n	8001654 <fuzz_process+0x50>
 80016e4:	2000079c 	.word	0x2000079c
 80016e8:	3ff00000 	.word	0x3ff00000

080016ec <HAL_MspInit>:
 80016ec:	b082      	sub	sp, #8
 80016ee:	4b0c      	ldr	r3, [pc, #48]	; (8001720 <HAL_MspInit+0x34>)
 80016f0:	2100      	movs	r1, #0
 80016f2:	9100      	str	r1, [sp, #0]
 80016f4:	6c5a      	ldr	r2, [r3, #68]	; 0x44
 80016f6:	f442 4280 	orr.w	r2, r2, #16384	; 0x4000
 80016fa:	645a      	str	r2, [r3, #68]	; 0x44
 80016fc:	6c5a      	ldr	r2, [r3, #68]	; 0x44
 80016fe:	f402 4280 	and.w	r2, r2, #16384	; 0x4000
 8001702:	9200      	str	r2, [sp, #0]
 8001704:	9a00      	ldr	r2, [sp, #0]
 8001706:	9101      	str	r1, [sp, #4]
 8001708:	6c1a      	ldr	r2, [r3, #64]	; 0x40
 800170a:	f042 5280 	orr.w	r2, r2, #268435456	; 0x10000000
 800170e:	641a      	str	r2, [r3, #64]	; 0x40
 8001710:	6c1b      	ldr	r3, [r3, #64]	; 0x40
 8001712:	f003 5380 	and.w	r3, r3, #268435456	; 0x10000000
 8001716:	9301      	str	r3, [sp, #4]
 8001718:	9b01      	ldr	r3, [sp, #4]
 800171a:	b002      	add	sp, #8
 800171c:	4770      	bx	lr
 800171e:	bf00      	nop
 8001720:	40023800 	.word	0x40023800

08001724 <NMI_Handler>:
 8001724:	e7fe      	b.n	8001724 <NMI_Handler>

08001726 <HardFault_Handler>:
 8001726:	e7fe      	b.n	8001726 <HardFault_Handler>

08001728 <MemManage_Handler>:
 8001728:	e7fe      	b.n	8001728 <MemManage_Handler>

0800172a <BusFault_Handler>:
 800172a:	e7fe      	b.n	800172a <BusFault_Handler>

0800172c <UsageFault_Handler>:
 800172c:	e7fe      	b.n	800172c <UsageFault_Handler>

0800172e <SVC_Handler>:
 800172e:	4770      	bx	lr

08001730 <DebugMon_Handler>:
 8001730:	4770      	bx	lr

08001732 <PendSV_Handler>:
 8001732:	4770      	bx	lr

08001734 <SysTick_Handler>:
 8001734:	f000 b898 	b.w	8001868 <HAL_IncTick>

08001738 <OTG_FS_IRQHandler>:
 8001738:	4801      	ldr	r0, [pc, #4]	; (8001740 <OTG_FS_IRQHandler+0x8>)
 800173a:	f000 bb03 	b.w	8001d44 <HAL_HCD_IRQHandler>
 800173e:	bf00      	nop
 8001740:	20003c60 	.word	0x20003c60

08001744 <_sbrk>:
 8001744:	4b0b      	ldr	r3, [pc, #44]	; (8001774 <_sbrk+0x30>)
 8001746:	6819      	ldr	r1, [r3, #0]
 8001748:	b510      	push	{r4, lr}
 800174a:	4602      	mov	r2, r0
 800174c:	b909      	cbnz	r1, 8001752 <_sbrk+0xe>
 800174e:	490a      	ldr	r1, [pc, #40]	; (8001778 <_sbrk+0x34>)
 8001750:	6019      	str	r1, [r3, #0]
 8001752:	6818      	ldr	r0, [r3, #0]
 8001754:	4909      	ldr	r1, [pc, #36]	; (800177c <_sbrk+0x38>)
 8001756:	4c0a      	ldr	r4, [pc, #40]	; (8001780 <_sbrk+0x3c>)
 8001758:	4402      	add	r2, r0
 800175a:	1b09      	subs	r1, r1, r4
 800175c:	428a      	cmp	r2, r1
 800175e:	d906      	bls.n	800176e <_sbrk+0x2a>
 8001760:	f004 fb42 	bl	8005de8 <__errno>
 8001764:	230c      	movs	r3, #12
 8001766:	6003      	str	r3, [r0, #0]
 8001768:	f04f 30ff 	mov.w	r0, #4294967295
 800176c:	bd10      	pop	{r4, pc}
 800176e:	601a      	str	r2, [r3, #0]
 8001770:	e7fc      	b.n	800176c <_sbrk+0x28>
 8001772:	bf00      	nop
 8001774:	200007a0 	.word	0x200007a0
 8001778:	20003f78 	.word	0x20003f78
 800177c:	20020000 	.word	0x20020000
 8001780:	00000400 	.word	0x00000400

08001784 <SystemInit>:
 8001784:	4a03      	ldr	r2, [pc, #12]	; (8001794 <SystemInit+0x10>)
 8001786:	f8d2 3088 	ldr.w	r3, [r2, #136]	; 0x88
 800178a:	f443 0370 	orr.w	r3, r3, #15728640	; 0xf00000
 800178e:	f8c2 3088 	str.w	r3, [r2, #136]	; 0x88
 8001792:	4770      	bx	lr
 8001794:	e000ed00 	.word	0xe000ed00

08001798 <Reset_Handler>:
 8001798:	f8df d034 	ldr.w	sp, [pc, #52]	; 80017d0 <LoopFillZerobss+0x12>
 800179c:	480d      	ldr	r0, [pc, #52]	; (80017d4 <LoopFillZerobss+0x16>)
 800179e:	490e      	ldr	r1, [pc, #56]	; (80017d8 <LoopFillZerobss+0x1a>)
 80017a0:	4a0e      	ldr	r2, [pc, #56]	; (80017dc <LoopFillZerobss+0x1e>)
 80017a2:	2300      	movs	r3, #0
 80017a4:	e002      	b.n	80017ac <LoopCopyDataInit>

080017a6 <CopyDataInit>:
 80017a6:	58d4      	ldr	r4, [r2, r3]
 80017a8:	50c4      	str	r4, [r0, r3]
 80017aa:	3304      	adds	r3, #4

080017ac <LoopCopyDataInit>:
 80017ac:	18c4      	adds	r4, r0, r3
 80017ae:	428c      	cmp	r4, r1
 80017b0:	d3f9      	bcc.n	80017a6 <CopyDataInit>
 80017b2:	4a0b      	ldr	r2, [pc, #44]	; (80017e0 <LoopFillZerobss+0x22>)
 80017b4:	4c0b      	ldr	r4, [pc, #44]	; (80017e4 <LoopFillZerobss+0x26>)
 80017b6:	2300      	movs	r3, #0
 80017b8:	e001      	b.n	80017be <LoopFillZerobss>

080017ba <FillZerobss>:
 80017ba:	6013      	str	r3, [r2, #0]
 80017bc:	3204      	adds	r2, #4

080017be <LoopFillZerobss>:
 80017be:	42a2      	cmp	r2, r4
 80017c0:	d3fb      	bcc.n	80017ba <FillZerobss>
 80017c2:	f7ff ffdf 	bl	8001784 <SystemInit>
 80017c6:	f004 fb15 	bl	8005df4 <__libc_init_array>
 80017ca:	f7ff fa7f 	bl	8000ccc <main>
 80017ce:	4770      	bx	lr
 80017d0:	20020000 	.word	0x20020000
 80017d4:	20000000 	.word	0x20000000
 80017d8:	20000094 	.word	0x20000094
 80017dc:	08007e58 	.word	0x08007e58
 80017e0:	20000094 	.word	0x20000094
 80017e4:	20003f74 	.word	0x20003f74

080017e8 <ADC_IRQHandler>:
 80017e8:	e7fe      	b.n	80017e8 <ADC_IRQHandler>
	...

080017ec <HAL_InitTick>:
 80017ec:	b538      	push	{r3, r4, r5, lr}
 80017ee:	4a0e      	ldr	r2, [pc, #56]	; (8001828 <HAL_InitTick+0x3c>)
 80017f0:	4b0e      	ldr	r3, [pc, #56]	; (800182c <HAL_InitTick+0x40>)
 80017f2:	4605      	mov	r5, r0
 80017f4:	7818      	ldrb	r0, [r3, #0]
 80017f6:	f44f 737a 	mov.w	r3, #1000	; 0x3e8
 80017fa:	fbb3 f3f0 	udiv	r3, r3, r0
 80017fe:	6810      	ldr	r0, [r2, #0]
 8001800:	fbb0 f0f3 	udiv	r0, r0, r3
 8001804:	f000 f8a8 	bl	8001958 <HAL_SYSTICK_Config>
 8001808:	4604      	mov	r4, r0
 800180a:	b958      	cbnz	r0, 8001824 <HAL_InitTick+0x38>
 800180c:	2d0f      	cmp	r5, #15
 800180e:	d809      	bhi.n	8001824 <HAL_InitTick+0x38>
 8001810:	4602      	mov	r2, r0
 8001812:	4629      	mov	r1, r5
 8001814:	f04f 30ff 	mov.w	r0, #4294967295
 8001818:	f000 f85e 	bl	80018d8 <HAL_NVIC_SetPriority>
 800181c:	4b04      	ldr	r3, [pc, #16]	; (8001830 <HAL_InitTick+0x44>)
 800181e:	4620      	mov	r0, r4
 8001820:	601d      	str	r5, [r3, #0]
 8001822:	bd38      	pop	{r3, r4, r5, pc}
 8001824:	2001      	movs	r0, #1
 8001826:	e7fc      	b.n	8001822 <HAL_InitTick+0x36>
 8001828:	20000000 	.word	0x20000000
 800182c:	20000004 	.word	0x20000004
 8001830:	20000008 	.word	0x20000008

08001834 <HAL_Init>:
 8001834:	b508      	push	{r3, lr}
 8001836:	4b0b      	ldr	r3, [pc, #44]	; (8001864 <HAL_Init+0x30>)
 8001838:	681a      	ldr	r2, [r3, #0]
 800183a:	f442 7200 	orr.w	r2, r2, #512	; 0x200
 800183e:	601a      	str	r2, [r3, #0]
 8001840:	681a      	ldr	r2, [r3, #0]
 8001842:	f442 6280 	orr.w	r2, r2, #1024	; 0x400
 8001846:	601a      	str	r2, [r3, #0]
 8001848:	681a      	ldr	r2, [r3, #0]
 800184a:	f442 7280 	orr.w	r2, r2, #256	; 0x100
 800184e:	601a      	str	r2, [r3, #0]
 8001850:	2003      	movs	r0, #3
 8001852:	f000 f82f 	bl	80018b4 <HAL_NVIC_SetPriorityGrouping>
 8001856:	200f      	movs	r0, #15
 8001858:	f7ff ffc8 	bl	80017ec <HAL_InitTick>
 800185c:	f7ff ff46 	bl	80016ec <HAL_MspInit>
 8001860:	2000      	movs	r0, #0
 8001862:	bd08      	pop	{r3, pc}
 8001864:	40023c00 	.word	0x40023c00

08001868 <HAL_IncTick>:
 8001868:	4a03      	ldr	r2, [pc, #12]	; (8001878 <HAL_IncTick+0x10>)
 800186a:	4b04      	ldr	r3, [pc, #16]	; (800187c <HAL_IncTick+0x14>)
 800186c:	6811      	ldr	r1, [r2, #0]
 800186e:	781b      	ldrb	r3, [r3, #0]
 8001870:	440b      	add	r3, r1
 8001872:	6013      	str	r3, [r2, #0]
 8001874:	4770      	bx	lr
 8001876:	bf00      	nop
 8001878:	20001818 	.word	0x20001818
 800187c:	20000004 	.word	0x20000004

08001880 <HAL_GetTick>:
 8001880:	4b01      	ldr	r3, [pc, #4]	; (8001888 <HAL_GetTick+0x8>)
 8001882:	6818      	ldr	r0, [r3, #0]
 8001884:	4770      	bx	lr
 8001886:	bf00      	nop
 8001888:	20001818 	.word	0x20001818

0800188c <HAL_Delay>:
 800188c:	b538      	push	{r3, r4, r5, lr}
 800188e:	4604      	mov	r4, r0
 8001890:	f7ff fff6 	bl	8001880 <HAL_GetTick>
 8001894:	1c63      	adds	r3, r4, #1
 8001896:	bf1c      	itt	ne
 8001898:	4b05      	ldrne	r3, [pc, #20]	; (80018b0 <HAL_Delay+0x24>)
 800189a:	781b      	ldrbne	r3, [r3, #0]
 800189c:	4605      	mov	r5, r0
 800189e:	bf18      	it	ne
 80018a0:	18e4      	addne	r4, r4, r3
 80018a2:	f7ff ffed 	bl	8001880 <HAL_GetTick>
 80018a6:	1b43      	subs	r3, r0, r5
 80018a8:	42a3      	cmp	r3, r4
 80018aa:	d3fa      	bcc.n	80018a2 <HAL_Delay+0x16>
 80018ac:	bd38      	pop	{r3, r4, r5, pc}
 80018ae:	bf00      	nop
 80018b0:	20000004 	.word	0x20000004

080018b4 <HAL_NVIC_SetPriorityGrouping>:
 80018b4:	4907      	ldr	r1, [pc, #28]	; (80018d4 <HAL_NVIC_SetPriorityGrouping+0x20>)
 80018b6:	68ca      	ldr	r2, [r1, #12]
 80018b8:	f422 62e0 	bic.w	r2, r2, #1792	; 0x700
 80018bc:	0203      	lsls	r3, r0, #8
 80018be:	0412      	lsls	r2, r2, #16
 80018c0:	f403 63e0 	and.w	r3, r3, #1792	; 0x700
 80018c4:	0c12      	lsrs	r2, r2, #16
 80018c6:	4313      	orrs	r3, r2
 80018c8:	f043 63bf 	orr.w	r3, r3, #100139008	; 0x5f80000
 80018cc:	f443 3300 	orr.w	r3, r3, #131072	; 0x20000
 80018d0:	60cb      	str	r3, [r1, #12]
 80018d2:	4770      	bx	lr
 80018d4:	e000ed00 	.word	0xe000ed00

080018d8 <HAL_NVIC_SetPriority>:
 80018d8:	4b16      	ldr	r3, [pc, #88]	; (8001934 <HAL_NVIC_SetPriority+0x5c>)
 80018da:	b530      	push	{r4, r5, lr}
 80018dc:	68dc      	ldr	r4, [r3, #12]
 80018de:	f3c4 2402 	ubfx	r4, r4, #8, #3
 80018e2:	f1c4 0507 	rsb	r5, r4, #7
 80018e6:	1d23      	adds	r3, r4, #4
 80018e8:	2d04      	cmp	r5, #4
 80018ea:	bf28      	it	cs
 80018ec:	2504      	movcs	r5, #4
 80018ee:	2b06      	cmp	r3, #6
 80018f0:	f04f 33ff 	mov.w	r3, #4294967295
 80018f4:	bf8c      	ite	hi
 80018f6:	3c03      	subhi	r4, #3
 80018f8:	2400      	movls	r4, #0
 80018fa:	fa03 f505 	lsl.w	r5, r3, r5
 80018fe:	ea21 0105 	bic.w	r1, r1, r5
 8001902:	40a3      	lsls	r3, r4
 8001904:	ea22 0203 	bic.w	r2, r2, r3
 8001908:	40a1      	lsls	r1, r4
 800190a:	2800      	cmp	r0, #0
 800190c:	ea41 0302 	orr.w	r3, r1, r2
 8001910:	bfac      	ite	ge
 8001912:	f100 4060 	addge.w	r0, r0, #3758096384	; 0xe0000000
 8001916:	4a08      	ldrlt	r2, [pc, #32]	; (8001938 <HAL_NVIC_SetPriority+0x60>)
 8001918:	ea4f 1303 	mov.w	r3, r3, lsl #4
 800191c:	bfb8      	it	lt
 800191e:	f000 000f 	andlt.w	r0, r0, #15
 8001922:	b2db      	uxtb	r3, r3
 8001924:	bfaa      	itet	ge
 8001926:	f500 4061 	addge.w	r0, r0, #57600	; 0xe100
 800192a:	5413      	strblt	r3, [r2, r0]
 800192c:	f880 3300 	strbge.w	r3, [r0, #768]	; 0x300
 8001930:	bd30      	pop	{r4, r5, pc}
 8001932:	bf00      	nop
 8001934:	e000ed00 	.word	0xe000ed00
 8001938:	e000ed14 	.word	0xe000ed14

0800193c <HAL_NVIC_EnableIRQ>:
 800193c:	2800      	cmp	r0, #0
 800193e:	db08      	blt.n	8001952 <HAL_NVIC_EnableIRQ+0x16>
 8001940:	0942      	lsrs	r2, r0, #5
 8001942:	2301      	movs	r3, #1
 8001944:	f000 001f 	and.w	r0, r0, #31
 8001948:	fa03 f000 	lsl.w	r0, r3, r0
 800194c:	4b01      	ldr	r3, [pc, #4]	; (8001954 <HAL_NVIC_EnableIRQ+0x18>)
 800194e:	f843 0022 	str.w	r0, [r3, r2, lsl #2]
 8001952:	4770      	bx	lr
 8001954:	e000e100 	.word	0xe000e100

08001958 <HAL_SYSTICK_Config>:
 8001958:	3801      	subs	r0, #1
 800195a:	f1b0 7f80 	cmp.w	r0, #16777216	; 0x1000000
 800195e:	d20a      	bcs.n	8001976 <HAL_SYSTICK_Config+0x1e>
 8001960:	4b06      	ldr	r3, [pc, #24]	; (800197c <HAL_SYSTICK_Config+0x24>)
 8001962:	4a07      	ldr	r2, [pc, #28]	; (8001980 <HAL_SYSTICK_Config+0x28>)
 8001964:	6058      	str	r0, [r3, #4]
 8001966:	21f0      	movs	r1, #240	; 0xf0
 8001968:	f882 1023 	strb.w	r1, [r2, #35]	; 0x23
 800196c:	2000      	movs	r0, #0
 800196e:	2207      	movs	r2, #7
 8001970:	6098      	str	r0, [r3, #8]
 8001972:	601a      	str	r2, [r3, #0]
 8001974:	4770      	bx	lr
 8001976:	2001      	movs	r0, #1
 8001978:	4770      	bx	lr
 800197a:	bf00      	nop
 800197c:	e000e010 	.word	0xe000e010
 8001980:	e000ed00 	.word	0xe000ed00

08001984 <HAL_GPIO_Init>:
 8001984:	e92d 4ff7 	stmdb	sp!, {r0, r1, r2, r4, r5, r6, r7, r8, r9, sl, fp, lr}
 8001988:	f8df 91a8 	ldr.w	r9, [pc, #424]	; 8001b34 <HAL_GPIO_Init+0x1b0>
 800198c:	4a67      	ldr	r2, [pc, #412]	; (8001b2c <HAL_GPIO_Init+0x1a8>)
 800198e:	2300      	movs	r3, #0
 8001990:	680d      	ldr	r5, [r1, #0]
 8001992:	2401      	movs	r4, #1
 8001994:	409c      	lsls	r4, r3
 8001996:	ea04 0c05 	and.w	ip, r4, r5
 800199a:	43ac      	bics	r4, r5
 800199c:	f040 80b1 	bne.w	8001b02 <HAL_GPIO_Init+0x17e>
 80019a0:	684d      	ldr	r5, [r1, #4]
 80019a2:	f005 0403 	and.w	r4, r5, #3
 80019a6:	ea4f 0843 	mov.w	r8, r3, lsl #1
 80019aa:	2603      	movs	r6, #3
 80019ac:	1e67      	subs	r7, r4, #1
 80019ae:	fa06 f608 	lsl.w	r6, r6, r8
 80019b2:	2f01      	cmp	r7, #1
 80019b4:	ea6f 0606 	mvn.w	r6, r6
 80019b8:	d834      	bhi.n	8001a24 <HAL_GPIO_Init+0xa0>
 80019ba:	6887      	ldr	r7, [r0, #8]
 80019bc:	ea07 0e06 	and.w	lr, r7, r6
 80019c0:	68cf      	ldr	r7, [r1, #12]
 80019c2:	fa07 f708 	lsl.w	r7, r7, r8
 80019c6:	ea47 070e 	orr.w	r7, r7, lr
 80019ca:	6087      	str	r7, [r0, #8]
 80019cc:	6847      	ldr	r7, [r0, #4]
 80019ce:	ea27 0e0c 	bic.w	lr, r7, ip
 80019d2:	f3c5 1700 	ubfx	r7, r5, #4, #1
 80019d6:	409f      	lsls	r7, r3
 80019d8:	ea47 070e 	orr.w	r7, r7, lr
 80019dc:	6047      	str	r7, [r0, #4]
 80019de:	68c7      	ldr	r7, [r0, #12]
 80019e0:	ea07 0e06 	and.w	lr, r7, r6
 80019e4:	688f      	ldr	r7, [r1, #8]
 80019e6:	fa07 f708 	lsl.w	r7, r7, r8
 80019ea:	ea47 070e 	orr.w	r7, r7, lr
 80019ee:	2c02      	cmp	r4, #2
 80019f0:	60c7      	str	r7, [r0, #12]
 80019f2:	d119      	bne.n	8001a28 <HAL_GPIO_Init+0xa4>
 80019f4:	ea4f 0ad3 	mov.w	sl, r3, lsr #3
 80019f8:	eb00 0a8a 	add.w	sl, r0, sl, lsl #2
 80019fc:	f003 0b07 	and.w	fp, r3, #7
 8001a00:	f8da 7020 	ldr.w	r7, [sl, #32]
 8001a04:	ea4f 0b8b 	mov.w	fp, fp, lsl #2
 8001a08:	f04f 0e0f 	mov.w	lr, #15
 8001a0c:	fa0e fe0b 	lsl.w	lr, lr, fp
 8001a10:	ea27 0e0e 	bic.w	lr, r7, lr
 8001a14:	690f      	ldr	r7, [r1, #16]
 8001a16:	fa07 f70b 	lsl.w	r7, r7, fp
 8001a1a:	ea47 070e 	orr.w	r7, r7, lr
 8001a1e:	f8ca 7020 	str.w	r7, [sl, #32]
 8001a22:	e001      	b.n	8001a28 <HAL_GPIO_Init+0xa4>
 8001a24:	2c03      	cmp	r4, #3
 8001a26:	d1da      	bne.n	80019de <HAL_GPIO_Init+0x5a>
 8001a28:	6807      	ldr	r7, [r0, #0]
 8001a2a:	fa04 f408 	lsl.w	r4, r4, r8
 8001a2e:	403e      	ands	r6, r7
 8001a30:	4326      	orrs	r6, r4
 8001a32:	f415 3f40 	tst.w	r5, #196608	; 0x30000
 8001a36:	6006      	str	r6, [r0, #0]
 8001a38:	d063      	beq.n	8001b02 <HAL_GPIO_Init+0x17e>
 8001a3a:	f04f 0a00 	mov.w	sl, #0
 8001a3e:	f8cd a004 	str.w	sl, [sp, #4]
 8001a42:	f8d9 6044 	ldr.w	r6, [r9, #68]	; 0x44
 8001a46:	4c3a      	ldr	r4, [pc, #232]	; (8001b30 <HAL_GPIO_Init+0x1ac>)
 8001a48:	f446 4680 	orr.w	r6, r6, #16384	; 0x4000
 8001a4c:	f8c9 6044 	str.w	r6, [r9, #68]	; 0x44
 8001a50:	f8d9 6044 	ldr.w	r6, [r9, #68]	; 0x44
 8001a54:	f406 4680 	and.w	r6, r6, #16384	; 0x4000
 8001a58:	9601      	str	r6, [sp, #4]
 8001a5a:	9e01      	ldr	r6, [sp, #4]
 8001a5c:	f023 0603 	bic.w	r6, r3, #3
 8001a60:	f106 4680 	add.w	r6, r6, #1073741824	; 0x40000000
 8001a64:	f506 369c 	add.w	r6, r6, #79872	; 0x13800
 8001a68:	f003 0e03 	and.w	lr, r3, #3
 8001a6c:	f8d6 8008 	ldr.w	r8, [r6, #8]
 8001a70:	ea4f 0e8e 	mov.w	lr, lr, lsl #2
 8001a74:	270f      	movs	r7, #15
 8001a76:	fa07 f70e 	lsl.w	r7, r7, lr
 8001a7a:	42a0      	cmp	r0, r4
 8001a7c:	ea28 0707 	bic.w	r7, r8, r7
 8001a80:	d046      	beq.n	8001b10 <HAL_GPIO_Init+0x18c>
 8001a82:	f504 6480 	add.w	r4, r4, #1024	; 0x400
 8001a86:	42a0      	cmp	r0, r4
 8001a88:	d044      	beq.n	8001b14 <HAL_GPIO_Init+0x190>
 8001a8a:	f504 6480 	add.w	r4, r4, #1024	; 0x400
 8001a8e:	42a0      	cmp	r0, r4
 8001a90:	d042      	beq.n	8001b18 <HAL_GPIO_Init+0x194>
 8001a92:	f504 6480 	add.w	r4, r4, #1024	; 0x400
 8001a96:	42a0      	cmp	r0, r4
 8001a98:	d040      	beq.n	8001b1c <HAL_GPIO_Init+0x198>
 8001a9a:	f504 6480 	add.w	r4, r4, #1024	; 0x400
 8001a9e:	42a0      	cmp	r0, r4
 8001aa0:	d03e      	beq.n	8001b20 <HAL_GPIO_Init+0x19c>
 8001aa2:	f504 6480 	add.w	r4, r4, #1024	; 0x400
 8001aa6:	42a0      	cmp	r0, r4
 8001aa8:	d03c      	beq.n	8001b24 <HAL_GPIO_Init+0x1a0>
 8001aaa:	f504 6480 	add.w	r4, r4, #1024	; 0x400
 8001aae:	42a0      	cmp	r0, r4
 8001ab0:	d03a      	beq.n	8001b28 <HAL_GPIO_Init+0x1a4>
 8001ab2:	f504 6480 	add.w	r4, r4, #1024	; 0x400
 8001ab6:	42a0      	cmp	r0, r4
 8001ab8:	bf0c      	ite	eq
 8001aba:	2407      	moveq	r4, #7
 8001abc:	2408      	movne	r4, #8
 8001abe:	fa04 f40e 	lsl.w	r4, r4, lr
 8001ac2:	433c      	orrs	r4, r7
 8001ac4:	60b4      	str	r4, [r6, #8]
 8001ac6:	6814      	ldr	r4, [r2, #0]
 8001ac8:	ea6f 060c 	mvn.w	r6, ip
 8001acc:	03ef      	lsls	r7, r5, #15
 8001ace:	bf54      	ite	pl
 8001ad0:	4034      	andpl	r4, r6
 8001ad2:	ea4c 0404 	orrmi.w	r4, ip, r4
 8001ad6:	6014      	str	r4, [r2, #0]
 8001ad8:	6854      	ldr	r4, [r2, #4]
 8001ada:	03af      	lsls	r7, r5, #14
 8001adc:	bf54      	ite	pl
 8001ade:	4034      	andpl	r4, r6
 8001ae0:	ea4c 0404 	orrmi.w	r4, ip, r4
 8001ae4:	6054      	str	r4, [r2, #4]
 8001ae6:	6894      	ldr	r4, [r2, #8]
 8001ae8:	02ef      	lsls	r7, r5, #11
 8001aea:	bf54      	ite	pl
 8001aec:	4034      	andpl	r4, r6
 8001aee:	ea4c 0404 	orrmi.w	r4, ip, r4
 8001af2:	6094      	str	r4, [r2, #8]
 8001af4:	68d4      	ldr	r4, [r2, #12]
 8001af6:	02ad      	lsls	r5, r5, #10
 8001af8:	bf54      	ite	pl
 8001afa:	4034      	andpl	r4, r6
 8001afc:	ea4c 0404 	orrmi.w	r4, ip, r4
 8001b00:	60d4      	str	r4, [r2, #12]
 8001b02:	3301      	adds	r3, #1
 8001b04:	2b10      	cmp	r3, #16
 8001b06:	f47f af43 	bne.w	8001990 <HAL_GPIO_Init+0xc>
 8001b0a:	b003      	add	sp, #12
 8001b0c:	e8bd 8ff0 	ldmia.w	sp!, {r4, r5, r6, r7, r8, r9, sl, fp, pc}
 8001b10:	4654      	mov	r4, sl
 8001b12:	e7d4      	b.n	8001abe <HAL_GPIO_Init+0x13a>
 8001b14:	2401      	movs	r4, #1
 8001b16:	e7d2      	b.n	8001abe <HAL_GPIO_Init+0x13a>
 8001b18:	2402      	movs	r4, #2
 8001b1a:	e7d0      	b.n	8001abe <HAL_GPIO_Init+0x13a>
 8001b1c:	2403      	movs	r4, #3
 8001b1e:	e7ce      	b.n	8001abe <HAL_GPIO_Init+0x13a>
 8001b20:	2404      	movs	r4, #4
 8001b22:	e7cc      	b.n	8001abe <HAL_GPIO_Init+0x13a>
 8001b24:	2405      	movs	r4, #5
 8001b26:	e7ca      	b.n	8001abe <HAL_GPIO_Init+0x13a>
 8001b28:	2406      	movs	r4, #6
 8001b2a:	e7c8      	b.n	8001abe <HAL_GPIO_Init+0x13a>
 8001b2c:	40013c00 	.word	0x40013c00
 8001b30:	40020000 	.word	0x40020000
 8001b34:	40023800 	.word	0x40023800

08001b38 <HAL_GPIO_ReadPin>:
 8001b38:	6903      	ldr	r3, [r0, #16]
 8001b3a:	4219      	tst	r1, r3
 8001b3c:	bf14      	ite	ne
 8001b3e:	2001      	movne	r0, #1
 8001b40:	2000      	moveq	r0, #0
 8001b42:	4770      	bx	lr

08001b44 <HAL_GPIO_WritePin>:
 8001b44:	b10a      	cbz	r2, 8001b4a <HAL_GPIO_WritePin+0x6>
 8001b46:	6181      	str	r1, [r0, #24]
 8001b48:	4770      	bx	lr
 8001b4a:	0409      	lsls	r1, r1, #16
 8001b4c:	e7fb      	b.n	8001b46 <HAL_GPIO_WritePin+0x2>

08001b4e <HAL_HCD_HC_Init>:
 8001b4e:	e92d 43f0 	stmdb	sp!, {r4, r5, r6, r7, r8, r9, lr}
 8001b52:	4605      	mov	r5, r0
 8001b54:	b085      	sub	sp, #20
 8001b56:	f895 42f8 	ldrb.w	r4, [r5, #760]	; 0x2f8
 8001b5a:	f89d e030 	ldrb.w	lr, [sp, #48]	; 0x30
 8001b5e:	f89d 8034 	ldrb.w	r8, [sp, #52]	; 0x34
 8001b62:	f8bd 9038 	ldrh.w	r9, [sp, #56]	; 0x38
 8001b66:	2c01      	cmp	r4, #1
 8001b68:	d025      	beq.n	8001bb6 <HAL_HCD_HC_Init+0x68>
 8001b6a:	2401      	movs	r4, #1
 8001b6c:	f885 42f8 	strb.w	r4, [r5, #760]	; 0x2f8
 8001b70:	242c      	movs	r4, #44	; 0x2c
 8001b72:	fb04 5401 	mla	r4, r4, r1, r5
 8001b76:	09d0      	lsrs	r0, r2, #7
 8001b78:	2700      	movs	r7, #0
 8001b7a:	f002 067f 	and.w	r6, r2, #127	; 0x7f
 8001b7e:	f884 703d 	strb.w	r7, [r4, #61]	; 0x3d
 8001b82:	f884 3038 	strb.w	r3, [r4, #56]	; 0x38
 8001b86:	f884 1039 	strb.w	r1, [r4, #57]	; 0x39
 8001b8a:	f884 803f 	strb.w	r8, [r4, #63]	; 0x3f
 8001b8e:	f884 603a 	strb.w	r6, [r4, #58]	; 0x3a
 8001b92:	f884 003b 	strb.w	r0, [r4, #59]	; 0x3b
 8001b96:	f884 e03c 	strb.w	lr, [r4, #60]	; 0x3c
 8001b9a:	f8a4 9040 	strh.w	r9, [r4, #64]	; 0x40
 8001b9e:	6828      	ldr	r0, [r5, #0]
 8001ba0:	f8cd e000 	str.w	lr, [sp]
 8001ba4:	e9cd 8901 	strd	r8, r9, [sp, #4]
 8001ba8:	f001 f8a6 	bl	8002cf8 <USB_HC_Init>
 8001bac:	f885 72f8 	strb.w	r7, [r5, #760]	; 0x2f8
 8001bb0:	b005      	add	sp, #20
 8001bb2:	e8bd 83f0 	ldmia.w	sp!, {r4, r5, r6, r7, r8, r9, pc}
 8001bb6:	2002      	movs	r0, #2
 8001bb8:	e7fa      	b.n	8001bb0 <HAL_HCD_HC_Init+0x62>

08001bba <HAL_HCD_HC_Halt>:
 8001bba:	b510      	push	{r4, lr}
 8001bbc:	f890 32f8 	ldrb.w	r3, [r0, #760]	; 0x2f8
 8001bc0:	2b01      	cmp	r3, #1
 8001bc2:	4604      	mov	r4, r0
 8001bc4:	d009      	beq.n	8001bda <HAL_HCD_HC_Halt+0x20>
 8001bc6:	2301      	movs	r3, #1
 8001bc8:	f880 32f8 	strb.w	r3, [r0, #760]	; 0x2f8
 8001bcc:	6800      	ldr	r0, [r0, #0]
 8001bce:	f001 f912 	bl	8002df6 <USB_HC_Halt>
 8001bd2:	2000      	movs	r0, #0
 8001bd4:	f884 02f8 	strb.w	r0, [r4, #760]	; 0x2f8
 8001bd8:	bd10      	pop	{r4, pc}
 8001bda:	2002      	movs	r0, #2
 8001bdc:	e7fc      	b.n	8001bd8 <HAL_HCD_HC_Halt+0x1e>

08001bde <HAL_HCD_Init>:
 8001bde:	e92d 41f0 	stmdb	sp!, {r4, r5, r6, r7, r8, lr}
 8001be2:	4605      	mov	r5, r0
 8001be4:	b08a      	sub	sp, #40	; 0x28
 8001be6:	2800      	cmp	r0, #0
 8001be8:	d041      	beq.n	8001c6e <HAL_HCD_Init+0x90>
 8001bea:	f890 32f9 	ldrb.w	r3, [r0, #761]	; 0x2f9
 8001bee:	6804      	ldr	r4, [r0, #0]
 8001bf0:	f003 02ff 	and.w	r2, r3, #255	; 0xff
 8001bf4:	b91b      	cbnz	r3, 8001bfe <HAL_HCD_Init+0x20>
 8001bf6:	f880 22f8 	strb.w	r2, [r0, #760]	; 0x2f8
 8001bfa:	f003 ffbd 	bl	8005b78 <HAL_HCD_MspInit>
 8001bfe:	2303      	movs	r3, #3
 8001c00:	f885 32f9 	strb.w	r3, [r5, #761]	; 0x2f9
 8001c04:	6be3      	ldr	r3, [r4, #60]	; 0x3c
 8001c06:	462c      	mov	r4, r5
 8001c08:	f413 7380 	ands.w	r3, r3, #256	; 0x100
 8001c0c:	f854 0b10 	ldr.w	r0, [r4], #16
 8001c10:	bf08      	it	eq
 8001c12:	612b      	streq	r3, [r5, #16]
 8001c14:	f000 fefe 	bl	8002a14 <USB_DisableGlobalInt>
 8001c18:	cc0f      	ldmia	r4!, {r0, r1, r2, r3}
 8001c1a:	466e      	mov	r6, sp
 8001c1c:	c60f      	stmia	r6!, {r0, r1, r2, r3}
 8001c1e:	cc0f      	ldmia	r4!, {r0, r1, r2, r3}
 8001c20:	c60f      	stmia	r6!, {r0, r1, r2, r3}
 8001c22:	e894 0003 	ldmia.w	r4, {r0, r1}
 8001c26:	e886 0003 	stmia.w	r6, {r0, r1}
 8001c2a:	f105 0804 	add.w	r8, r5, #4
 8001c2e:	462f      	mov	r7, r5
 8001c30:	e898 000e 	ldmia.w	r8, {r1, r2, r3}
 8001c34:	6828      	ldr	r0, [r5, #0]
 8001c36:	f000 fea7 	bl	8002988 <USB_CoreInit>
 8001c3a:	f857 0b10 	ldr.w	r0, [r7], #16
 8001c3e:	2101      	movs	r1, #1
 8001c40:	f000 feee 	bl	8002a20 <USB_SetCurrentMode>
 8001c44:	cf0f      	ldmia	r7!, {r0, r1, r2, r3}
 8001c46:	466e      	mov	r6, sp
 8001c48:	c60f      	stmia	r6!, {r0, r1, r2, r3}
 8001c4a:	cf0f      	ldmia	r7!, {r0, r1, r2, r3}
 8001c4c:	c60f      	stmia	r6!, {r0, r1, r2, r3}
 8001c4e:	e894 0003 	ldmia.w	r4, {r0, r1}
 8001c52:	e886 0003 	stmia.w	r6, {r0, r1}
 8001c56:	e898 000e 	ldmia.w	r8, {r1, r2, r3}
 8001c5a:	6828      	ldr	r0, [r5, #0]
 8001c5c:	f000 ff7c 	bl	8002b58 <USB_HostInit>
 8001c60:	2301      	movs	r3, #1
 8001c62:	f885 32f9 	strb.w	r3, [r5, #761]	; 0x2f9
 8001c66:	2000      	movs	r0, #0
 8001c68:	b00a      	add	sp, #40	; 0x28
 8001c6a:	e8bd 81f0 	ldmia.w	sp!, {r4, r5, r6, r7, r8, pc}
 8001c6e:	2001      	movs	r0, #1
 8001c70:	e7fa      	b.n	8001c68 <HAL_HCD_Init+0x8a>
	...

08001c74 <HAL_HCD_HC_SubmitRequest>:
 8001c74:	b4f0      	push	{r4, r5, r6, r7}
 8001c76:	262c      	movs	r6, #44	; 0x2c
 8001c78:	fb06 0601 	mla	r6, r6, r1, r0
 8001c7c:	f89d 7010 	ldrb.w	r7, [sp, #16]
 8001c80:	9d05      	ldr	r5, [sp, #20]
 8001c82:	f8bd 4018 	ldrh.w	r4, [sp, #24]
 8001c86:	f89d c01c 	ldrb.w	ip, [sp, #28]
 8001c8a:	f886 203b 	strb.w	r2, [r6, #59]	; 0x3b
 8001c8e:	f886 303f 	strb.w	r3, [r6, #63]	; 0x3f
 8001c92:	b97f      	cbnz	r7, 8001cb4 <HAL_HCD_HC_SubmitRequest+0x40>
 8001c94:	2703      	movs	r7, #3
 8001c96:	2b02      	cmp	r3, #2
 8001c98:	f886 7042 	strb.w	r7, [r6, #66]	; 0x42
 8001c9c:	f886 c03d 	strb.w	ip, [r6, #61]	; 0x3d
 8001ca0:	d042      	beq.n	8001d28 <HAL_HCD_HC_SubmitRequest+0xb4>
 8001ca2:	42bb      	cmp	r3, r7
 8001ca4:	d040      	beq.n	8001d28 <HAL_HCD_HC_SubmitRequest+0xb4>
 8001ca6:	2b01      	cmp	r3, #1
 8001ca8:	d12a      	bne.n	8001d00 <HAL_HCD_HC_SubmitRequest+0x8c>
 8001caa:	232c      	movs	r3, #44	; 0x2c
 8001cac:	fb03 0301 	mla	r3, r3, r1, r0
 8001cb0:	2200      	movs	r2, #0
 8001cb2:	e023      	b.n	8001cfc <HAL_HCD_HC_SubmitRequest+0x88>
 8001cb4:	f04f 0c02 	mov.w	ip, #2
 8001cb8:	f886 c042 	strb.w	ip, [r6, #66]	; 0x42
 8001cbc:	2b03      	cmp	r3, #3
 8001cbe:	d81f      	bhi.n	8001d00 <HAL_HCD_HC_SubmitRequest+0x8c>
 8001cc0:	a601      	add	r6, pc, #4	; (adr r6, 8001cc8 <HAL_HCD_HC_SubmitRequest+0x54>)
 8001cc2:	f856 f023 	ldr.w	pc, [r6, r3, lsl #2]
 8001cc6:	bf00      	nop
 8001cc8:	08001cd9 	.word	0x08001cd9
 8001ccc:	08001cab 	.word	0x08001cab
 8001cd0:	08001d29 	.word	0x08001d29
 8001cd4:	08001d29 	.word	0x08001d29
 8001cd8:	2f01      	cmp	r7, #1
 8001cda:	d111      	bne.n	8001d00 <HAL_HCD_HC_SubmitRequest+0x8c>
 8001cdc:	b982      	cbnz	r2, 8001d00 <HAL_HCD_HC_SubmitRequest+0x8c>
 8001cde:	232c      	movs	r3, #44	; 0x2c
 8001ce0:	fb03 0301 	mla	r3, r3, r1, r0
 8001ce4:	b934      	cbnz	r4, 8001cf4 <HAL_HCD_HC_SubmitRequest+0x80>
 8001ce6:	f883 7055 	strb.w	r7, [r3, #85]	; 0x55
 8001cea:	232c      	movs	r3, #44	; 0x2c
 8001cec:	fb03 0301 	mla	r3, r3, r1, r0
 8001cf0:	2202      	movs	r2, #2
 8001cf2:	e003      	b.n	8001cfc <HAL_HCD_HC_SubmitRequest+0x88>
 8001cf4:	f893 6055 	ldrb.w	r6, [r3, #85]	; 0x55
 8001cf8:	2e00      	cmp	r6, #0
 8001cfa:	d1f6      	bne.n	8001cea <HAL_HCD_HC_SubmitRequest+0x76>
 8001cfc:	f883 2042 	strb.w	r2, [r3, #66]	; 0x42
 8001d00:	262c      	movs	r6, #44	; 0x2c
 8001d02:	fb06 0301 	mla	r3, r6, r1, r0
 8001d06:	2200      	movs	r2, #0
 8001d08:	f883 1039 	strb.w	r1, [r3, #57]	; 0x39
 8001d0c:	f883 2060 	strb.w	r2, [r3, #96]	; 0x60
 8001d10:	f883 2061 	strb.w	r2, [r3, #97]	; 0x61
 8001d14:	4619      	mov	r1, r3
 8001d16:	645d      	str	r5, [r3, #68]	; 0x44
 8001d18:	64dc      	str	r4, [r3, #76]	; 0x4c
 8001d1a:	651a      	str	r2, [r3, #80]	; 0x50
 8001d1c:	bcf0      	pop	{r4, r5, r6, r7}
 8001d1e:	7c02      	ldrb	r2, [r0, #16]
 8001d20:	6800      	ldr	r0, [r0, #0]
 8001d22:	3138      	adds	r1, #56	; 0x38
 8001d24:	f001 b8d8 	b.w	8002ed8 <USB_HC_StartXfer>
 8001d28:	232c      	movs	r3, #44	; 0x2c
 8001d2a:	fb03 0301 	mla	r3, r3, r1, r0
 8001d2e:	b922      	cbnz	r2, 8001d3a <HAL_HCD_HC_SubmitRequest+0xc6>
 8001d30:	f893 6055 	ldrb.w	r6, [r3, #85]	; 0x55
 8001d34:	2e00      	cmp	r6, #0
 8001d36:	d1db      	bne.n	8001cf0 <HAL_HCD_HC_SubmitRequest+0x7c>
 8001d38:	e7e0      	b.n	8001cfc <HAL_HCD_HC_SubmitRequest+0x88>
 8001d3a:	f893 2054 	ldrb.w	r2, [r3, #84]	; 0x54
 8001d3e:	2a00      	cmp	r2, #0
 8001d40:	d1d6      	bne.n	8001cf0 <HAL_HCD_HC_SubmitRequest+0x7c>
 8001d42:	e7db      	b.n	8001cfc <HAL_HCD_HC_SubmitRequest+0x88>

08001d44 <HAL_HCD_IRQHandler>:
 8001d44:	e92d 4ff0 	stmdb	sp!, {r4, r5, r6, r7, r8, r9, sl, fp, lr}
 8001d48:	f8d0 9000 	ldr.w	r9, [r0]
 8001d4c:	b085      	sub	sp, #20
 8001d4e:	4605      	mov	r5, r0
 8001d50:	4648      	mov	r0, r9
 8001d52:	f000 fefd 	bl	8002b50 <USB_GetMode>
 8001d56:	2801      	cmp	r0, #1
 8001d58:	f040 80f6 	bne.w	8001f48 <HAL_HCD_IRQHandler+0x204>
 8001d5c:	6828      	ldr	r0, [r5, #0]
 8001d5e:	f000 fef3 	bl	8002b48 <USB_ReadInterrupts>
 8001d62:	2800      	cmp	r0, #0
 8001d64:	f000 80f0 	beq.w	8001f48 <HAL_HCD_IRQHandler+0x204>
 8001d68:	6828      	ldr	r0, [r5, #0]
 8001d6a:	f000 feed 	bl	8002b48 <USB_ReadInterrupts>
 8001d6e:	0281      	lsls	r1, r0, #10
 8001d70:	bf48      	it	mi
 8001d72:	682b      	ldrmi	r3, [r5, #0]
 8001d74:	6828      	ldr	r0, [r5, #0]
 8001d76:	bf44      	itt	mi
 8001d78:	f44f 1200 	movmi.w	r2, #2097152	; 0x200000
 8001d7c:	615a      	strmi	r2, [r3, #20]
 8001d7e:	f000 fee3 	bl	8002b48 <USB_ReadInterrupts>
 8001d82:	02c2      	lsls	r2, r0, #11
 8001d84:	bf48      	it	mi
 8001d86:	682b      	ldrmi	r3, [r5, #0]
 8001d88:	6828      	ldr	r0, [r5, #0]
 8001d8a:	bf44      	itt	mi
 8001d8c:	f44f 1280 	movmi.w	r2, #1048576	; 0x100000
 8001d90:	615a      	strmi	r2, [r3, #20]
 8001d92:	f000 fed9 	bl	8002b48 <USB_ReadInterrupts>
 8001d96:	0143      	lsls	r3, r0, #5
 8001d98:	bf48      	it	mi
 8001d9a:	682b      	ldrmi	r3, [r5, #0]
 8001d9c:	6828      	ldr	r0, [r5, #0]
 8001d9e:	bf44      	itt	mi
 8001da0:	f04f 6280 	movmi.w	r2, #67108864	; 0x4000000
 8001da4:	615a      	strmi	r2, [r3, #20]
 8001da6:	f000 fecf 	bl	8002b48 <USB_ReadInterrupts>
 8001daa:	0787      	lsls	r7, r0, #30
 8001dac:	bf48      	it	mi
 8001dae:	682b      	ldrmi	r3, [r5, #0]
 8001db0:	6828      	ldr	r0, [r5, #0]
 8001db2:	bf44      	itt	mi
 8001db4:	2202      	movmi	r2, #2
 8001db6:	615a      	strmi	r2, [r3, #20]
 8001db8:	f000 fec6 	bl	8002b48 <USB_ReadInterrupts>
 8001dbc:	0086      	lsls	r6, r0, #2
 8001dbe:	d515      	bpl.n	8001dec <HAL_HCD_IRQHandler+0xa8>
 8001dc0:	682b      	ldr	r3, [r5, #0]
 8001dc2:	f04f 5200 	mov.w	r2, #536870912	; 0x20000000
 8001dc6:	615a      	str	r2, [r3, #20]
 8001dc8:	f8d9 3440 	ldr.w	r3, [r9, #1088]	; 0x440
 8001dcc:	07dc      	lsls	r4, r3, #31
 8001dce:	d40d      	bmi.n	8001dec <HAL_HCD_IRQHandler+0xa8>
 8001dd0:	2110      	movs	r1, #16
 8001dd2:	4648      	mov	r0, r9
 8001dd4:	f000 fe54 	bl	8002a80 <USB_FlushTxFifo>
 8001dd8:	4648      	mov	r0, r9
 8001dda:	f000 fe69 	bl	8002ab0 <USB_FlushRxFifo>
 8001dde:	6828      	ldr	r0, [r5, #0]
 8001de0:	2101      	movs	r1, #1
 8001de2:	f000 ff1f 	bl	8002c24 <USB_InitFSLSPClkSel>
 8001de6:	4628      	mov	r0, r5
 8001de8:	f003 ff18 	bl	8005c1c <HAL_HCD_Disconnect_Callback>
 8001dec:	6828      	ldr	r0, [r5, #0]
 8001dee:	f000 feab 	bl	8002b48 <USB_ReadInterrupts>
 8001df2:	01c0      	lsls	r0, r0, #7
 8001df4:	d53d      	bpl.n	8001e72 <HAL_HCD_IRQHandler+0x12e>
 8001df6:	682c      	ldr	r4, [r5, #0]
 8001df8:	f8d4 3440 	ldr.w	r3, [r4, #1088]	; 0x440
 8001dfc:	9302      	str	r3, [sp, #8]
 8001dfe:	f8d4 3440 	ldr.w	r3, [r4, #1088]	; 0x440
 8001e02:	9303      	str	r3, [sp, #12]
 8001e04:	9b03      	ldr	r3, [sp, #12]
 8001e06:	f023 032e 	bic.w	r3, r3, #46	; 0x2e
 8001e0a:	9303      	str	r3, [sp, #12]
 8001e0c:	9b02      	ldr	r3, [sp, #8]
 8001e0e:	0799      	lsls	r1, r3, #30
 8001e10:	d509      	bpl.n	8001e26 <HAL_HCD_IRQHandler+0xe2>
 8001e12:	9b02      	ldr	r3, [sp, #8]
 8001e14:	07da      	lsls	r2, r3, #31
 8001e16:	d502      	bpl.n	8001e1e <HAL_HCD_IRQHandler+0xda>
 8001e18:	4628      	mov	r0, r5
 8001e1a:	f003 fefb 	bl	8005c14 <HAL_HCD_Connect_Callback>
 8001e1e:	9b03      	ldr	r3, [sp, #12]
 8001e20:	f043 0302 	orr.w	r3, r3, #2
 8001e24:	9303      	str	r3, [sp, #12]
 8001e26:	9b02      	ldr	r3, [sp, #8]
 8001e28:	071b      	lsls	r3, r3, #28
 8001e2a:	d518      	bpl.n	8001e5e <HAL_HCD_IRQHandler+0x11a>
 8001e2c:	9b03      	ldr	r3, [sp, #12]
 8001e2e:	f043 0308 	orr.w	r3, r3, #8
 8001e32:	9303      	str	r3, [sp, #12]
 8001e34:	9b02      	ldr	r3, [sp, #8]
 8001e36:	075f      	lsls	r7, r3, #29
 8001e38:	f140 8091 	bpl.w	8001f5e <HAL_HCD_IRQHandler+0x21a>
 8001e3c:	69a9      	ldr	r1, [r5, #24]
 8001e3e:	2902      	cmp	r1, #2
 8001e40:	f040 8085 	bne.w	8001f4e <HAL_HCD_IRQHandler+0x20a>
 8001e44:	9b02      	ldr	r3, [sp, #8]
 8001e46:	6828      	ldr	r0, [r5, #0]
 8001e48:	f403 23c0 	and.w	r3, r3, #393216	; 0x60000
 8001e4c:	f5b3 2f80 	cmp.w	r3, #262144	; 0x40000
 8001e50:	bf18      	it	ne
 8001e52:	2101      	movne	r1, #1
 8001e54:	f000 fee6 	bl	8002c24 <USB_InitFSLSPClkSel>
 8001e58:	4628      	mov	r0, r5
 8001e5a:	f003 fee4 	bl	8005c26 <HAL_HCD_PortEnabled_Callback>
 8001e5e:	9b02      	ldr	r3, [sp, #8]
 8001e60:	069e      	lsls	r6, r3, #26
 8001e62:	bf42      	ittt	mi
 8001e64:	9b03      	ldrmi	r3, [sp, #12]
 8001e66:	f043 0320 	orrmi.w	r3, r3, #32
 8001e6a:	9303      	strmi	r3, [sp, #12]
 8001e6c:	9b03      	ldr	r3, [sp, #12]
 8001e6e:	f8c4 3440 	str.w	r3, [r4, #1088]	; 0x440
 8001e72:	6828      	ldr	r0, [r5, #0]
 8001e74:	f000 fe68 	bl	8002b48 <USB_ReadInterrupts>
 8001e78:	0704      	lsls	r4, r0, #28
 8001e7a:	d505      	bpl.n	8001e88 <HAL_HCD_IRQHandler+0x144>
 8001e7c:	4628      	mov	r0, r5
 8001e7e:	f003 fec5 	bl	8005c0c <HAL_HCD_SOF_Callback>
 8001e82:	682b      	ldr	r3, [r5, #0]
 8001e84:	2208      	movs	r2, #8
 8001e86:	615a      	str	r2, [r3, #20]
 8001e88:	6828      	ldr	r0, [r5, #0]
 8001e8a:	f000 fe5d 	bl	8002b48 <USB_ReadInterrupts>
 8001e8e:	06c0      	lsls	r0, r0, #27
 8001e90:	d542      	bpl.n	8001f18 <HAL_HCD_IRQHandler+0x1d4>
 8001e92:	682e      	ldr	r6, [r5, #0]
 8001e94:	69b3      	ldr	r3, [r6, #24]
 8001e96:	f023 0310 	bic.w	r3, r3, #16
 8001e9a:	61b3      	str	r3, [r6, #24]
 8001e9c:	6a37      	ldr	r7, [r6, #32]
 8001e9e:	f3c7 4343 	ubfx	r3, r7, #17, #4
 8001ea2:	2b02      	cmp	r3, #2
 8001ea4:	d133      	bne.n	8001f0e <HAL_HCD_IRQHandler+0x1ca>
 8001ea6:	f3c7 180a 	ubfx	r8, r7, #4, #11
 8001eaa:	f1b8 0f00 	cmp.w	r8, #0
 8001eae:	d02e      	beq.n	8001f0e <HAL_HCD_IRQHandler+0x1ca>
 8001eb0:	f007 070f 	and.w	r7, r7, #15
 8001eb4:	242c      	movs	r4, #44	; 0x2c
 8001eb6:	fb04 5407 	mla	r4, r4, r7, r5
 8001eba:	6c61      	ldr	r1, [r4, #68]	; 0x44
 8001ebc:	b339      	cbz	r1, 8001f0e <HAL_HCD_IRQHandler+0x1ca>
 8001ebe:	6d23      	ldr	r3, [r4, #80]	; 0x50
 8001ec0:	6ce2      	ldr	r2, [r4, #76]	; 0x4c
 8001ec2:	4443      	add	r3, r8
 8001ec4:	4293      	cmp	r3, r2
 8001ec6:	d84e      	bhi.n	8001f66 <HAL_HCD_IRQHandler+0x222>
 8001ec8:	4642      	mov	r2, r8
 8001eca:	4630      	mov	r0, r6
 8001ecc:	f000 fe19 	bl	8002b02 <USB_ReadPacket>
 8001ed0:	6c63      	ldr	r3, [r4, #68]	; 0x44
 8001ed2:	f8b4 1040 	ldrh.w	r1, [r4, #64]	; 0x40
 8001ed6:	4443      	add	r3, r8
 8001ed8:	6463      	str	r3, [r4, #68]	; 0x44
 8001eda:	f506 66a0 	add.w	r6, r6, #1280	; 0x500
 8001ede:	6d23      	ldr	r3, [r4, #80]	; 0x50
 8001ee0:	017a      	lsls	r2, r7, #5
 8001ee2:	eb06 1747 	add.w	r7, r6, r7, lsl #5
 8001ee6:	4443      	add	r3, r8
 8001ee8:	4588      	cmp	r8, r1
 8001eea:	6523      	str	r3, [r4, #80]	; 0x50
 8001eec:	693b      	ldr	r3, [r7, #16]
 8001eee:	d10e      	bne.n	8001f0e <HAL_HCD_IRQHandler+0x1ca>
 8001ef0:	f3c3 43c9 	ubfx	r3, r3, #19, #10
 8001ef4:	b15b      	cbz	r3, 8001f0e <HAL_HCD_IRQHandler+0x1ca>
 8001ef6:	5993      	ldr	r3, [r2, r6]
 8001ef8:	f023 4380 	bic.w	r3, r3, #1073741824	; 0x40000000
 8001efc:	f043 4300 	orr.w	r3, r3, #2147483648	; 0x80000000
 8001f00:	5193      	str	r3, [r2, r6]
 8001f02:	f894 3054 	ldrb.w	r3, [r4, #84]	; 0x54
 8001f06:	f083 0301 	eor.w	r3, r3, #1
 8001f0a:	f884 3054 	strb.w	r3, [r4, #84]	; 0x54
 8001f0e:	682a      	ldr	r2, [r5, #0]
 8001f10:	6993      	ldr	r3, [r2, #24]
 8001f12:	f043 0310 	orr.w	r3, r3, #16
 8001f16:	6193      	str	r3, [r2, #24]
 8001f18:	6828      	ldr	r0, [r5, #0]
 8001f1a:	f000 fe15 	bl	8002b48 <USB_ReadInterrupts>
 8001f1e:	0181      	lsls	r1, r0, #6
 8001f20:	d512      	bpl.n	8001f48 <HAL_HCD_IRQHandler+0x204>
 8001f22:	6828      	ldr	r0, [r5, #0]
 8001f24:	f000 ff62 	bl	8002dec <USB_HC_ReadInterrupt>
 8001f28:	f509 63a0 	add.w	r3, r9, #1280	; 0x500
 8001f2c:	9000      	str	r0, [sp, #0]
 8001f2e:	f04f 0a00 	mov.w	sl, #0
 8001f32:	9301      	str	r3, [sp, #4]
 8001f34:	272c      	movs	r7, #44	; 0x2c
 8001f36:	f04f 0802 	mov.w	r8, #2
 8001f3a:	68ab      	ldr	r3, [r5, #8]
 8001f3c:	6828      	ldr	r0, [r5, #0]
 8001f3e:	4553      	cmp	r3, sl
 8001f40:	d815      	bhi.n	8001f6e <HAL_HCD_IRQHandler+0x22a>
 8001f42:	f04f 7300 	mov.w	r3, #33554432	; 0x2000000
 8001f46:	6143      	str	r3, [r0, #20]
 8001f48:	b005      	add	sp, #20
 8001f4a:	e8bd 8ff0 	ldmia.w	sp!, {r4, r5, r6, r7, r8, r9, sl, fp, pc}
 8001f4e:	68eb      	ldr	r3, [r5, #12]
 8001f50:	2b01      	cmp	r3, #1
 8001f52:	bf04      	itt	eq
 8001f54:	f64e 2260 	movweq	r2, #60000	; 0xea60
 8001f58:	f8c4 2404 	streq.w	r2, [r4, #1028]	; 0x404
 8001f5c:	e77c      	b.n	8001e58 <HAL_HCD_IRQHandler+0x114>
 8001f5e:	4628      	mov	r0, r5
 8001f60:	f003 fe65 	bl	8005c2e <HAL_HCD_PortDisabled_Callback>
 8001f64:	e77b      	b.n	8001e5e <HAL_HCD_IRQHandler+0x11a>
 8001f66:	2304      	movs	r3, #4
 8001f68:	f884 3060 	strb.w	r3, [r4, #96]	; 0x60
 8001f6c:	e7cf      	b.n	8001f0e <HAL_HCD_IRQHandler+0x1ca>
 8001f6e:	9a00      	ldr	r2, [sp, #0]
 8001f70:	f00a 030f 	and.w	r3, sl, #15
 8001f74:	fa22 f303 	lsr.w	r3, r2, r3
 8001f78:	07da      	lsls	r2, r3, #31
 8001f7a:	f140 80af 	bpl.w	80020dc <HAL_HCD_IRQHandler+0x398>
 8001f7e:	9a01      	ldr	r2, [sp, #4]
 8001f80:	ea4f 134a 	mov.w	r3, sl, lsl #5
 8001f84:	fa5f f68a 	uxtb.w	r6, sl
 8001f88:	58d1      	ldr	r1, [r2, r3]
 8001f8a:	f500 6ba0 	add.w	fp, r0, #1280	; 0x500
 8001f8e:	eb0b 1446 	add.w	r4, fp, r6, lsl #5
 8001f92:	f411 4f00 	tst.w	r1, #32768	; 0x8000
 8001f96:	ea4f 1946 	mov.w	r9, r6, lsl #5
 8001f9a:	68a1      	ldr	r1, [r4, #8]
 8001f9c:	f000 811c 	beq.w	80021d8 <HAL_HCD_IRQHandler+0x494>
 8001fa0:	074b      	lsls	r3, r1, #29
 8001fa2:	d513      	bpl.n	8001fcc <HAL_HCD_IRQHandler+0x288>
 8001fa4:	2104      	movs	r1, #4
 8001fa6:	60a1      	str	r1, [r4, #8]
 8001fa8:	68e1      	ldr	r1, [r4, #12]
 8001faa:	f041 0102 	orr.w	r1, r1, #2
 8001fae:	60e1      	str	r1, [r4, #12]
 8001fb0:	68a1      	ldr	r1, [r4, #8]
 8001fb2:	058b      	lsls	r3, r1, #22
 8001fb4:	d55a      	bpl.n	800206c <HAL_HCD_IRQHandler+0x328>
 8001fb6:	68e3      	ldr	r3, [r4, #12]
 8001fb8:	6828      	ldr	r0, [r5, #0]
 8001fba:	f043 0302 	orr.w	r3, r3, #2
 8001fbe:	60e3      	str	r3, [r4, #12]
 8001fc0:	4631      	mov	r1, r6
 8001fc2:	f000 ff18 	bl	8002df6 <USB_HC_Halt>
 8001fc6:	f44f 7300 	mov.w	r3, #512	; 0x200
 8001fca:	e0f8      	b.n	80021be <HAL_HCD_IRQHandler+0x47a>
 8001fcc:	68a1      	ldr	r1, [r4, #8]
 8001fce:	05c9      	lsls	r1, r1, #23
 8001fd0:	d510      	bpl.n	8001ff4 <HAL_HCD_IRQHandler+0x2b0>
 8001fd2:	f44f 7180 	mov.w	r1, #256	; 0x100
 8001fd6:	60a1      	str	r1, [r4, #8]
 8001fd8:	fb07 5106 	mla	r1, r7, r6, r5
 8001fdc:	f04f 0c07 	mov.w	ip, #7
 8001fe0:	f881 c061 	strb.w	ip, [r1, #97]	; 0x61
 8001fe4:	68e1      	ldr	r1, [r4, #12]
 8001fe6:	f041 0102 	orr.w	r1, r1, #2
 8001fea:	60e1      	str	r1, [r4, #12]
 8001fec:	4631      	mov	r1, r6
 8001fee:	f000 ff02 	bl	8002df6 <USB_HC_Halt>
 8001ff2:	e7dd      	b.n	8001fb0 <HAL_HCD_IRQHandler+0x26c>
 8001ff4:	68a1      	ldr	r1, [r4, #8]
 8001ff6:	068a      	lsls	r2, r1, #26
 8001ff8:	d502      	bpl.n	8002000 <HAL_HCD_IRQHandler+0x2bc>
 8001ffa:	2120      	movs	r1, #32
 8001ffc:	60a1      	str	r1, [r4, #8]
 8001ffe:	e7d7      	b.n	8001fb0 <HAL_HCD_IRQHandler+0x26c>
 8002000:	68a1      	ldr	r1, [r4, #8]
 8002002:	070b      	lsls	r3, r1, #28
 8002004:	d50e      	bpl.n	8002024 <HAL_HCD_IRQHandler+0x2e0>
 8002006:	68e1      	ldr	r1, [r4, #12]
 8002008:	f041 0102 	orr.w	r1, r1, #2
 800200c:	60e1      	str	r1, [r4, #12]
 800200e:	fb07 5106 	mla	r1, r7, r6, r5
 8002012:	f04f 0c05 	mov.w	ip, #5
 8002016:	f881 c061 	strb.w	ip, [r1, #97]	; 0x61
 800201a:	2110      	movs	r1, #16
 800201c:	60a1      	str	r1, [r4, #8]
 800201e:	2108      	movs	r1, #8
 8002020:	60a1      	str	r1, [r4, #8]
 8002022:	e7e3      	b.n	8001fec <HAL_HCD_IRQHandler+0x2a8>
 8002024:	68a1      	ldr	r1, [r4, #8]
 8002026:	0549      	lsls	r1, r1, #21
 8002028:	d50e      	bpl.n	8002048 <HAL_HCD_IRQHandler+0x304>
 800202a:	68e1      	ldr	r1, [r4, #12]
 800202c:	f041 0102 	orr.w	r1, r1, #2
 8002030:	60e1      	str	r1, [r4, #12]
 8002032:	fb07 5106 	mla	r1, r7, r6, r5
 8002036:	f04f 0c08 	mov.w	ip, #8
 800203a:	f881 c061 	strb.w	ip, [r1, #97]	; 0x61
 800203e:	2110      	movs	r1, #16
 8002040:	60a1      	str	r1, [r4, #8]
 8002042:	f44f 6180 	mov.w	r1, #1024	; 0x400
 8002046:	e7eb      	b.n	8002020 <HAL_HCD_IRQHandler+0x2dc>
 8002048:	68a1      	ldr	r1, [r4, #8]
 800204a:	060a      	lsls	r2, r1, #24
 800204c:	d5b0      	bpl.n	8001fb0 <HAL_HCD_IRQHandler+0x26c>
 800204e:	68e1      	ldr	r1, [r4, #12]
 8002050:	f041 0102 	orr.w	r1, r1, #2
 8002054:	60e1      	str	r1, [r4, #12]
 8002056:	fb07 5106 	mla	r1, r7, r6, r5
 800205a:	f04f 0c06 	mov.w	ip, #6
 800205e:	f881 c061 	strb.w	ip, [r1, #97]	; 0x61
 8002062:	4631      	mov	r1, r6
 8002064:	f000 fec7 	bl	8002df6 <USB_HC_Halt>
 8002068:	2180      	movs	r1, #128	; 0x80
 800206a:	e7c7      	b.n	8001ffc <HAL_HCD_IRQHandler+0x2b8>
 800206c:	68a1      	ldr	r1, [r4, #8]
 800206e:	07c8      	lsls	r0, r1, #31
 8002070:	d552      	bpl.n	8002118 <HAL_HCD_IRQHandler+0x3d4>
 8002072:	6929      	ldr	r1, [r5, #16]
 8002074:	b149      	cbz	r1, 800208a <HAL_HCD_IRQHandler+0x346>
 8002076:	fb07 5c06 	mla	ip, r7, r6, r5
 800207a:	6920      	ldr	r0, [r4, #16]
 800207c:	f8dc 1048 	ldr.w	r1, [ip, #72]	; 0x48
 8002080:	f3c0 0012 	ubfx	r0, r0, #0, #19
 8002084:	1a09      	subs	r1, r1, r0
 8002086:	f8cc 1050 	str.w	r1, [ip, #80]	; 0x50
 800208a:	fb07 5106 	mla	r1, r7, r6, r5
 800208e:	2301      	movs	r3, #1
 8002090:	2000      	movs	r0, #0
 8002092:	f881 3061 	strb.w	r3, [r1, #97]	; 0x61
 8002096:	65c8      	str	r0, [r1, #92]	; 0x5c
 8002098:	60a3      	str	r3, [r4, #8]
 800209a:	f891 203f 	ldrb.w	r2, [r1, #63]	; 0x3f
 800209e:	f012 0ffd 	tst.w	r2, #253	; 0xfd
 80020a2:	d11e      	bne.n	80020e2 <HAL_HCD_IRQHandler+0x39e>
 80020a4:	68e3      	ldr	r3, [r4, #12]
 80020a6:	6828      	ldr	r0, [r5, #0]
 80020a8:	f043 0302 	orr.w	r3, r3, #2
 80020ac:	60e3      	str	r3, [r4, #12]
 80020ae:	4631      	mov	r1, r6
 80020b0:	f000 fea1 	bl	8002df6 <USB_HC_Halt>
 80020b4:	2310      	movs	r3, #16
 80020b6:	60a3      	str	r3, [r4, #8]
 80020b8:	692b      	ldr	r3, [r5, #16]
 80020ba:	2b01      	cmp	r3, #1
 80020bc:	fb07 5606 	mla	r6, r7, r6, r5
 80020c0:	d106      	bne.n	80020d0 <HAL_HCD_IRQHandler+0x38c>
 80020c2:	f8b6 2040 	ldrh.w	r2, [r6, #64]	; 0x40
 80020c6:	6cb3      	ldr	r3, [r6, #72]	; 0x48
 80020c8:	fbb3 f3f2 	udiv	r3, r3, r2
 80020cc:	07d9      	lsls	r1, r3, #31
 80020ce:	d505      	bpl.n	80020dc <HAL_HCD_IRQHandler+0x398>
 80020d0:	f896 3054 	ldrb.w	r3, [r6, #84]	; 0x54
 80020d4:	f083 0301 	eor.w	r3, r3, #1
 80020d8:	f886 3054 	strb.w	r3, [r6, #84]	; 0x54
 80020dc:	f10a 0a01 	add.w	sl, sl, #1
 80020e0:	e72b      	b.n	8001f3a <HAL_HCD_IRQHandler+0x1f6>
 80020e2:	2a03      	cmp	r2, #3
 80020e4:	d10d      	bne.n	8002102 <HAL_HCD_IRQHandler+0x3be>
 80020e6:	f859 000b 	ldr.w	r0, [r9, fp]
 80020ea:	f040 5000 	orr.w	r0, r0, #536870912	; 0x20000000
 80020ee:	f849 000b 	str.w	r0, [r9, fp]
 80020f2:	461a      	mov	r2, r3
 80020f4:	f881 3060 	strb.w	r3, [r1, #96]	; 0x60
 80020f8:	4631      	mov	r1, r6
 80020fa:	4628      	mov	r0, r5
 80020fc:	f003 fd92 	bl	8005c24 <HAL_HCD_HC_NotifyURBChange_Callback>
 8002100:	e7da      	b.n	80020b8 <HAL_HCD_IRQHandler+0x374>
 8002102:	2a01      	cmp	r2, #1
 8002104:	d1d8      	bne.n	80020b8 <HAL_HCD_IRQHandler+0x374>
 8002106:	f891 3054 	ldrb.w	r3, [r1, #84]	; 0x54
 800210a:	f881 2060 	strb.w	r2, [r1, #96]	; 0x60
 800210e:	f083 0301 	eor.w	r3, r3, #1
 8002112:	f881 3054 	strb.w	r3, [r1, #84]	; 0x54
 8002116:	e7ef      	b.n	80020f8 <HAL_HCD_IRQHandler+0x3b4>
 8002118:	68a1      	ldr	r1, [r4, #8]
 800211a:	f011 0102 	ands.w	r1, r1, #2
 800211e:	d03b      	beq.n	8002198 <HAL_HCD_IRQHandler+0x454>
 8002120:	68e1      	ldr	r1, [r4, #12]
 8002122:	fb07 5006 	mla	r0, r7, r6, r5
 8002126:	f021 0102 	bic.w	r1, r1, #2
 800212a:	60e1      	str	r1, [r4, #12]
 800212c:	f890 1061 	ldrb.w	r1, [r0, #97]	; 0x61
 8002130:	2901      	cmp	r1, #1
 8002132:	d10c      	bne.n	800214e <HAL_HCD_IRQHandler+0x40a>
 8002134:	f880 1060 	strb.w	r1, [r0, #96]	; 0x60
 8002138:	fb07 5306 	mla	r3, r7, r6, r5
 800213c:	f8c4 8008 	str.w	r8, [r4, #8]
 8002140:	f893 2060 	ldrb.w	r2, [r3, #96]	; 0x60
 8002144:	4631      	mov	r1, r6
 8002146:	4628      	mov	r0, r5
 8002148:	f003 fd6c 	bl	8005c24 <HAL_HCD_HC_NotifyURBChange_Callback>
 800214c:	e7c6      	b.n	80020dc <HAL_HCD_IRQHandler+0x398>
 800214e:	2905      	cmp	r1, #5
 8002150:	d0f0      	beq.n	8002134 <HAL_HCD_IRQHandler+0x3f0>
 8002152:	2906      	cmp	r1, #6
 8002154:	d001      	beq.n	800215a <HAL_HCD_IRQHandler+0x416>
 8002156:	2908      	cmp	r1, #8
 8002158:	d108      	bne.n	800216c <HAL_HCD_IRQHandler+0x428>
 800215a:	fb07 5006 	mla	r0, r7, r6, r5
 800215e:	6dc1      	ldr	r1, [r0, #92]	; 0x5c
 8002160:	3101      	adds	r1, #1
 8002162:	2902      	cmp	r1, #2
 8002164:	65c1      	str	r1, [r0, #92]	; 0x5c
 8002166:	d903      	bls.n	8002170 <HAL_HCD_IRQHandler+0x42c>
 8002168:	2300      	movs	r3, #0
 800216a:	e010      	b.n	800218e <HAL_HCD_IRQHandler+0x44a>
 800216c:	2903      	cmp	r1, #3
 800216e:	d10a      	bne.n	8002186 <HAL_HCD_IRQHandler+0x442>
 8002170:	f880 8060 	strb.w	r8, [r0, #96]	; 0x60
 8002174:	f859 100b 	ldr.w	r1, [r9, fp]
 8002178:	f021 4180 	bic.w	r1, r1, #1073741824	; 0x40000000
 800217c:	f041 4100 	orr.w	r1, r1, #2147483648	; 0x80000000
 8002180:	f849 100b 	str.w	r1, [r9, fp]
 8002184:	e7d8      	b.n	8002138 <HAL_HCD_IRQHandler+0x3f4>
 8002186:	2907      	cmp	r1, #7
 8002188:	d1d6      	bne.n	8002138 <HAL_HCD_IRQHandler+0x3f4>
 800218a:	6dc3      	ldr	r3, [r0, #92]	; 0x5c
 800218c:	3301      	adds	r3, #1
 800218e:	65c3      	str	r3, [r0, #92]	; 0x5c
 8002190:	2304      	movs	r3, #4
 8002192:	f880 3060 	strb.w	r3, [r0, #96]	; 0x60
 8002196:	e7cf      	b.n	8002138 <HAL_HCD_IRQHandler+0x3f4>
 8002198:	68a3      	ldr	r3, [r4, #8]
 800219a:	06da      	lsls	r2, r3, #27
 800219c:	d59e      	bpl.n	80020dc <HAL_HCD_IRQHandler+0x398>
 800219e:	fb07 5206 	mla	r2, r7, r6, r5
 80021a2:	6828      	ldr	r0, [r5, #0]
 80021a4:	f892 303f 	ldrb.w	r3, [r2, #63]	; 0x3f
 80021a8:	2b03      	cmp	r3, #3
 80021aa:	d10a      	bne.n	80021c2 <HAL_HCD_IRQHandler+0x47e>
 80021ac:	65d1      	str	r1, [r2, #92]	; 0x5c
 80021ae:	68e3      	ldr	r3, [r4, #12]
 80021b0:	f043 0302 	orr.w	r3, r3, #2
 80021b4:	60e3      	str	r3, [r4, #12]
 80021b6:	4631      	mov	r1, r6
 80021b8:	f000 fe1d 	bl	8002df6 <USB_HC_Halt>
 80021bc:	2310      	movs	r3, #16
 80021be:	60a3      	str	r3, [r4, #8]
 80021c0:	e78c      	b.n	80020dc <HAL_HCD_IRQHandler+0x398>
 80021c2:	f013 03fd 	ands.w	r3, r3, #253	; 0xfd
 80021c6:	d1f9      	bne.n	80021bc <HAL_HCD_IRQHandler+0x478>
 80021c8:	65d3      	str	r3, [r2, #92]	; 0x5c
 80021ca:	692b      	ldr	r3, [r5, #16]
 80021cc:	2b00      	cmp	r3, #0
 80021ce:	d1f5      	bne.n	80021bc <HAL_HCD_IRQHandler+0x478>
 80021d0:	2303      	movs	r3, #3
 80021d2:	f882 3061 	strb.w	r3, [r2, #97]	; 0x61
 80021d6:	e7ea      	b.n	80021ae <HAL_HCD_IRQHandler+0x46a>
 80021d8:	f011 0104 	ands.w	r1, r1, #4
 80021dc:	d006      	beq.n	80021ec <HAL_HCD_IRQHandler+0x4a8>
 80021de:	2304      	movs	r3, #4
 80021e0:	60a3      	str	r3, [r4, #8]
 80021e2:	68e3      	ldr	r3, [r4, #12]
 80021e4:	f043 0302 	orr.w	r3, r3, #2
 80021e8:	60e3      	str	r3, [r4, #12]
 80021ea:	e777      	b.n	80020dc <HAL_HCD_IRQHandler+0x398>
 80021ec:	68a3      	ldr	r3, [r4, #8]
 80021ee:	069b      	lsls	r3, r3, #26
 80021f0:	d514      	bpl.n	800221c <HAL_HCD_IRQHandler+0x4d8>
 80021f2:	2320      	movs	r3, #32
 80021f4:	60a3      	str	r3, [r4, #8]
 80021f6:	fb07 5306 	mla	r3, r7, r6, r5
 80021fa:	f893 203d 	ldrb.w	r2, [r3, #61]	; 0x3d
 80021fe:	2a01      	cmp	r2, #1
 8002200:	f47f af6c 	bne.w	80020dc <HAL_HCD_IRQHandler+0x398>
 8002204:	f883 103d 	strb.w	r1, [r3, #61]	; 0x3d
 8002208:	f883 8060 	strb.w	r8, [r3, #96]	; 0x60
 800220c:	68e3      	ldr	r3, [r4, #12]
 800220e:	f043 0302 	orr.w	r3, r3, #2
 8002212:	60e3      	str	r3, [r4, #12]
 8002214:	4631      	mov	r1, r6
 8002216:	f000 fdee 	bl	8002df6 <USB_HC_Halt>
 800221a:	e75f      	b.n	80020dc <HAL_HCD_IRQHandler+0x398>
 800221c:	68a2      	ldr	r2, [r4, #8]
 800221e:	f412 7200 	ands.w	r2, r2, #512	; 0x200
 8002222:	d005      	beq.n	8002230 <HAL_HCD_IRQHandler+0x4ec>
 8002224:	68e3      	ldr	r3, [r4, #12]
 8002226:	f043 0302 	orr.w	r3, r3, #2
 800222a:	60e3      	str	r3, [r4, #12]
 800222c:	4631      	mov	r1, r6
 800222e:	e6c8      	b.n	8001fc2 <HAL_HCD_IRQHandler+0x27e>
 8002230:	68a1      	ldr	r1, [r4, #8]
 8002232:	f011 0101 	ands.w	r1, r1, #1
 8002236:	d018      	beq.n	800226a <HAL_HCD_IRQHandler+0x526>
 8002238:	fb07 5306 	mla	r3, r7, r6, r5
 800223c:	4631      	mov	r1, r6
 800223e:	65da      	str	r2, [r3, #92]	; 0x5c
 8002240:	68a2      	ldr	r2, [r4, #8]
 8002242:	0652      	lsls	r2, r2, #25
 8002244:	bf41      	itttt	mi
 8002246:	2201      	movmi	r2, #1
 8002248:	f883 203d 	strbmi.w	r2, [r3, #61]	; 0x3d
 800224c:	2340      	movmi	r3, #64	; 0x40
 800224e:	60a3      	strmi	r3, [r4, #8]
 8002250:	68e3      	ldr	r3, [r4, #12]
 8002252:	f043 0302 	orr.w	r3, r3, #2
 8002256:	60e3      	str	r3, [r4, #12]
 8002258:	f000 fdcd 	bl	8002df6 <USB_HC_Halt>
 800225c:	2301      	movs	r3, #1
 800225e:	60a3      	str	r3, [r4, #8]
 8002260:	fb07 5606 	mla	r6, r7, r6, r5
 8002264:	f886 3061 	strb.w	r3, [r6, #97]	; 0x61
 8002268:	e738      	b.n	80020dc <HAL_HCD_IRQHandler+0x398>
 800226a:	68a3      	ldr	r3, [r4, #8]
 800226c:	065b      	lsls	r3, r3, #25
 800226e:	d511      	bpl.n	8002294 <HAL_HCD_IRQHandler+0x550>
 8002270:	fb07 5306 	mla	r3, r7, r6, r5
 8002274:	2204      	movs	r2, #4
 8002276:	f883 2061 	strb.w	r2, [r3, #97]	; 0x61
 800227a:	2201      	movs	r2, #1
 800227c:	f883 203d 	strb.w	r2, [r3, #61]	; 0x3d
 8002280:	65d9      	str	r1, [r3, #92]	; 0x5c
 8002282:	68e3      	ldr	r3, [r4, #12]
 8002284:	f043 0302 	orr.w	r3, r3, #2
 8002288:	60e3      	str	r3, [r4, #12]
 800228a:	4631      	mov	r1, r6
 800228c:	f000 fdb3 	bl	8002df6 <USB_HC_Halt>
 8002290:	2340      	movs	r3, #64	; 0x40
 8002292:	e794      	b.n	80021be <HAL_HCD_IRQHandler+0x47a>
 8002294:	68a1      	ldr	r1, [r4, #8]
 8002296:	0709      	lsls	r1, r1, #28
 8002298:	d50c      	bpl.n	80022b4 <HAL_HCD_IRQHandler+0x570>
 800229a:	2308      	movs	r3, #8
 800229c:	60a3      	str	r3, [r4, #8]
 800229e:	68e3      	ldr	r3, [r4, #12]
 80022a0:	f043 0302 	orr.w	r3, r3, #2
 80022a4:	60e3      	str	r3, [r4, #12]
 80022a6:	4631      	mov	r1, r6
 80022a8:	f000 fda5 	bl	8002df6 <USB_HC_Halt>
 80022ac:	fb07 5606 	mla	r6, r7, r6, r5
 80022b0:	2305      	movs	r3, #5
 80022b2:	e7d7      	b.n	8002264 <HAL_HCD_IRQHandler+0x520>
 80022b4:	68a1      	ldr	r1, [r4, #8]
 80022b6:	06ca      	lsls	r2, r1, #27
 80022b8:	d514      	bpl.n	80022e4 <HAL_HCD_IRQHandler+0x5a0>
 80022ba:	fb07 5306 	mla	r3, r7, r6, r5
 80022be:	2200      	movs	r2, #0
 80022c0:	65da      	str	r2, [r3, #92]	; 0x5c
 80022c2:	2203      	movs	r2, #3
 80022c4:	f883 2061 	strb.w	r2, [r3, #97]	; 0x61
 80022c8:	f893 203d 	ldrb.w	r2, [r3, #61]	; 0x3d
 80022cc:	2a00      	cmp	r2, #0
 80022ce:	f47f af6e 	bne.w	80021ae <HAL_HCD_IRQHandler+0x46a>
 80022d2:	f893 203c 	ldrb.w	r2, [r3, #60]	; 0x3c
 80022d6:	2a00      	cmp	r2, #0
 80022d8:	f47f af69 	bne.w	80021ae <HAL_HCD_IRQHandler+0x46a>
 80022dc:	2201      	movs	r2, #1
 80022de:	f883 203d 	strb.w	r2, [r3, #61]	; 0x3d
 80022e2:	e764      	b.n	80021ae <HAL_HCD_IRQHandler+0x46a>
 80022e4:	68a1      	ldr	r1, [r4, #8]
 80022e6:	060b      	lsls	r3, r1, #24
 80022e8:	d523      	bpl.n	8002332 <HAL_HCD_IRQHandler+0x5ee>
 80022ea:	692b      	ldr	r3, [r5, #16]
 80022ec:	b96b      	cbnz	r3, 800230a <HAL_HCD_IRQHandler+0x5c6>
 80022ee:	fb07 5306 	mla	r3, r7, r6, r5
 80022f2:	2206      	movs	r2, #6
 80022f4:	f883 2061 	strb.w	r2, [r3, #97]	; 0x61
 80022f8:	68e3      	ldr	r3, [r4, #12]
 80022fa:	f043 0302 	orr.w	r3, r3, #2
 80022fe:	60e3      	str	r3, [r4, #12]
 8002300:	4631      	mov	r1, r6
 8002302:	f000 fd78 	bl	8002df6 <USB_HC_Halt>
 8002306:	2380      	movs	r3, #128	; 0x80
 8002308:	e759      	b.n	80021be <HAL_HCD_IRQHandler+0x47a>
 800230a:	fb07 5306 	mla	r3, r7, r6, r5
 800230e:	6dda      	ldr	r2, [r3, #92]	; 0x5c
 8002310:	3201      	adds	r2, #1
 8002312:	2a02      	cmp	r2, #2
 8002314:	65da      	str	r2, [r3, #92]	; 0x5c
 8002316:	d909      	bls.n	800232c <HAL_HCD_IRQHandler+0x5e8>
 8002318:	2200      	movs	r2, #0
 800231a:	65da      	str	r2, [r3, #92]	; 0x5c
 800231c:	2204      	movs	r2, #4
 800231e:	f883 2060 	strb.w	r2, [r3, #96]	; 0x60
 8002322:	4631      	mov	r1, r6
 8002324:	4628      	mov	r0, r5
 8002326:	f003 fc7d 	bl	8005c24 <HAL_HCD_HC_NotifyURBChange_Callback>
 800232a:	e7ec      	b.n	8002306 <HAL_HCD_IRQHandler+0x5c2>
 800232c:	f883 8060 	strb.w	r8, [r3, #96]	; 0x60
 8002330:	e7e9      	b.n	8002306 <HAL_HCD_IRQHandler+0x5c2>
 8002332:	68a1      	ldr	r1, [r4, #8]
 8002334:	0549      	lsls	r1, r1, #21
 8002336:	d50f      	bpl.n	8002358 <HAL_HCD_IRQHandler+0x614>
 8002338:	68e3      	ldr	r3, [r4, #12]
 800233a:	f043 0302 	orr.w	r3, r3, #2
 800233e:	60e3      	str	r3, [r4, #12]
 8002340:	4631      	mov	r1, r6
 8002342:	f000 fd58 	bl	8002df6 <USB_HC_Halt>
 8002346:	2310      	movs	r3, #16
 8002348:	60a3      	str	r3, [r4, #8]
 800234a:	f44f 6380 	mov.w	r3, #1024	; 0x400
 800234e:	60a3      	str	r3, [r4, #8]
 8002350:	fb07 5606 	mla	r6, r7, r6, r5
 8002354:	2308      	movs	r3, #8
 8002356:	e785      	b.n	8002264 <HAL_HCD_IRQHandler+0x520>
 8002358:	68a1      	ldr	r1, [r4, #8]
 800235a:	078a      	lsls	r2, r1, #30
 800235c:	f57f aebe 	bpl.w	80020dc <HAL_HCD_IRQHandler+0x398>
 8002360:	68e1      	ldr	r1, [r4, #12]
 8002362:	f021 0102 	bic.w	r1, r1, #2
 8002366:	60e1      	str	r1, [r4, #12]
 8002368:	fb07 5106 	mla	r1, r7, r6, r5
 800236c:	f891 0061 	ldrb.w	r0, [r1, #97]	; 0x61
 8002370:	2801      	cmp	r0, #1
 8002372:	d121      	bne.n	80023b8 <HAL_HCD_IRQHandler+0x674>
 8002374:	f891 303f 	ldrb.w	r3, [r1, #63]	; 0x3f
 8002378:	f881 0060 	strb.w	r0, [r1, #96]	; 0x60
 800237c:	3b02      	subs	r3, #2
 800237e:	2b01      	cmp	r3, #1
 8002380:	f63f aeda 	bhi.w	8002138 <HAL_HCD_IRQHandler+0x3f4>
 8002384:	692b      	ldr	r3, [r5, #16]
 8002386:	b933      	cbnz	r3, 8002396 <HAL_HCD_IRQHandler+0x652>
 8002388:	f891 3055 	ldrb.w	r3, [r1, #85]	; 0x55
 800238c:	f083 0301 	eor.w	r3, r3, #1
 8002390:	f881 3055 	strb.w	r3, [r1, #85]	; 0x55
 8002394:	e6d0      	b.n	8002138 <HAL_HCD_IRQHandler+0x3f4>
 8002396:	2b01      	cmp	r3, #1
 8002398:	f47f aece 	bne.w	8002138 <HAL_HCD_IRQHandler+0x3f4>
 800239c:	6ccb      	ldr	r3, [r1, #76]	; 0x4c
 800239e:	2b00      	cmp	r3, #0
 80023a0:	f43f aeca 	beq.w	8002138 <HAL_HCD_IRQHandler+0x3f4>
 80023a4:	f8b1 2040 	ldrh.w	r2, [r1, #64]	; 0x40
 80023a8:	3b01      	subs	r3, #1
 80023aa:	4413      	add	r3, r2
 80023ac:	fbb3 f3f2 	udiv	r3, r3, r2
 80023b0:	07db      	lsls	r3, r3, #31
 80023b2:	f57f aec1 	bpl.w	8002138 <HAL_HCD_IRQHandler+0x3f4>
 80023b6:	e7e7      	b.n	8002388 <HAL_HCD_IRQHandler+0x644>
 80023b8:	2803      	cmp	r0, #3
 80023ba:	d102      	bne.n	80023c2 <HAL_HCD_IRQHandler+0x67e>
 80023bc:	f881 8060 	strb.w	r8, [r1, #96]	; 0x60
 80023c0:	e6ba      	b.n	8002138 <HAL_HCD_IRQHandler+0x3f4>
 80023c2:	2804      	cmp	r0, #4
 80023c4:	d0fa      	beq.n	80023bc <HAL_HCD_IRQHandler+0x678>
 80023c6:	2805      	cmp	r0, #5
 80023c8:	d102      	bne.n	80023d0 <HAL_HCD_IRQHandler+0x68c>
 80023ca:	f881 0060 	strb.w	r0, [r1, #96]	; 0x60
 80023ce:	e6b3      	b.n	8002138 <HAL_HCD_IRQHandler+0x3f4>
 80023d0:	2806      	cmp	r0, #6
 80023d2:	f43f aec2 	beq.w	800215a <HAL_HCD_IRQHandler+0x416>
 80023d6:	2808      	cmp	r0, #8
 80023d8:	f47f aeae 	bne.w	8002138 <HAL_HCD_IRQHandler+0x3f4>
 80023dc:	e6bd      	b.n	800215a <HAL_HCD_IRQHandler+0x416>

080023de <HAL_HCD_Start>:
 80023de:	b510      	push	{r4, lr}
 80023e0:	f890 32f8 	ldrb.w	r3, [r0, #760]	; 0x2f8
 80023e4:	2b01      	cmp	r3, #1
 80023e6:	4604      	mov	r4, r0
 80023e8:	d00c      	beq.n	8002404 <HAL_HCD_Start+0x26>
 80023ea:	2101      	movs	r1, #1
 80023ec:	f880 12f8 	strb.w	r1, [r0, #760]	; 0x2f8
 80023f0:	6800      	ldr	r0, [r0, #0]
 80023f2:	f000 fc51 	bl	8002c98 <USB_DriveVbus>
 80023f6:	6820      	ldr	r0, [r4, #0]
 80023f8:	f000 fb06 	bl	8002a08 <USB_EnableGlobalInt>
 80023fc:	2000      	movs	r0, #0
 80023fe:	f884 02f8 	strb.w	r0, [r4, #760]	; 0x2f8
 8002402:	bd10      	pop	{r4, pc}
 8002404:	2002      	movs	r0, #2
 8002406:	e7fc      	b.n	8002402 <HAL_HCD_Start+0x24>

08002408 <HAL_HCD_Stop>:
 8002408:	b510      	push	{r4, lr}
 800240a:	f890 32f8 	ldrb.w	r3, [r0, #760]	; 0x2f8
 800240e:	2b01      	cmp	r3, #1
 8002410:	4604      	mov	r4, r0
 8002412:	d009      	beq.n	8002428 <HAL_HCD_Stop+0x20>
 8002414:	2301      	movs	r3, #1
 8002416:	f880 32f8 	strb.w	r3, [r0, #760]	; 0x2f8
 800241a:	6800      	ldr	r0, [r0, #0]
 800241c:	f000 fe03 	bl	8003026 <USB_StopHost>
 8002420:	2000      	movs	r0, #0
 8002422:	f884 02f8 	strb.w	r0, [r4, #760]	; 0x2f8
 8002426:	bd10      	pop	{r4, pc}
 8002428:	2002      	movs	r0, #2
 800242a:	e7fc      	b.n	8002426 <HAL_HCD_Stop+0x1e>

0800242c <HAL_HCD_ResetPort>:
 800242c:	6800      	ldr	r0, [r0, #0]
 800242e:	f000 bc15 	b.w	8002c5c <USB_ResetPort>

08002432 <HAL_HCD_HC_GetURBState>:
 8002432:	232c      	movs	r3, #44	; 0x2c
 8002434:	fb03 0001 	mla	r0, r3, r1, r0
 8002438:	f890 0060 	ldrb.w	r0, [r0, #96]	; 0x60
 800243c:	4770      	bx	lr

0800243e <HAL_HCD_HC_GetXferCount>:
 800243e:	232c      	movs	r3, #44	; 0x2c
 8002440:	fb03 0001 	mla	r0, r3, r1, r0
 8002444:	6d00      	ldr	r0, [r0, #80]	; 0x50
 8002446:	4770      	bx	lr

08002448 <HAL_HCD_GetCurrentFrame>:
 8002448:	6800      	ldr	r0, [r0, #0]
 800244a:	f000 bc50 	b.w	8002cee <USB_GetCurrentFrame>

0800244e <HAL_HCD_GetCurrentSpeed>:
 800244e:	6800      	ldr	r0, [r0, #0]
 8002450:	f000 bc42 	b.w	8002cd8 <USB_GetHostSpeed>

08002454 <HAL_RCC_OscConfig>:
 8002454:	e92d 41f3 	stmdb	sp!, {r0, r1, r4, r5, r6, r7, r8, lr}
 8002458:	4604      	mov	r4, r0
 800245a:	b340      	cbz	r0, 80024ae <HAL_RCC_OscConfig+0x5a>
 800245c:	6803      	ldr	r3, [r0, #0]
 800245e:	07dd      	lsls	r5, r3, #31
 8002460:	d410      	bmi.n	8002484 <HAL_RCC_OscConfig+0x30>
 8002462:	6823      	ldr	r3, [r4, #0]
 8002464:	0798      	lsls	r0, r3, #30
 8002466:	d45e      	bmi.n	8002526 <HAL_RCC_OscConfig+0xd2>
 8002468:	6823      	ldr	r3, [r4, #0]
 800246a:	071a      	lsls	r2, r3, #28
 800246c:	f100 80a0 	bmi.w	80025b0 <HAL_RCC_OscConfig+0x15c>
 8002470:	6823      	ldr	r3, [r4, #0]
 8002472:	075b      	lsls	r3, r3, #29
 8002474:	f100 80be 	bmi.w	80025f4 <HAL_RCC_OscConfig+0x1a0>
 8002478:	69a0      	ldr	r0, [r4, #24]
 800247a:	2800      	cmp	r0, #0
 800247c:	f040 811f 	bne.w	80026be <HAL_RCC_OscConfig+0x26a>
 8002480:	2000      	movs	r0, #0
 8002482:	e02b      	b.n	80024dc <HAL_RCC_OscConfig+0x88>
 8002484:	4ba6      	ldr	r3, [pc, #664]	; (8002720 <HAL_RCC_OscConfig+0x2cc>)
 8002486:	689a      	ldr	r2, [r3, #8]
 8002488:	f002 020c 	and.w	r2, r2, #12
 800248c:	2a04      	cmp	r2, #4
 800248e:	d007      	beq.n	80024a0 <HAL_RCC_OscConfig+0x4c>
 8002490:	689a      	ldr	r2, [r3, #8]
 8002492:	f002 020c 	and.w	r2, r2, #12
 8002496:	2a08      	cmp	r2, #8
 8002498:	d10b      	bne.n	80024b2 <HAL_RCC_OscConfig+0x5e>
 800249a:	685a      	ldr	r2, [r3, #4]
 800249c:	0251      	lsls	r1, r2, #9
 800249e:	d508      	bpl.n	80024b2 <HAL_RCC_OscConfig+0x5e>
 80024a0:	4b9f      	ldr	r3, [pc, #636]	; (8002720 <HAL_RCC_OscConfig+0x2cc>)
 80024a2:	681b      	ldr	r3, [r3, #0]
 80024a4:	039a      	lsls	r2, r3, #14
 80024a6:	d5dc      	bpl.n	8002462 <HAL_RCC_OscConfig+0xe>
 80024a8:	6863      	ldr	r3, [r4, #4]
 80024aa:	2b00      	cmp	r3, #0
 80024ac:	d1d9      	bne.n	8002462 <HAL_RCC_OscConfig+0xe>
 80024ae:	2001      	movs	r0, #1
 80024b0:	e014      	b.n	80024dc <HAL_RCC_OscConfig+0x88>
 80024b2:	6862      	ldr	r2, [r4, #4]
 80024b4:	f5b2 3f80 	cmp.w	r2, #65536	; 0x10000
 80024b8:	d113      	bne.n	80024e2 <HAL_RCC_OscConfig+0x8e>
 80024ba:	681a      	ldr	r2, [r3, #0]
 80024bc:	f442 3280 	orr.w	r2, r2, #65536	; 0x10000
 80024c0:	601a      	str	r2, [r3, #0]
 80024c2:	f7ff f9dd 	bl	8001880 <HAL_GetTick>
 80024c6:	4e96      	ldr	r6, [pc, #600]	; (8002720 <HAL_RCC_OscConfig+0x2cc>)
 80024c8:	4605      	mov	r5, r0
 80024ca:	6833      	ldr	r3, [r6, #0]
 80024cc:	039b      	lsls	r3, r3, #14
 80024ce:	d4c8      	bmi.n	8002462 <HAL_RCC_OscConfig+0xe>
 80024d0:	f7ff f9d6 	bl	8001880 <HAL_GetTick>
 80024d4:	1b40      	subs	r0, r0, r5
 80024d6:	2864      	cmp	r0, #100	; 0x64
 80024d8:	d9f7      	bls.n	80024ca <HAL_RCC_OscConfig+0x76>
 80024da:	2003      	movs	r0, #3
 80024dc:	b002      	add	sp, #8
 80024de:	e8bd 81f0 	ldmia.w	sp!, {r4, r5, r6, r7, r8, pc}
 80024e2:	4d8f      	ldr	r5, [pc, #572]	; (8002720 <HAL_RCC_OscConfig+0x2cc>)
 80024e4:	f5b2 2fa0 	cmp.w	r2, #327680	; 0x50000
 80024e8:	682b      	ldr	r3, [r5, #0]
 80024ea:	d107      	bne.n	80024fc <HAL_RCC_OscConfig+0xa8>
 80024ec:	f443 2380 	orr.w	r3, r3, #262144	; 0x40000
 80024f0:	602b      	str	r3, [r5, #0]
 80024f2:	682b      	ldr	r3, [r5, #0]
 80024f4:	f443 3380 	orr.w	r3, r3, #65536	; 0x10000
 80024f8:	602b      	str	r3, [r5, #0]
 80024fa:	e7e2      	b.n	80024c2 <HAL_RCC_OscConfig+0x6e>
 80024fc:	f423 3380 	bic.w	r3, r3, #65536	; 0x10000
 8002500:	602b      	str	r3, [r5, #0]
 8002502:	682b      	ldr	r3, [r5, #0]
 8002504:	f423 2380 	bic.w	r3, r3, #262144	; 0x40000
 8002508:	602b      	str	r3, [r5, #0]
 800250a:	2a00      	cmp	r2, #0
 800250c:	d1d9      	bne.n	80024c2 <HAL_RCC_OscConfig+0x6e>
 800250e:	f7ff f9b7 	bl	8001880 <HAL_GetTick>
 8002512:	4606      	mov	r6, r0
 8002514:	682b      	ldr	r3, [r5, #0]
 8002516:	039f      	lsls	r7, r3, #14
 8002518:	d5a3      	bpl.n	8002462 <HAL_RCC_OscConfig+0xe>
 800251a:	f7ff f9b1 	bl	8001880 <HAL_GetTick>
 800251e:	1b80      	subs	r0, r0, r6
 8002520:	2864      	cmp	r0, #100	; 0x64
 8002522:	d9f7      	bls.n	8002514 <HAL_RCC_OscConfig+0xc0>
 8002524:	e7d9      	b.n	80024da <HAL_RCC_OscConfig+0x86>
 8002526:	4b7e      	ldr	r3, [pc, #504]	; (8002720 <HAL_RCC_OscConfig+0x2cc>)
 8002528:	689a      	ldr	r2, [r3, #8]
 800252a:	f012 0f0c 	tst.w	r2, #12
 800252e:	d007      	beq.n	8002540 <HAL_RCC_OscConfig+0xec>
 8002530:	689a      	ldr	r2, [r3, #8]
 8002532:	f002 020c 	and.w	r2, r2, #12
 8002536:	2a08      	cmp	r2, #8
 8002538:	d111      	bne.n	800255e <HAL_RCC_OscConfig+0x10a>
 800253a:	685b      	ldr	r3, [r3, #4]
 800253c:	025e      	lsls	r6, r3, #9
 800253e:	d40e      	bmi.n	800255e <HAL_RCC_OscConfig+0x10a>
 8002540:	4b77      	ldr	r3, [pc, #476]	; (8002720 <HAL_RCC_OscConfig+0x2cc>)
 8002542:	681a      	ldr	r2, [r3, #0]
 8002544:	0795      	lsls	r5, r2, #30
 8002546:	d502      	bpl.n	800254e <HAL_RCC_OscConfig+0xfa>
 8002548:	68e2      	ldr	r2, [r4, #12]
 800254a:	2a01      	cmp	r2, #1
 800254c:	d1af      	bne.n	80024ae <HAL_RCC_OscConfig+0x5a>
 800254e:	681a      	ldr	r2, [r3, #0]
 8002550:	6921      	ldr	r1, [r4, #16]
 8002552:	f022 02f8 	bic.w	r2, r2, #248	; 0xf8
 8002556:	ea42 02c1 	orr.w	r2, r2, r1, lsl #3
 800255a:	601a      	str	r2, [r3, #0]
 800255c:	e784      	b.n	8002468 <HAL_RCC_OscConfig+0x14>
 800255e:	68e2      	ldr	r2, [r4, #12]
 8002560:	4b70      	ldr	r3, [pc, #448]	; (8002724 <HAL_RCC_OscConfig+0x2d0>)
 8002562:	b1b2      	cbz	r2, 8002592 <HAL_RCC_OscConfig+0x13e>
 8002564:	2201      	movs	r2, #1
 8002566:	601a      	str	r2, [r3, #0]
 8002568:	f7ff f98a 	bl	8001880 <HAL_GetTick>
 800256c:	4d6c      	ldr	r5, [pc, #432]	; (8002720 <HAL_RCC_OscConfig+0x2cc>)
 800256e:	4606      	mov	r6, r0
 8002570:	682b      	ldr	r3, [r5, #0]
 8002572:	0798      	lsls	r0, r3, #30
 8002574:	d507      	bpl.n	8002586 <HAL_RCC_OscConfig+0x132>
 8002576:	682b      	ldr	r3, [r5, #0]
 8002578:	6922      	ldr	r2, [r4, #16]
 800257a:	f023 03f8 	bic.w	r3, r3, #248	; 0xf8
 800257e:	ea43 03c2 	orr.w	r3, r3, r2, lsl #3
 8002582:	602b      	str	r3, [r5, #0]
 8002584:	e770      	b.n	8002468 <HAL_RCC_OscConfig+0x14>
 8002586:	f7ff f97b 	bl	8001880 <HAL_GetTick>
 800258a:	1b80      	subs	r0, r0, r6
 800258c:	2802      	cmp	r0, #2
 800258e:	d9ef      	bls.n	8002570 <HAL_RCC_OscConfig+0x11c>
 8002590:	e7a3      	b.n	80024da <HAL_RCC_OscConfig+0x86>
 8002592:	601a      	str	r2, [r3, #0]
 8002594:	f7ff f974 	bl	8001880 <HAL_GetTick>
 8002598:	4e61      	ldr	r6, [pc, #388]	; (8002720 <HAL_RCC_OscConfig+0x2cc>)
 800259a:	4605      	mov	r5, r0
 800259c:	6833      	ldr	r3, [r6, #0]
 800259e:	0799      	lsls	r1, r3, #30
 80025a0:	f57f af62 	bpl.w	8002468 <HAL_RCC_OscConfig+0x14>
 80025a4:	f7ff f96c 	bl	8001880 <HAL_GetTick>
 80025a8:	1b40      	subs	r0, r0, r5
 80025aa:	2802      	cmp	r0, #2
 80025ac:	d9f6      	bls.n	800259c <HAL_RCC_OscConfig+0x148>
 80025ae:	e794      	b.n	80024da <HAL_RCC_OscConfig+0x86>
 80025b0:	6962      	ldr	r2, [r4, #20]
 80025b2:	4b5d      	ldr	r3, [pc, #372]	; (8002728 <HAL_RCC_OscConfig+0x2d4>)
 80025b4:	b17a      	cbz	r2, 80025d6 <HAL_RCC_OscConfig+0x182>
 80025b6:	2201      	movs	r2, #1
 80025b8:	601a      	str	r2, [r3, #0]
 80025ba:	f7ff f961 	bl	8001880 <HAL_GetTick>
 80025be:	4e58      	ldr	r6, [pc, #352]	; (8002720 <HAL_RCC_OscConfig+0x2cc>)
 80025c0:	4605      	mov	r5, r0
 80025c2:	6f73      	ldr	r3, [r6, #116]	; 0x74
 80025c4:	079f      	lsls	r7, r3, #30
 80025c6:	f53f af53 	bmi.w	8002470 <HAL_RCC_OscConfig+0x1c>
 80025ca:	f7ff f959 	bl	8001880 <HAL_GetTick>
 80025ce:	1b40      	subs	r0, r0, r5
 80025d0:	2802      	cmp	r0, #2
 80025d2:	d9f6      	bls.n	80025c2 <HAL_RCC_OscConfig+0x16e>
 80025d4:	e781      	b.n	80024da <HAL_RCC_OscConfig+0x86>
 80025d6:	601a      	str	r2, [r3, #0]
 80025d8:	f7ff f952 	bl	8001880 <HAL_GetTick>
 80025dc:	4e50      	ldr	r6, [pc, #320]	; (8002720 <HAL_RCC_OscConfig+0x2cc>)
 80025de:	4605      	mov	r5, r0
 80025e0:	6f73      	ldr	r3, [r6, #116]	; 0x74
 80025e2:	0798      	lsls	r0, r3, #30
 80025e4:	f57f af44 	bpl.w	8002470 <HAL_RCC_OscConfig+0x1c>
 80025e8:	f7ff f94a 	bl	8001880 <HAL_GetTick>
 80025ec:	1b40      	subs	r0, r0, r5
 80025ee:	2802      	cmp	r0, #2
 80025f0:	d9f6      	bls.n	80025e0 <HAL_RCC_OscConfig+0x18c>
 80025f2:	e772      	b.n	80024da <HAL_RCC_OscConfig+0x86>
 80025f4:	4b4a      	ldr	r3, [pc, #296]	; (8002720 <HAL_RCC_OscConfig+0x2cc>)
 80025f6:	6c1a      	ldr	r2, [r3, #64]	; 0x40
 80025f8:	f012 5280 	ands.w	r2, r2, #268435456	; 0x10000000
 80025fc:	d128      	bne.n	8002650 <HAL_RCC_OscConfig+0x1fc>
 80025fe:	9201      	str	r2, [sp, #4]
 8002600:	6c1a      	ldr	r2, [r3, #64]	; 0x40
 8002602:	f042 5280 	orr.w	r2, r2, #268435456	; 0x10000000
 8002606:	641a      	str	r2, [r3, #64]	; 0x40
 8002608:	6c1b      	ldr	r3, [r3, #64]	; 0x40
 800260a:	f003 5380 	and.w	r3, r3, #268435456	; 0x10000000
 800260e:	9301      	str	r3, [sp, #4]
 8002610:	9b01      	ldr	r3, [sp, #4]
 8002612:	2701      	movs	r7, #1
 8002614:	4d45      	ldr	r5, [pc, #276]	; (800272c <HAL_RCC_OscConfig+0x2d8>)
 8002616:	682b      	ldr	r3, [r5, #0]
 8002618:	05d9      	lsls	r1, r3, #23
 800261a:	d51b      	bpl.n	8002654 <HAL_RCC_OscConfig+0x200>
 800261c:	68a3      	ldr	r3, [r4, #8]
 800261e:	4d40      	ldr	r5, [pc, #256]	; (8002720 <HAL_RCC_OscConfig+0x2cc>)
 8002620:	2b01      	cmp	r3, #1
 8002622:	d127      	bne.n	8002674 <HAL_RCC_OscConfig+0x220>
 8002624:	6f2b      	ldr	r3, [r5, #112]	; 0x70
 8002626:	f043 0301 	orr.w	r3, r3, #1
 800262a:	672b      	str	r3, [r5, #112]	; 0x70
 800262c:	f7ff f928 	bl	8001880 <HAL_GetTick>
 8002630:	4e3b      	ldr	r6, [pc, #236]	; (8002720 <HAL_RCC_OscConfig+0x2cc>)
 8002632:	4605      	mov	r5, r0
 8002634:	f241 3888 	movw	r8, #5000	; 0x1388
 8002638:	6f33      	ldr	r3, [r6, #112]	; 0x70
 800263a:	079b      	lsls	r3, r3, #30
 800263c:	d539      	bpl.n	80026b2 <HAL_RCC_OscConfig+0x25e>
 800263e:	2f00      	cmp	r7, #0
 8002640:	f43f af1a 	beq.w	8002478 <HAL_RCC_OscConfig+0x24>
 8002644:	4a36      	ldr	r2, [pc, #216]	; (8002720 <HAL_RCC_OscConfig+0x2cc>)
 8002646:	6c13      	ldr	r3, [r2, #64]	; 0x40
 8002648:	f023 5380 	bic.w	r3, r3, #268435456	; 0x10000000
 800264c:	6413      	str	r3, [r2, #64]	; 0x40
 800264e:	e713      	b.n	8002478 <HAL_RCC_OscConfig+0x24>
 8002650:	2700      	movs	r7, #0
 8002652:	e7df      	b.n	8002614 <HAL_RCC_OscConfig+0x1c0>
 8002654:	682b      	ldr	r3, [r5, #0]
 8002656:	f443 7380 	orr.w	r3, r3, #256	; 0x100
 800265a:	602b      	str	r3, [r5, #0]
 800265c:	f7ff f910 	bl	8001880 <HAL_GetTick>
 8002660:	4606      	mov	r6, r0
 8002662:	682b      	ldr	r3, [r5, #0]
 8002664:	05da      	lsls	r2, r3, #23
 8002666:	d4d9      	bmi.n	800261c <HAL_RCC_OscConfig+0x1c8>
 8002668:	f7ff f90a 	bl	8001880 <HAL_GetTick>
 800266c:	1b80      	subs	r0, r0, r6
 800266e:	2802      	cmp	r0, #2
 8002670:	d9f7      	bls.n	8002662 <HAL_RCC_OscConfig+0x20e>
 8002672:	e732      	b.n	80024da <HAL_RCC_OscConfig+0x86>
 8002674:	2b05      	cmp	r3, #5
 8002676:	d104      	bne.n	8002682 <HAL_RCC_OscConfig+0x22e>
 8002678:	6f2b      	ldr	r3, [r5, #112]	; 0x70
 800267a:	f043 0304 	orr.w	r3, r3, #4
 800267e:	672b      	str	r3, [r5, #112]	; 0x70
 8002680:	e7d0      	b.n	8002624 <HAL_RCC_OscConfig+0x1d0>
 8002682:	6f2a      	ldr	r2, [r5, #112]	; 0x70
 8002684:	f022 0201 	bic.w	r2, r2, #1
 8002688:	672a      	str	r2, [r5, #112]	; 0x70
 800268a:	6f2a      	ldr	r2, [r5, #112]	; 0x70
 800268c:	f022 0204 	bic.w	r2, r2, #4
 8002690:	672a      	str	r2, [r5, #112]	; 0x70
 8002692:	2b00      	cmp	r3, #0
 8002694:	d1ca      	bne.n	800262c <HAL_RCC_OscConfig+0x1d8>
 8002696:	f7ff f8f3 	bl	8001880 <HAL_GetTick>
 800269a:	f241 3888 	movw	r8, #5000	; 0x1388
 800269e:	4606      	mov	r6, r0
 80026a0:	6f2b      	ldr	r3, [r5, #112]	; 0x70
 80026a2:	0798      	lsls	r0, r3, #30
 80026a4:	d5cb      	bpl.n	800263e <HAL_RCC_OscConfig+0x1ea>
 80026a6:	f7ff f8eb 	bl	8001880 <HAL_GetTick>
 80026aa:	1b80      	subs	r0, r0, r6
 80026ac:	4540      	cmp	r0, r8
 80026ae:	d9f7      	bls.n	80026a0 <HAL_RCC_OscConfig+0x24c>
 80026b0:	e713      	b.n	80024da <HAL_RCC_OscConfig+0x86>
 80026b2:	f7ff f8e5 	bl	8001880 <HAL_GetTick>
 80026b6:	1b40      	subs	r0, r0, r5
 80026b8:	4540      	cmp	r0, r8
 80026ba:	d9bd      	bls.n	8002638 <HAL_RCC_OscConfig+0x1e4>
 80026bc:	e70d      	b.n	80024da <HAL_RCC_OscConfig+0x86>
 80026be:	4d18      	ldr	r5, [pc, #96]	; (8002720 <HAL_RCC_OscConfig+0x2cc>)
 80026c0:	68ab      	ldr	r3, [r5, #8]
 80026c2:	f003 030c 	and.w	r3, r3, #12
 80026c6:	2b08      	cmp	r3, #8
 80026c8:	d047      	beq.n	800275a <HAL_RCC_OscConfig+0x306>
 80026ca:	4e19      	ldr	r6, [pc, #100]	; (8002730 <HAL_RCC_OscConfig+0x2dc>)
 80026cc:	2300      	movs	r3, #0
 80026ce:	2802      	cmp	r0, #2
 80026d0:	6033      	str	r3, [r6, #0]
 80026d2:	d135      	bne.n	8002740 <HAL_RCC_OscConfig+0x2ec>
 80026d4:	f7ff f8d4 	bl	8001880 <HAL_GetTick>
 80026d8:	4607      	mov	r7, r0
 80026da:	682b      	ldr	r3, [r5, #0]
 80026dc:	0199      	lsls	r1, r3, #6
 80026de:	d429      	bmi.n	8002734 <HAL_RCC_OscConfig+0x2e0>
 80026e0:	e9d4 3207 	ldrd	r3, r2, [r4, #28]
 80026e4:	4313      	orrs	r3, r2
 80026e6:	6a62      	ldr	r2, [r4, #36]	; 0x24
 80026e8:	ea43 1382 	orr.w	r3, r3, r2, lsl #6
 80026ec:	6ae2      	ldr	r2, [r4, #44]	; 0x2c
 80026ee:	ea43 6302 	orr.w	r3, r3, r2, lsl #24
 80026f2:	6aa2      	ldr	r2, [r4, #40]	; 0x28
 80026f4:	0852      	lsrs	r2, r2, #1
 80026f6:	3a01      	subs	r2, #1
 80026f8:	ea43 4302 	orr.w	r3, r3, r2, lsl #16
 80026fc:	606b      	str	r3, [r5, #4]
 80026fe:	2301      	movs	r3, #1
 8002700:	6033      	str	r3, [r6, #0]
 8002702:	f7ff f8bd 	bl	8001880 <HAL_GetTick>
 8002706:	4d06      	ldr	r5, [pc, #24]	; (8002720 <HAL_RCC_OscConfig+0x2cc>)
 8002708:	4604      	mov	r4, r0
 800270a:	682b      	ldr	r3, [r5, #0]
 800270c:	019a      	lsls	r2, r3, #6
 800270e:	f53f aeb7 	bmi.w	8002480 <HAL_RCC_OscConfig+0x2c>
 8002712:	f7ff f8b5 	bl	8001880 <HAL_GetTick>
 8002716:	1b00      	subs	r0, r0, r4
 8002718:	2802      	cmp	r0, #2
 800271a:	d9f6      	bls.n	800270a <HAL_RCC_OscConfig+0x2b6>
 800271c:	e6dd      	b.n	80024da <HAL_RCC_OscConfig+0x86>
 800271e:	bf00      	nop
 8002720:	40023800 	.word	0x40023800
 8002724:	42470000 	.word	0x42470000
 8002728:	42470e80 	.word	0x42470e80
 800272c:	40007000 	.word	0x40007000
 8002730:	42470060 	.word	0x42470060
 8002734:	f7ff f8a4 	bl	8001880 <HAL_GetTick>
 8002738:	1bc0      	subs	r0, r0, r7
 800273a:	2802      	cmp	r0, #2
 800273c:	d9cd      	bls.n	80026da <HAL_RCC_OscConfig+0x286>
 800273e:	e6cc      	b.n	80024da <HAL_RCC_OscConfig+0x86>
 8002740:	f7ff f89e 	bl	8001880 <HAL_GetTick>
 8002744:	4604      	mov	r4, r0
 8002746:	682b      	ldr	r3, [r5, #0]
 8002748:	019b      	lsls	r3, r3, #6
 800274a:	f57f ae99 	bpl.w	8002480 <HAL_RCC_OscConfig+0x2c>
 800274e:	f7ff f897 	bl	8001880 <HAL_GetTick>
 8002752:	1b00      	subs	r0, r0, r4
 8002754:	2802      	cmp	r0, #2
 8002756:	d9f6      	bls.n	8002746 <HAL_RCC_OscConfig+0x2f2>
 8002758:	e6bf      	b.n	80024da <HAL_RCC_OscConfig+0x86>
 800275a:	2801      	cmp	r0, #1
 800275c:	f43f aebe 	beq.w	80024dc <HAL_RCC_OscConfig+0x88>
 8002760:	686b      	ldr	r3, [r5, #4]
 8002762:	69e2      	ldr	r2, [r4, #28]
 8002764:	f403 0180 	and.w	r1, r3, #4194304	; 0x400000
 8002768:	4291      	cmp	r1, r2
 800276a:	f47f aea0 	bne.w	80024ae <HAL_RCC_OscConfig+0x5a>
 800276e:	6a21      	ldr	r1, [r4, #32]
 8002770:	f003 023f 	and.w	r2, r3, #63	; 0x3f
 8002774:	428a      	cmp	r2, r1
 8002776:	f47f ae9a 	bne.w	80024ae <HAL_RCC_OscConfig+0x5a>
 800277a:	6a61      	ldr	r1, [r4, #36]	; 0x24
 800277c:	f647 72c0 	movw	r2, #32704	; 0x7fc0
 8002780:	401a      	ands	r2, r3
 8002782:	ebb2 1f81 	cmp.w	r2, r1, lsl #6
 8002786:	f47f ae92 	bne.w	80024ae <HAL_RCC_OscConfig+0x5a>
 800278a:	6aa2      	ldr	r2, [r4, #40]	; 0x28
 800278c:	0852      	lsrs	r2, r2, #1
 800278e:	f403 3140 	and.w	r1, r3, #196608	; 0x30000
 8002792:	3a01      	subs	r2, #1
 8002794:	ebb1 4f02 	cmp.w	r1, r2, lsl #16
 8002798:	f47f ae89 	bne.w	80024ae <HAL_RCC_OscConfig+0x5a>
 800279c:	6ae2      	ldr	r2, [r4, #44]	; 0x2c
 800279e:	f003 6370 	and.w	r3, r3, #251658240	; 0xf000000
 80027a2:	ebb3 6f02 	cmp.w	r3, r2, lsl #24
 80027a6:	f43f ae6b 	beq.w	8002480 <HAL_RCC_OscConfig+0x2c>
 80027aa:	e680      	b.n	80024ae <HAL_RCC_OscConfig+0x5a>

080027ac <HAL_RCC_GetSysClockFreq>:
 80027ac:	4913      	ldr	r1, [pc, #76]	; (80027fc <HAL_RCC_GetSysClockFreq+0x50>)
 80027ae:	b508      	push	{r3, lr}
 80027b0:	688b      	ldr	r3, [r1, #8]
 80027b2:	f003 030c 	and.w	r3, r3, #12
 80027b6:	2b04      	cmp	r3, #4
 80027b8:	d01c      	beq.n	80027f4 <HAL_RCC_GetSysClockFreq+0x48>
 80027ba:	2b08      	cmp	r3, #8
 80027bc:	d11c      	bne.n	80027f8 <HAL_RCC_GetSysClockFreq+0x4c>
 80027be:	684a      	ldr	r2, [r1, #4]
 80027c0:	684b      	ldr	r3, [r1, #4]
 80027c2:	6849      	ldr	r1, [r1, #4]
 80027c4:	f413 0380 	ands.w	r3, r3, #4194304	; 0x400000
 80027c8:	bf14      	ite	ne
 80027ca:	480d      	ldrne	r0, [pc, #52]	; (8002800 <HAL_RCC_GetSysClockFreq+0x54>)
 80027cc:	480d      	ldreq	r0, [pc, #52]	; (8002804 <HAL_RCC_GetSysClockFreq+0x58>)
 80027ce:	f3c1 1188 	ubfx	r1, r1, #6, #9
 80027d2:	bf18      	it	ne
 80027d4:	2300      	movne	r3, #0
 80027d6:	f002 023f 	and.w	r2, r2, #63	; 0x3f
 80027da:	fba1 0100 	umull	r0, r1, r1, r0
 80027de:	f7fe f885 	bl	80008ec <__aeabi_uldivmod>
 80027e2:	4b06      	ldr	r3, [pc, #24]	; (80027fc <HAL_RCC_GetSysClockFreq+0x50>)
 80027e4:	685b      	ldr	r3, [r3, #4]
 80027e6:	f3c3 4301 	ubfx	r3, r3, #16, #2
 80027ea:	3301      	adds	r3, #1
 80027ec:	005b      	lsls	r3, r3, #1
 80027ee:	fbb0 f0f3 	udiv	r0, r0, r3
 80027f2:	bd08      	pop	{r3, pc}
 80027f4:	4802      	ldr	r0, [pc, #8]	; (8002800 <HAL_RCC_GetSysClockFreq+0x54>)
 80027f6:	e7fc      	b.n	80027f2 <HAL_RCC_GetSysClockFreq+0x46>
 80027f8:	4802      	ldr	r0, [pc, #8]	; (8002804 <HAL_RCC_GetSysClockFreq+0x58>)
 80027fa:	e7fa      	b.n	80027f2 <HAL_RCC_GetSysClockFreq+0x46>
 80027fc:	40023800 	.word	0x40023800
 8002800:	007a1200 	.word	0x007a1200
 8002804:	00f42400 	.word	0x00f42400

08002808 <HAL_RCC_ClockConfig>:
 8002808:	e92d 41f0 	stmdb	sp!, {r4, r5, r6, r7, r8, lr}
 800280c:	460d      	mov	r5, r1
 800280e:	4604      	mov	r4, r0
 8002810:	b910      	cbnz	r0, 8002818 <HAL_RCC_ClockConfig+0x10>
 8002812:	2001      	movs	r0, #1
 8002814:	e8bd 81f0 	ldmia.w	sp!, {r4, r5, r6, r7, r8, pc}
 8002818:	4b44      	ldr	r3, [pc, #272]	; (800292c <HAL_RCC_ClockConfig+0x124>)
 800281a:	681a      	ldr	r2, [r3, #0]
 800281c:	f002 0207 	and.w	r2, r2, #7
 8002820:	428a      	cmp	r2, r1
 8002822:	d328      	bcc.n	8002876 <HAL_RCC_ClockConfig+0x6e>
 8002824:	6822      	ldr	r2, [r4, #0]
 8002826:	0797      	lsls	r7, r2, #30
 8002828:	d42d      	bmi.n	8002886 <HAL_RCC_ClockConfig+0x7e>
 800282a:	07d0      	lsls	r0, r2, #31
 800282c:	d441      	bmi.n	80028b2 <HAL_RCC_ClockConfig+0xaa>
 800282e:	4b3f      	ldr	r3, [pc, #252]	; (800292c <HAL_RCC_ClockConfig+0x124>)
 8002830:	681a      	ldr	r2, [r3, #0]
 8002832:	f002 0207 	and.w	r2, r2, #7
 8002836:	42aa      	cmp	r2, r5
 8002838:	d866      	bhi.n	8002908 <HAL_RCC_ClockConfig+0x100>
 800283a:	6822      	ldr	r2, [r4, #0]
 800283c:	0751      	lsls	r1, r2, #29
 800283e:	d46c      	bmi.n	800291a <HAL_RCC_ClockConfig+0x112>
 8002840:	0713      	lsls	r3, r2, #28
 8002842:	d507      	bpl.n	8002854 <HAL_RCC_ClockConfig+0x4c>
 8002844:	4a3a      	ldr	r2, [pc, #232]	; (8002930 <HAL_RCC_ClockConfig+0x128>)
 8002846:	6921      	ldr	r1, [r4, #16]
 8002848:	6893      	ldr	r3, [r2, #8]
 800284a:	f423 4360 	bic.w	r3, r3, #57344	; 0xe000
 800284e:	ea43 03c1 	orr.w	r3, r3, r1, lsl #3
 8002852:	6093      	str	r3, [r2, #8]
 8002854:	f7ff ffaa 	bl	80027ac <HAL_RCC_GetSysClockFreq>
 8002858:	4b35      	ldr	r3, [pc, #212]	; (8002930 <HAL_RCC_ClockConfig+0x128>)
 800285a:	4a36      	ldr	r2, [pc, #216]	; (8002934 <HAL_RCC_ClockConfig+0x12c>)
 800285c:	689b      	ldr	r3, [r3, #8]
 800285e:	f3c3 1303 	ubfx	r3, r3, #4, #4
 8002862:	5cd3      	ldrb	r3, [r2, r3]
 8002864:	40d8      	lsrs	r0, r3
 8002866:	4b34      	ldr	r3, [pc, #208]	; (8002938 <HAL_RCC_ClockConfig+0x130>)
 8002868:	6018      	str	r0, [r3, #0]
 800286a:	4b34      	ldr	r3, [pc, #208]	; (800293c <HAL_RCC_ClockConfig+0x134>)
 800286c:	6818      	ldr	r0, [r3, #0]
 800286e:	f7fe ffbd 	bl	80017ec <HAL_InitTick>
 8002872:	2000      	movs	r0, #0
 8002874:	e7ce      	b.n	8002814 <HAL_RCC_ClockConfig+0xc>
 8002876:	b2ca      	uxtb	r2, r1
 8002878:	701a      	strb	r2, [r3, #0]
 800287a:	681b      	ldr	r3, [r3, #0]
 800287c:	f003 0307 	and.w	r3, r3, #7
 8002880:	428b      	cmp	r3, r1
 8002882:	d1c6      	bne.n	8002812 <HAL_RCC_ClockConfig+0xa>
 8002884:	e7ce      	b.n	8002824 <HAL_RCC_ClockConfig+0x1c>
 8002886:	4b2a      	ldr	r3, [pc, #168]	; (8002930 <HAL_RCC_ClockConfig+0x128>)
 8002888:	f012 0f04 	tst.w	r2, #4
 800288c:	bf1e      	ittt	ne
 800288e:	6899      	ldrne	r1, [r3, #8]
 8002890:	f441 51e0 	orrne.w	r1, r1, #7168	; 0x1c00
 8002894:	6099      	strne	r1, [r3, #8]
 8002896:	0716      	lsls	r6, r2, #28
 8002898:	bf42      	ittt	mi
 800289a:	6899      	ldrmi	r1, [r3, #8]
 800289c:	f441 4160 	orrmi.w	r1, r1, #57344	; 0xe000
 80028a0:	6099      	strmi	r1, [r3, #8]
 80028a2:	4923      	ldr	r1, [pc, #140]	; (8002930 <HAL_RCC_ClockConfig+0x128>)
 80028a4:	68a0      	ldr	r0, [r4, #8]
 80028a6:	688b      	ldr	r3, [r1, #8]
 80028a8:	f023 03f0 	bic.w	r3, r3, #240	; 0xf0
 80028ac:	4303      	orrs	r3, r0
 80028ae:	608b      	str	r3, [r1, #8]
 80028b0:	e7bb      	b.n	800282a <HAL_RCC_ClockConfig+0x22>
 80028b2:	6862      	ldr	r2, [r4, #4]
 80028b4:	4b1e      	ldr	r3, [pc, #120]	; (8002930 <HAL_RCC_ClockConfig+0x128>)
 80028b6:	2a01      	cmp	r2, #1
 80028b8:	d11c      	bne.n	80028f4 <HAL_RCC_ClockConfig+0xec>
 80028ba:	681b      	ldr	r3, [r3, #0]
 80028bc:	f413 3f00 	tst.w	r3, #131072	; 0x20000
 80028c0:	d0a7      	beq.n	8002812 <HAL_RCC_ClockConfig+0xa>
 80028c2:	4e1b      	ldr	r6, [pc, #108]	; (8002930 <HAL_RCC_ClockConfig+0x128>)
 80028c4:	68b3      	ldr	r3, [r6, #8]
 80028c6:	f023 0303 	bic.w	r3, r3, #3
 80028ca:	4313      	orrs	r3, r2
 80028cc:	60b3      	str	r3, [r6, #8]
 80028ce:	f7fe ffd7 	bl	8001880 <HAL_GetTick>
 80028d2:	f241 3888 	movw	r8, #5000	; 0x1388
 80028d6:	4607      	mov	r7, r0
 80028d8:	68b3      	ldr	r3, [r6, #8]
 80028da:	6862      	ldr	r2, [r4, #4]
 80028dc:	f003 030c 	and.w	r3, r3, #12
 80028e0:	ebb3 0f82 	cmp.w	r3, r2, lsl #2
 80028e4:	d0a3      	beq.n	800282e <HAL_RCC_ClockConfig+0x26>
 80028e6:	f7fe ffcb 	bl	8001880 <HAL_GetTick>
 80028ea:	1bc0      	subs	r0, r0, r7
 80028ec:	4540      	cmp	r0, r8
 80028ee:	d9f3      	bls.n	80028d8 <HAL_RCC_ClockConfig+0xd0>
 80028f0:	2003      	movs	r0, #3
 80028f2:	e78f      	b.n	8002814 <HAL_RCC_ClockConfig+0xc>
 80028f4:	1e91      	subs	r1, r2, #2
 80028f6:	2901      	cmp	r1, #1
 80028f8:	681b      	ldr	r3, [r3, #0]
 80028fa:	d802      	bhi.n	8002902 <HAL_RCC_ClockConfig+0xfa>
 80028fc:	f013 7f00 	tst.w	r3, #33554432	; 0x2000000
 8002900:	e7de      	b.n	80028c0 <HAL_RCC_ClockConfig+0xb8>
 8002902:	f013 0f02 	tst.w	r3, #2
 8002906:	e7db      	b.n	80028c0 <HAL_RCC_ClockConfig+0xb8>
 8002908:	b2ea      	uxtb	r2, r5
 800290a:	701a      	strb	r2, [r3, #0]
 800290c:	681b      	ldr	r3, [r3, #0]
 800290e:	f003 0307 	and.w	r3, r3, #7
 8002912:	42ab      	cmp	r3, r5
 8002914:	f47f af7d 	bne.w	8002812 <HAL_RCC_ClockConfig+0xa>
 8002918:	e78f      	b.n	800283a <HAL_RCC_ClockConfig+0x32>
 800291a:	4905      	ldr	r1, [pc, #20]	; (8002930 <HAL_RCC_ClockConfig+0x128>)
 800291c:	68e0      	ldr	r0, [r4, #12]
 800291e:	688b      	ldr	r3, [r1, #8]
 8002920:	f423 53e0 	bic.w	r3, r3, #7168	; 0x1c00
 8002924:	4303      	orrs	r3, r0
 8002926:	608b      	str	r3, [r1, #8]
 8002928:	e78a      	b.n	8002840 <HAL_RCC_ClockConfig+0x38>
 800292a:	bf00      	nop
 800292c:	40023c00 	.word	0x40023c00
 8002930:	40023800 	.word	0x40023800
 8002934:	08007bda 	.word	0x08007bda
 8002938:	20000000 	.word	0x20000000
 800293c:	20000008 	.word	0x20000008

08002940 <USB_CoreReset>:
 8002940:	b082      	sub	sp, #8
 8002942:	2300      	movs	r3, #0
 8002944:	4a0f      	ldr	r2, [pc, #60]	; (8002984 <USB_CoreReset+0x44>)
 8002946:	9301      	str	r3, [sp, #4]
 8002948:	9b01      	ldr	r3, [sp, #4]
 800294a:	3301      	adds	r3, #1
 800294c:	4293      	cmp	r3, r2
 800294e:	9301      	str	r3, [sp, #4]
 8002950:	d815      	bhi.n	800297e <USB_CoreReset+0x3e>
 8002952:	6903      	ldr	r3, [r0, #16]
 8002954:	2b00      	cmp	r3, #0
 8002956:	daf7      	bge.n	8002948 <USB_CoreReset+0x8>
 8002958:	2300      	movs	r3, #0
 800295a:	9301      	str	r3, [sp, #4]
 800295c:	6903      	ldr	r3, [r0, #16]
 800295e:	4a09      	ldr	r2, [pc, #36]	; (8002984 <USB_CoreReset+0x44>)
 8002960:	f043 0301 	orr.w	r3, r3, #1
 8002964:	6103      	str	r3, [r0, #16]
 8002966:	9b01      	ldr	r3, [sp, #4]
 8002968:	3301      	adds	r3, #1
 800296a:	4293      	cmp	r3, r2
 800296c:	9301      	str	r3, [sp, #4]
 800296e:	d806      	bhi.n	800297e <USB_CoreReset+0x3e>
 8002970:	6903      	ldr	r3, [r0, #16]
 8002972:	f013 0301 	ands.w	r3, r3, #1
 8002976:	d1f6      	bne.n	8002966 <USB_CoreReset+0x26>
 8002978:	4618      	mov	r0, r3
 800297a:	b002      	add	sp, #8
 800297c:	4770      	bx	lr
 800297e:	2003      	movs	r0, #3
 8002980:	e7fb      	b.n	800297a <USB_CoreReset+0x3a>
 8002982:	bf00      	nop
 8002984:	00030d40 	.word	0x00030d40

08002988 <USB_CoreInit>:
 8002988:	b084      	sub	sp, #16
 800298a:	b538      	push	{r3, r4, r5, lr}
 800298c:	ad05      	add	r5, sp, #20
 800298e:	e885 000e 	stmia.w	r5, {r1, r2, r3}
 8002992:	9b0a      	ldr	r3, [sp, #40]	; 0x28
 8002994:	2b01      	cmp	r3, #1
 8002996:	4604      	mov	r4, r0
 8002998:	d125      	bne.n	80029e6 <USB_CoreInit+0x5e>
 800299a:	6b83      	ldr	r3, [r0, #56]	; 0x38
 800299c:	f423 3380 	bic.w	r3, r3, #65536	; 0x10000
 80029a0:	6383      	str	r3, [r0, #56]	; 0x38
 80029a2:	68c3      	ldr	r3, [r0, #12]
 80029a4:	f423 0384 	bic.w	r3, r3, #4325376	; 0x420000
 80029a8:	f023 0340 	bic.w	r3, r3, #64	; 0x40
 80029ac:	60c3      	str	r3, [r0, #12]
 80029ae:	68c3      	ldr	r3, [r0, #12]
 80029b0:	f423 1340 	bic.w	r3, r3, #3145728	; 0x300000
 80029b4:	60c3      	str	r3, [r0, #12]
 80029b6:	9b11      	ldr	r3, [sp, #68]	; 0x44
 80029b8:	2b01      	cmp	r3, #1
 80029ba:	bf02      	ittt	eq
 80029bc:	68c3      	ldreq	r3, [r0, #12]
 80029be:	f443 1380 	orreq.w	r3, r3, #1048576	; 0x100000
 80029c2:	60c3      	streq	r3, [r0, #12]
 80029c4:	f7ff ffbc 	bl	8002940 <USB_CoreReset>
 80029c8:	9b08      	ldr	r3, [sp, #32]
 80029ca:	2b01      	cmp	r3, #1
 80029cc:	d107      	bne.n	80029de <USB_CoreInit+0x56>
 80029ce:	68a3      	ldr	r3, [r4, #8]
 80029d0:	f043 0306 	orr.w	r3, r3, #6
 80029d4:	60a3      	str	r3, [r4, #8]
 80029d6:	68a3      	ldr	r3, [r4, #8]
 80029d8:	f043 0320 	orr.w	r3, r3, #32
 80029dc:	60a3      	str	r3, [r4, #8]
 80029de:	e8bd 4038 	ldmia.w	sp!, {r3, r4, r5, lr}
 80029e2:	b004      	add	sp, #16
 80029e4:	4770      	bx	lr
 80029e6:	68c3      	ldr	r3, [r0, #12]
 80029e8:	f043 0340 	orr.w	r3, r3, #64	; 0x40
 80029ec:	60c3      	str	r3, [r0, #12]
 80029ee:	f7ff ffa7 	bl	8002940 <USB_CoreReset>
 80029f2:	9b0e      	ldr	r3, [sp, #56]	; 0x38
 80029f4:	b923      	cbnz	r3, 8002a00 <USB_CoreInit+0x78>
 80029f6:	6ba3      	ldr	r3, [r4, #56]	; 0x38
 80029f8:	f443 3380 	orr.w	r3, r3, #65536	; 0x10000
 80029fc:	63a3      	str	r3, [r4, #56]	; 0x38
 80029fe:	e7e3      	b.n	80029c8 <USB_CoreInit+0x40>
 8002a00:	6ba3      	ldr	r3, [r4, #56]	; 0x38
 8002a02:	f423 3380 	bic.w	r3, r3, #65536	; 0x10000
 8002a06:	e7f9      	b.n	80029fc <USB_CoreInit+0x74>

08002a08 <USB_EnableGlobalInt>:
 8002a08:	6883      	ldr	r3, [r0, #8]
 8002a0a:	f043 0301 	orr.w	r3, r3, #1
 8002a0e:	6083      	str	r3, [r0, #8]
 8002a10:	2000      	movs	r0, #0
 8002a12:	4770      	bx	lr

08002a14 <USB_DisableGlobalInt>:
 8002a14:	6883      	ldr	r3, [r0, #8]
 8002a16:	f023 0301 	bic.w	r3, r3, #1
 8002a1a:	6083      	str	r3, [r0, #8]
 8002a1c:	2000      	movs	r0, #0
 8002a1e:	4770      	bx	lr

08002a20 <USB_SetCurrentMode>:
 8002a20:	b538      	push	{r3, r4, r5, lr}
 8002a22:	68c3      	ldr	r3, [r0, #12]
 8002a24:	2901      	cmp	r1, #1
 8002a26:	f023 43c0 	bic.w	r3, r3, #1610612736	; 0x60000000
 8002a2a:	4605      	mov	r5, r0
 8002a2c:	60c3      	str	r3, [r0, #12]
 8002a2e:	d110      	bne.n	8002a52 <USB_SetCurrentMode+0x32>
 8002a30:	68c3      	ldr	r3, [r0, #12]
 8002a32:	f043 5300 	orr.w	r3, r3, #536870912	; 0x20000000
 8002a36:	60c3      	str	r3, [r0, #12]
 8002a38:	2400      	movs	r4, #0
 8002a3a:	2001      	movs	r0, #1
 8002a3c:	f7fe ff26 	bl	800188c <HAL_Delay>
 8002a40:	696b      	ldr	r3, [r5, #20]
 8002a42:	07d9      	lsls	r1, r3, #31
 8002a44:	f104 0401 	add.w	r4, r4, #1
 8002a48:	d415      	bmi.n	8002a76 <USB_SetCurrentMode+0x56>
 8002a4a:	2c32      	cmp	r4, #50	; 0x32
 8002a4c:	d1f5      	bne.n	8002a3a <USB_SetCurrentMode+0x1a>
 8002a4e:	2001      	movs	r0, #1
 8002a50:	bd38      	pop	{r3, r4, r5, pc}
 8002a52:	2900      	cmp	r1, #0
 8002a54:	d1fb      	bne.n	8002a4e <USB_SetCurrentMode+0x2e>
 8002a56:	68c3      	ldr	r3, [r0, #12]
 8002a58:	f043 4380 	orr.w	r3, r3, #1073741824	; 0x40000000
 8002a5c:	60c3      	str	r3, [r0, #12]
 8002a5e:	460c      	mov	r4, r1
 8002a60:	2001      	movs	r0, #1
 8002a62:	f7fe ff13 	bl	800188c <HAL_Delay>
 8002a66:	696b      	ldr	r3, [r5, #20]
 8002a68:	07da      	lsls	r2, r3, #31
 8002a6a:	f104 0401 	add.w	r4, r4, #1
 8002a6e:	d502      	bpl.n	8002a76 <USB_SetCurrentMode+0x56>
 8002a70:	2c32      	cmp	r4, #50	; 0x32
 8002a72:	d1f5      	bne.n	8002a60 <USB_SetCurrentMode+0x40>
 8002a74:	e7eb      	b.n	8002a4e <USB_SetCurrentMode+0x2e>
 8002a76:	f1a4 0332 	sub.w	r3, r4, #50	; 0x32
 8002a7a:	4258      	negs	r0, r3
 8002a7c:	4158      	adcs	r0, r3
 8002a7e:	e7e7      	b.n	8002a50 <USB_SetCurrentMode+0x30>

08002a80 <USB_FlushTxFifo>:
 8002a80:	b082      	sub	sp, #8
 8002a82:	0189      	lsls	r1, r1, #6
 8002a84:	2300      	movs	r3, #0
 8002a86:	f041 0120 	orr.w	r1, r1, #32
 8002a8a:	4a08      	ldr	r2, [pc, #32]	; (8002aac <USB_FlushTxFifo+0x2c>)
 8002a8c:	9301      	str	r3, [sp, #4]
 8002a8e:	6101      	str	r1, [r0, #16]
 8002a90:	9b01      	ldr	r3, [sp, #4]
 8002a92:	3301      	adds	r3, #1
 8002a94:	4293      	cmp	r3, r2
 8002a96:	9301      	str	r3, [sp, #4]
 8002a98:	d806      	bhi.n	8002aa8 <USB_FlushTxFifo+0x28>
 8002a9a:	6903      	ldr	r3, [r0, #16]
 8002a9c:	f013 0320 	ands.w	r3, r3, #32
 8002aa0:	d1f6      	bne.n	8002a90 <USB_FlushTxFifo+0x10>
 8002aa2:	4618      	mov	r0, r3
 8002aa4:	b002      	add	sp, #8
 8002aa6:	4770      	bx	lr
 8002aa8:	2003      	movs	r0, #3
 8002aaa:	e7fb      	b.n	8002aa4 <USB_FlushTxFifo+0x24>
 8002aac:	00030d40 	.word	0x00030d40

08002ab0 <USB_FlushRxFifo>:
 8002ab0:	b082      	sub	sp, #8
 8002ab2:	2300      	movs	r3, #0
 8002ab4:	9301      	str	r3, [sp, #4]
 8002ab6:	4a08      	ldr	r2, [pc, #32]	; (8002ad8 <USB_FlushRxFifo+0x28>)
 8002ab8:	2310      	movs	r3, #16
 8002aba:	6103      	str	r3, [r0, #16]
 8002abc:	9b01      	ldr	r3, [sp, #4]
 8002abe:	3301      	adds	r3, #1
 8002ac0:	4293      	cmp	r3, r2
 8002ac2:	9301      	str	r3, [sp, #4]
 8002ac4:	d806      	bhi.n	8002ad4 <USB_FlushRxFifo+0x24>
 8002ac6:	6903      	ldr	r3, [r0, #16]
 8002ac8:	f013 0310 	ands.w	r3, r3, #16
 8002acc:	d1f6      	bne.n	8002abc <USB_FlushRxFifo+0xc>
 8002ace:	4618      	mov	r0, r3
 8002ad0:	b002      	add	sp, #8
 8002ad2:	4770      	bx	lr
 8002ad4:	2003      	movs	r0, #3
 8002ad6:	e7fb      	b.n	8002ad0 <USB_FlushRxFifo+0x20>
 8002ad8:	00030d40 	.word	0x00030d40

08002adc <USB_WritePacket>:
 8002adc:	b510      	push	{r4, lr}
 8002ade:	f89d 4008 	ldrb.w	r4, [sp, #8]
 8002ae2:	b944      	cbnz	r4, 8002af6 <USB_WritePacket+0x1a>
 8002ae4:	3303      	adds	r3, #3
 8002ae6:	3201      	adds	r2, #1
 8002ae8:	089b      	lsrs	r3, r3, #2
 8002aea:	eb00 3002 	add.w	r0, r0, r2, lsl #12
 8002aee:	eb01 0383 	add.w	r3, r1, r3, lsl #2
 8002af2:	428b      	cmp	r3, r1
 8002af4:	d101      	bne.n	8002afa <USB_WritePacket+0x1e>
 8002af6:	2000      	movs	r0, #0
 8002af8:	bd10      	pop	{r4, pc}
 8002afa:	f851 2b04 	ldr.w	r2, [r1], #4
 8002afe:	6002      	str	r2, [r0, #0]
 8002b00:	e7f7      	b.n	8002af2 <USB_WritePacket+0x16>

08002b02 <USB_ReadPacket>:
 8002b02:	b570      	push	{r4, r5, r6, lr}
 8002b04:	2300      	movs	r3, #0
 8002b06:	0894      	lsrs	r4, r2, #2
 8002b08:	f500 5580 	add.w	r5, r0, #4096	; 0x1000
 8002b0c:	f002 0203 	and.w	r2, r2, #3
 8002b10:	42a3      	cmp	r3, r4
 8002b12:	d314      	bcc.n	8002b3e <USB_ReadPacket+0x3c>
 8002b14:	eb01 0184 	add.w	r1, r1, r4, lsl #2
 8002b18:	b17a      	cbz	r2, 8002b3a <USB_ReadPacket+0x38>
 8002b1a:	f500 5080 	add.w	r0, r0, #4096	; 0x1000
 8002b1e:	2300      	movs	r3, #0
 8002b20:	6804      	ldr	r4, [r0, #0]
 8002b22:	00d8      	lsls	r0, r3, #3
 8002b24:	fa24 f000 	lsr.w	r0, r4, r0
 8002b28:	54c8      	strb	r0, [r1, r3]
 8002b2a:	3301      	adds	r3, #1
 8002b2c:	b298      	uxth	r0, r3
 8002b2e:	4282      	cmp	r2, r0
 8002b30:	d1f7      	bne.n	8002b22 <USB_ReadPacket+0x20>
 8002b32:	3a01      	subs	r2, #1
 8002b34:	b292      	uxth	r2, r2
 8002b36:	3201      	adds	r2, #1
 8002b38:	4411      	add	r1, r2
 8002b3a:	4608      	mov	r0, r1
 8002b3c:	bd70      	pop	{r4, r5, r6, pc}
 8002b3e:	682e      	ldr	r6, [r5, #0]
 8002b40:	f841 6023 	str.w	r6, [r1, r3, lsl #2]
 8002b44:	3301      	adds	r3, #1
 8002b46:	e7e3      	b.n	8002b10 <USB_ReadPacket+0xe>

08002b48 <USB_ReadInterrupts>:
 8002b48:	6942      	ldr	r2, [r0, #20]
 8002b4a:	6980      	ldr	r0, [r0, #24]
 8002b4c:	4010      	ands	r0, r2
 8002b4e:	4770      	bx	lr

08002b50 <USB_GetMode>:
 8002b50:	6940      	ldr	r0, [r0, #20]
 8002b52:	f000 0001 	and.w	r0, r0, #1
 8002b56:	4770      	bx	lr

08002b58 <USB_HostInit>:
 8002b58:	b084      	sub	sp, #16
 8002b5a:	b538      	push	{r3, r4, r5, lr}
 8002b5c:	4604      	mov	r4, r0
 8002b5e:	a805      	add	r0, sp, #20
 8002b60:	e880 000e 	stmia.w	r0, {r1, r2, r3}
 8002b64:	2300      	movs	r3, #0
 8002b66:	f8c4 3e00 	str.w	r3, [r4, #3584]	; 0xe00
 8002b6a:	6ba3      	ldr	r3, [r4, #56]	; 0x38
 8002b6c:	f443 1300 	orr.w	r3, r3, #2097152	; 0x200000
 8002b70:	63a3      	str	r3, [r4, #56]	; 0x38
 8002b72:	6ba3      	ldr	r3, [r4, #56]	; 0x38
 8002b74:	f423 2300 	bic.w	r3, r3, #524288	; 0x80000
 8002b78:	63a3      	str	r3, [r4, #56]	; 0x38
 8002b7a:	6ba3      	ldr	r3, [r4, #56]	; 0x38
 8002b7c:	f423 2380 	bic.w	r3, r3, #262144	; 0x40000
 8002b80:	63a3      	str	r3, [r4, #56]	; 0x38
 8002b82:	6be3      	ldr	r3, [r4, #60]	; 0x3c
 8002b84:	05da      	lsls	r2, r3, #23
 8002b86:	d535      	bpl.n	8002bf4 <USB_HostInit+0x9c>
 8002b88:	9b07      	ldr	r3, [sp, #28]
 8002b8a:	2b01      	cmp	r3, #1
 8002b8c:	f8d4 3400 	ldr.w	r3, [r4, #1024]	; 0x400
 8002b90:	d132      	bne.n	8002bf8 <USB_HostInit+0xa0>
 8002b92:	f043 0304 	orr.w	r3, r3, #4
 8002b96:	f8c4 3400 	str.w	r3, [r4, #1024]	; 0x400
 8002b9a:	2110      	movs	r1, #16
 8002b9c:	4620      	mov	r0, r4
 8002b9e:	f7ff ff6f 	bl	8002a80 <USB_FlushTxFifo>
 8002ba2:	4620      	mov	r0, r4
 8002ba4:	f7ff ff84 	bl	8002ab0 <USB_FlushRxFifo>
 8002ba8:	2300      	movs	r3, #0
 8002baa:	9d06      	ldr	r5, [sp, #24]
 8002bac:	f504 62a0 	add.w	r2, r4, #1280	; 0x500
 8002bb0:	4618      	mov	r0, r3
 8002bb2:	f04f 31ff 	mov.w	r1, #4294967295
 8002bb6:	429d      	cmp	r5, r3
 8002bb8:	d121      	bne.n	8002bfe <USB_HostInit+0xa6>
 8002bba:	61a0      	str	r0, [r4, #24]
 8002bbc:	6161      	str	r1, [r4, #20]
 8002bbe:	6be3      	ldr	r3, [r4, #60]	; 0x3c
 8002bc0:	05db      	lsls	r3, r3, #23
 8002bc2:	d521      	bpl.n	8002c08 <USB_HostInit+0xb0>
 8002bc4:	f44f 7300 	mov.w	r3, #512	; 0x200
 8002bc8:	6263      	str	r3, [r4, #36]	; 0x24
 8002bca:	f103 7380 	add.w	r3, r3, #16777216	; 0x1000000
 8002bce:	62a3      	str	r3, [r4, #40]	; 0x28
 8002bd0:	4b11      	ldr	r3, [pc, #68]	; (8002c18 <USB_HostInit+0xc0>)
 8002bd2:	f8c4 3100 	str.w	r3, [r4, #256]	; 0x100
 8002bd6:	9b08      	ldr	r3, [sp, #32]
 8002bd8:	b91b      	cbnz	r3, 8002be2 <USB_HostInit+0x8a>
 8002bda:	69a3      	ldr	r3, [r4, #24]
 8002bdc:	f043 0310 	orr.w	r3, r3, #16
 8002be0:	61a3      	str	r3, [r4, #24]
 8002be2:	69a2      	ldr	r2, [r4, #24]
 8002be4:	4b0d      	ldr	r3, [pc, #52]	; (8002c1c <USB_HostInit+0xc4>)
 8002be6:	4313      	orrs	r3, r2
 8002be8:	61a3      	str	r3, [r4, #24]
 8002bea:	e8bd 4038 	ldmia.w	sp!, {r3, r4, r5, lr}
 8002bee:	2000      	movs	r0, #0
 8002bf0:	b004      	add	sp, #16
 8002bf2:	4770      	bx	lr
 8002bf4:	f8d4 3400 	ldr.w	r3, [r4, #1024]	; 0x400
 8002bf8:	f023 0304 	bic.w	r3, r3, #4
 8002bfc:	e7cb      	b.n	8002b96 <USB_HostInit+0x3e>
 8002bfe:	6091      	str	r1, [r2, #8]
 8002c00:	3301      	adds	r3, #1
 8002c02:	60d0      	str	r0, [r2, #12]
 8002c04:	3220      	adds	r2, #32
 8002c06:	e7d6      	b.n	8002bb6 <USB_HostInit+0x5e>
 8002c08:	2380      	movs	r3, #128	; 0x80
 8002c0a:	6263      	str	r3, [r4, #36]	; 0x24
 8002c0c:	f503 03c0 	add.w	r3, r3, #6291456	; 0x600000
 8002c10:	62a3      	str	r3, [r4, #40]	; 0x28
 8002c12:	4b03      	ldr	r3, [pc, #12]	; (8002c20 <USB_HostInit+0xc8>)
 8002c14:	e7dd      	b.n	8002bd2 <USB_HostInit+0x7a>
 8002c16:	bf00      	nop
 8002c18:	00e00300 	.word	0x00e00300
 8002c1c:	a3200008 	.word	0xa3200008
 8002c20:	004000e0 	.word	0x004000e0

08002c24 <USB_InitFSLSPClkSel>:
 8002c24:	f8d0 3400 	ldr.w	r3, [r0, #1024]	; 0x400
 8002c28:	f023 0303 	bic.w	r3, r3, #3
 8002c2c:	b510      	push	{r4, lr}
 8002c2e:	f8c0 3400 	str.w	r3, [r0, #1024]	; 0x400
 8002c32:	f8d0 4400 	ldr.w	r4, [r0, #1024]	; 0x400
 8002c36:	f001 0303 	and.w	r3, r1, #3
 8002c3a:	4323      	orrs	r3, r4
 8002c3c:	2901      	cmp	r1, #1
 8002c3e:	f500 6280 	add.w	r2, r0, #1024	; 0x400
 8002c42:	f8c0 3400 	str.w	r3, [r0, #1024]	; 0x400
 8002c46:	d104      	bne.n	8002c52 <USB_InitFSLSPClkSel+0x2e>
 8002c48:	f64b 3380 	movw	r3, #48000	; 0xbb80
 8002c4c:	6053      	str	r3, [r2, #4]
 8002c4e:	2000      	movs	r0, #0
 8002c50:	bd10      	pop	{r4, pc}
 8002c52:	2902      	cmp	r1, #2
 8002c54:	d1fb      	bne.n	8002c4e <USB_InitFSLSPClkSel+0x2a>
 8002c56:	f241 7370 	movw	r3, #6000	; 0x1770
 8002c5a:	e7f7      	b.n	8002c4c <USB_InitFSLSPClkSel+0x28>

08002c5c <USB_ResetPort>:
 8002c5c:	b537      	push	{r0, r1, r2, r4, r5, lr}
 8002c5e:	2500      	movs	r5, #0
 8002c60:	9501      	str	r5, [sp, #4]
 8002c62:	f8d0 3440 	ldr.w	r3, [r0, #1088]	; 0x440
 8002c66:	9301      	str	r3, [sp, #4]
 8002c68:	9b01      	ldr	r3, [sp, #4]
 8002c6a:	f023 032e 	bic.w	r3, r3, #46	; 0x2e
 8002c6e:	9301      	str	r3, [sp, #4]
 8002c70:	9b01      	ldr	r3, [sp, #4]
 8002c72:	f443 7380 	orr.w	r3, r3, #256	; 0x100
 8002c76:	4604      	mov	r4, r0
 8002c78:	f8c0 3440 	str.w	r3, [r0, #1088]	; 0x440
 8002c7c:	2064      	movs	r0, #100	; 0x64
 8002c7e:	f7fe fe05 	bl	800188c <HAL_Delay>
 8002c82:	9b01      	ldr	r3, [sp, #4]
 8002c84:	f423 7380 	bic.w	r3, r3, #256	; 0x100
 8002c88:	f8c4 3440 	str.w	r3, [r4, #1088]	; 0x440
 8002c8c:	200a      	movs	r0, #10
 8002c8e:	f7fe fdfd 	bl	800188c <HAL_Delay>
 8002c92:	4628      	mov	r0, r5
 8002c94:	b003      	add	sp, #12
 8002c96:	bd30      	pop	{r4, r5, pc}

08002c98 <USB_DriveVbus>:
 8002c98:	b082      	sub	sp, #8
 8002c9a:	2300      	movs	r3, #0
 8002c9c:	9301      	str	r3, [sp, #4]
 8002c9e:	f8d0 3440 	ldr.w	r3, [r0, #1088]	; 0x440
 8002ca2:	9301      	str	r3, [sp, #4]
 8002ca4:	9b01      	ldr	r3, [sp, #4]
 8002ca6:	f023 032e 	bic.w	r3, r3, #46	; 0x2e
 8002caa:	9301      	str	r3, [sp, #4]
 8002cac:	9b01      	ldr	r3, [sp, #4]
 8002cae:	04da      	lsls	r2, r3, #19
 8002cb0:	d406      	bmi.n	8002cc0 <USB_DriveVbus+0x28>
 8002cb2:	2901      	cmp	r1, #1
 8002cb4:	bf02      	ittt	eq
 8002cb6:	9b01      	ldreq	r3, [sp, #4]
 8002cb8:	f443 5380 	orreq.w	r3, r3, #4096	; 0x1000
 8002cbc:	f8c0 3440 	streq.w	r3, [r0, #1088]	; 0x440
 8002cc0:	9b01      	ldr	r3, [sp, #4]
 8002cc2:	04db      	lsls	r3, r3, #19
 8002cc4:	d505      	bpl.n	8002cd2 <USB_DriveVbus+0x3a>
 8002cc6:	b921      	cbnz	r1, 8002cd2 <USB_DriveVbus+0x3a>
 8002cc8:	9b01      	ldr	r3, [sp, #4]
 8002cca:	f423 5380 	bic.w	r3, r3, #4096	; 0x1000
 8002cce:	f8c0 3440 	str.w	r3, [r0, #1088]	; 0x440
 8002cd2:	2000      	movs	r0, #0
 8002cd4:	b002      	add	sp, #8
 8002cd6:	4770      	bx	lr

08002cd8 <USB_GetHostSpeed>:
 8002cd8:	b082      	sub	sp, #8
 8002cda:	2300      	movs	r3, #0
 8002cdc:	9301      	str	r3, [sp, #4]
 8002cde:	f8d0 3440 	ldr.w	r3, [r0, #1088]	; 0x440
 8002ce2:	9301      	str	r3, [sp, #4]
 8002ce4:	9801      	ldr	r0, [sp, #4]
 8002ce6:	f3c0 4041 	ubfx	r0, r0, #17, #2
 8002cea:	b002      	add	sp, #8
 8002cec:	4770      	bx	lr

08002cee <USB_GetCurrentFrame>:
 8002cee:	f500 6080 	add.w	r0, r0, #1024	; 0x400
 8002cf2:	6880      	ldr	r0, [r0, #8]
 8002cf4:	b280      	uxth	r0, r0
 8002cf6:	4770      	bx	lr

08002cf8 <USB_HC_Init>:
 8002cf8:	e92d 41f0 	stmdb	sp!, {r4, r5, r6, r7, r8, lr}
 8002cfc:	eb00 1641 	add.w	r6, r0, r1, lsl #5
 8002d00:	f506 65a0 	add.w	r5, r6, #1280	; 0x500
 8002d04:	f89d 701c 	ldrb.w	r7, [sp, #28]
 8002d08:	461c      	mov	r4, r3
 8002d0a:	f04f 33ff 	mov.w	r3, #4294967295
 8002d0e:	60ab      	str	r3, [r5, #8]
 8002d10:	fa4f fc82 	sxtb.w	ip, r2
 8002d14:	2f03      	cmp	r7, #3
 8002d16:	d865      	bhi.n	8002de4 <USB_HC_Init+0xec>
 8002d18:	e8df f007 	tbb	[pc, r7]
 8002d1c:	53025a02 	.word	0x53025a02
 8002d20:	f240 439d 	movw	r3, #1181	; 0x49d
 8002d24:	f1bc 0f00 	cmp.w	ip, #0
 8002d28:	60eb      	str	r3, [r5, #12]
 8002d2a:	da03      	bge.n	8002d34 <USB_HC_Init+0x3c>
 8002d2c:	68eb      	ldr	r3, [r5, #12]
 8002d2e:	f443 7380 	orr.w	r3, r3, #256	; 0x100
 8002d32:	e044      	b.n	8002dbe <USB_HC_Init+0xc6>
 8002d34:	6bc3      	ldr	r3, [r0, #60]	; 0x3c
 8002d36:	05db      	lsls	r3, r3, #23
 8002d38:	d43e      	bmi.n	8002db8 <USB_HC_Init+0xc0>
 8002d3a:	2500      	movs	r5, #0
 8002d3c:	f8d0 8418 	ldr.w	r8, [r0, #1048]	; 0x418
 8002d40:	f001 030f 	and.w	r3, r1, #15
 8002d44:	2101      	movs	r1, #1
 8002d46:	4099      	lsls	r1, r3
 8002d48:	ea41 0108 	orr.w	r1, r1, r8
 8002d4c:	f8c0 1418 	str.w	r1, [r0, #1048]	; 0x418
 8002d50:	6983      	ldr	r3, [r0, #24]
 8002d52:	f043 7300 	orr.w	r3, r3, #33554432	; 0x2000000
 8002d56:	f1bc 0f00 	cmp.w	ip, #0
 8002d5a:	6183      	str	r3, [r0, #24]
 8002d5c:	bfb4      	ite	lt
 8002d5e:	f44f 4100 	movlt.w	r1, #32768	; 0x8000
 8002d62:	2100      	movge	r1, #0
 8002d64:	f7ff ffb8 	bl	8002cd8 <USB_GetHostSpeed>
 8002d68:	f89d 3018 	ldrb.w	r3, [sp, #24]
 8002d6c:	2b02      	cmp	r3, #2
 8002d6e:	d13b      	bne.n	8002de8 <USB_HC_Init+0xf0>
 8002d70:	2802      	cmp	r0, #2
 8002d72:	bf0c      	ite	eq
 8002d74:	2000      	moveq	r0, #0
 8002d76:	f44f 3000 	movne.w	r0, #131072	; 0x20000
 8002d7a:	05a3      	lsls	r3, r4, #22
 8002d7c:	f8bd 4020 	ldrh.w	r4, [sp, #32]
 8002d80:	f003 53fe 	and.w	r3, r3, #532676608	; 0x1fc00000
 8002d84:	f3c4 040a 	ubfx	r4, r4, #0, #11
 8002d88:	02d2      	lsls	r2, r2, #11
 8002d8a:	4323      	orrs	r3, r4
 8002d8c:	f402 42f0 	and.w	r2, r2, #30720	; 0x7800
 8002d90:	4313      	orrs	r3, r2
 8002d92:	04ba      	lsls	r2, r7, #18
 8002d94:	f402 2240 	and.w	r2, r2, #786432	; 0xc0000
 8002d98:	4313      	orrs	r3, r2
 8002d9a:	430b      	orrs	r3, r1
 8002d9c:	4303      	orrs	r3, r0
 8002d9e:	f8c6 3500 	str.w	r3, [r6, #1280]	; 0x500
 8002da2:	2f03      	cmp	r7, #3
 8002da4:	bf02      	ittt	eq
 8002da6:	f8d6 3500 	ldreq.w	r3, [r6, #1280]	; 0x500
 8002daa:	f043 5300 	orreq.w	r3, r3, #536870912	; 0x20000000
 8002dae:	f8c6 3500 	streq.w	r3, [r6, #1280]	; 0x500
 8002db2:	4628      	mov	r0, r5
 8002db4:	e8bd 81f0 	ldmia.w	sp!, {r4, r5, r6, r7, r8, pc}
 8002db8:	68eb      	ldr	r3, [r5, #12]
 8002dba:	f043 0360 	orr.w	r3, r3, #96	; 0x60
 8002dbe:	60eb      	str	r3, [r5, #12]
 8002dc0:	e7bb      	b.n	8002d3a <USB_HC_Init+0x42>
 8002dc2:	f240 639d 	movw	r3, #1693	; 0x69d
 8002dc6:	f1bc 0f00 	cmp.w	ip, #0
 8002dca:	60eb      	str	r3, [r5, #12]
 8002dcc:	dab5      	bge.n	8002d3a <USB_HC_Init+0x42>
 8002dce:	e7ad      	b.n	8002d2c <USB_HC_Init+0x34>
 8002dd0:	f240 2325 	movw	r3, #549	; 0x225
 8002dd4:	f1bc 0f00 	cmp.w	ip, #0
 8002dd8:	60eb      	str	r3, [r5, #12]
 8002dda:	daae      	bge.n	8002d3a <USB_HC_Init+0x42>
 8002ddc:	68eb      	ldr	r3, [r5, #12]
 8002dde:	f443 73c0 	orr.w	r3, r3, #384	; 0x180
 8002de2:	e7ec      	b.n	8002dbe <USB_HC_Init+0xc6>
 8002de4:	2501      	movs	r5, #1
 8002de6:	e7a9      	b.n	8002d3c <USB_HC_Init+0x44>
 8002de8:	2000      	movs	r0, #0
 8002dea:	e7c6      	b.n	8002d7a <USB_HC_Init+0x82>

08002dec <USB_HC_ReadInterrupt>:
 8002dec:	f500 6080 	add.w	r0, r0, #1024	; 0x400
 8002df0:	6940      	ldr	r0, [r0, #20]
 8002df2:	b280      	uxth	r0, r0
 8002df4:	4770      	bx	lr

08002df6 <USB_HC_Halt>:
 8002df6:	eb00 1141 	add.w	r1, r0, r1, lsl #5
 8002dfa:	b530      	push	{r4, r5, lr}
 8002dfc:	f8d1 3500 	ldr.w	r3, [r1, #1280]	; 0x500
 8002e00:	f8d1 4500 	ldr.w	r4, [r1, #1280]	; 0x500
 8002e04:	6885      	ldr	r5, [r0, #8]
 8002e06:	06ad      	lsls	r5, r5, #26
 8002e08:	f501 62a0 	add.w	r2, r1, #1280	; 0x500
 8002e0c:	ea4f 4393 	mov.w	r3, r3, lsr #18
 8002e10:	d501      	bpl.n	8002e16 <USB_HC_Halt+0x20>
 8002e12:	2c00      	cmp	r4, #0
 8002e14:	da28      	bge.n	8002e68 <USB_HC_Halt+0x72>
 8002e16:	f013 0f01 	tst.w	r3, #1
 8002e1a:	f8d1 3500 	ldr.w	r3, [r1, #1280]	; 0x500
 8002e1e:	f043 4380 	orr.w	r3, r3, #1073741824	; 0x40000000
 8002e22:	f8c1 3500 	str.w	r3, [r1, #1280]	; 0x500
 8002e26:	d121      	bne.n	8002e6c <USB_HC_Halt+0x76>
 8002e28:	6883      	ldr	r3, [r0, #8]
 8002e2a:	069b      	lsls	r3, r3, #26
 8002e2c:	d41c      	bmi.n	8002e68 <USB_HC_Halt+0x72>
 8002e2e:	6ac3      	ldr	r3, [r0, #44]	; 0x2c
 8002e30:	f413 0f7f 	tst.w	r3, #16711680	; 0xff0000
 8002e34:	f8d1 3500 	ldr.w	r3, [r1, #1280]	; 0x500
 8002e38:	d137      	bne.n	8002eaa <USB_HC_Halt+0xb4>
 8002e3a:	f023 4300 	bic.w	r3, r3, #2147483648	; 0x80000000
 8002e3e:	f8c1 3500 	str.w	r3, [r1, #1280]	; 0x500
 8002e42:	f8d1 3500 	ldr.w	r3, [r1, #1280]	; 0x500
 8002e46:	f043 4300 	orr.w	r3, r3, #2147483648	; 0x80000000
 8002e4a:	f8c1 3500 	str.w	r3, [r1, #1280]	; 0x500
 8002e4e:	f8d1 3500 	ldr.w	r3, [r1, #1280]	; 0x500
 8002e52:	f423 4300 	bic.w	r3, r3, #32768	; 0x8000
 8002e56:	f8c1 3500 	str.w	r3, [r1, #1280]	; 0x500
 8002e5a:	f240 33e9 	movw	r3, #1001	; 0x3e9
 8002e5e:	3b01      	subs	r3, #1
 8002e60:	d002      	beq.n	8002e68 <USB_HC_Halt+0x72>
 8002e62:	6811      	ldr	r1, [r2, #0]
 8002e64:	2900      	cmp	r1, #0
 8002e66:	dbfa      	blt.n	8002e5e <USB_HC_Halt+0x68>
 8002e68:	2000      	movs	r0, #0
 8002e6a:	bd30      	pop	{r4, r5, pc}
 8002e6c:	f8d0 3410 	ldr.w	r3, [r0, #1040]	; 0x410
 8002e70:	f413 0f7f 	tst.w	r3, #16711680	; 0xff0000
 8002e74:	f8d1 3500 	ldr.w	r3, [r1, #1280]	; 0x500
 8002e78:	d117      	bne.n	8002eaa <USB_HC_Halt+0xb4>
 8002e7a:	f023 4300 	bic.w	r3, r3, #2147483648	; 0x80000000
 8002e7e:	f8c1 3500 	str.w	r3, [r1, #1280]	; 0x500
 8002e82:	f8d1 3500 	ldr.w	r3, [r1, #1280]	; 0x500
 8002e86:	f043 4300 	orr.w	r3, r3, #2147483648	; 0x80000000
 8002e8a:	f8c1 3500 	str.w	r3, [r1, #1280]	; 0x500
 8002e8e:	f8d1 3500 	ldr.w	r3, [r1, #1280]	; 0x500
 8002e92:	f423 4300 	bic.w	r3, r3, #32768	; 0x8000
 8002e96:	f8c1 3500 	str.w	r3, [r1, #1280]	; 0x500
 8002e9a:	f240 33e9 	movw	r3, #1001	; 0x3e9
 8002e9e:	3b01      	subs	r3, #1
 8002ea0:	d0e2      	beq.n	8002e68 <USB_HC_Halt+0x72>
 8002ea2:	6811      	ldr	r1, [r2, #0]
 8002ea4:	2900      	cmp	r1, #0
 8002ea6:	dbfa      	blt.n	8002e9e <USB_HC_Halt+0xa8>
 8002ea8:	e7de      	b.n	8002e68 <USB_HC_Halt+0x72>
 8002eaa:	f043 4300 	orr.w	r3, r3, #2147483648	; 0x80000000
 8002eae:	f8c1 3500 	str.w	r3, [r1, #1280]	; 0x500
 8002eb2:	e7d9      	b.n	8002e68 <USB_HC_Halt+0x72>

08002eb4 <USB_DoPing>:
 8002eb4:	eb00 1141 	add.w	r1, r0, r1, lsl #5
 8002eb8:	4a06      	ldr	r2, [pc, #24]	; (8002ed4 <USB_DoPing+0x20>)
 8002eba:	f8c1 2510 	str.w	r2, [r1, #1296]	; 0x510
 8002ebe:	f8d1 3500 	ldr.w	r3, [r1, #1280]	; 0x500
 8002ec2:	f023 4380 	bic.w	r3, r3, #1073741824	; 0x40000000
 8002ec6:	f043 4300 	orr.w	r3, r3, #2147483648	; 0x80000000
 8002eca:	f8c1 3500 	str.w	r3, [r1, #1280]	; 0x500
 8002ece:	2000      	movs	r0, #0
 8002ed0:	4770      	bx	lr
 8002ed2:	bf00      	nop
 8002ed4:	80080000 	.word	0x80080000

08002ed8 <USB_HC_StartXfer>:
 8002ed8:	e92d 41ff 	stmdb	sp!, {r0, r1, r2, r3, r4, r5, r6, r7, r8, lr}
 8002edc:	6bc3      	ldr	r3, [r0, #60]	; 0x3c
 8002ede:	05db      	lsls	r3, r3, #23
 8002ee0:	4615      	mov	r5, r2
 8002ee2:	4604      	mov	r4, r0
 8002ee4:	784a      	ldrb	r2, [r1, #1]
 8002ee6:	d50f      	bpl.n	8002f08 <USB_HC_StartXfer+0x30>
 8002ee8:	790b      	ldrb	r3, [r1, #4]
 8002eea:	b96b      	cbnz	r3, 8002f08 <USB_HC_StartXfer+0x30>
 8002eec:	2d01      	cmp	r5, #1
 8002eee:	d168      	bne.n	8002fc2 <USB_HC_StartXfer+0xea>
 8002ef0:	79cb      	ldrb	r3, [r1, #7]
 8002ef2:	f013 0ffd 	tst.w	r3, #253	; 0xfd
 8002ef6:	d107      	bne.n	8002f08 <USB_HC_StartXfer+0x30>
 8002ef8:	eb00 1342 	add.w	r3, r0, r2, lsl #5
 8002efc:	f8d3 050c 	ldr.w	r0, [r3, #1292]	; 0x50c
 8002f00:	f020 0070 	bic.w	r0, r0, #112	; 0x70
 8002f04:	f8c3 050c 	str.w	r0, [r3, #1292]	; 0x50c
 8002f08:	694b      	ldr	r3, [r1, #20]
 8002f0a:	2b00      	cmp	r3, #0
 8002f0c:	d065      	beq.n	8002fda <USB_HC_StartXfer+0x102>
 8002f0e:	890e      	ldrh	r6, [r1, #8]
 8002f10:	1e58      	subs	r0, r3, #1
 8002f12:	4430      	add	r0, r6
 8002f14:	fbb0 f0f6 	udiv	r0, r0, r6
 8002f18:	b280      	uxth	r0, r0
 8002f1a:	f5b0 7f80 	cmp.w	r0, #256	; 0x100
 8002f1e:	bf28      	it	cs
 8002f20:	f44f 7080 	movcs.w	r0, #256	; 0x100
 8002f24:	78cf      	ldrb	r7, [r1, #3]
 8002f26:	2f00      	cmp	r7, #0
 8002f28:	d059      	beq.n	8002fde <USB_HC_StartXfer+0x106>
 8002f2a:	f8b1 8008 	ldrh.w	r8, [r1, #8]
 8002f2e:	fb00 f808 	mul.w	r8, r0, r8
 8002f32:	f891 c00a 	ldrb.w	ip, [r1, #10]
 8002f36:	f8c1 8010 	str.w	r8, [r1, #16]
 8002f3a:	ea4f 7c4c 	mov.w	ip, ip, lsl #29
 8002f3e:	f00c 4cc0 	and.w	ip, ip, #1610612736	; 0x60000000
 8002f42:	eb04 1642 	add.w	r6, r4, r2, lsl #5
 8002f46:	ea4c 40c0 	orr.w	r0, ip, r0, lsl #19
 8002f4a:	f3c8 0812 	ubfx	r8, r8, #0, #19
 8002f4e:	ea40 0008 	orr.w	r0, r0, r8
 8002f52:	f8c6 0510 	str.w	r0, [r6, #1296]	; 0x510
 8002f56:	b115      	cbz	r5, 8002f5e <USB_HC_StartXfer+0x86>
 8002f58:	68c8      	ldr	r0, [r1, #12]
 8002f5a:	f8c6 0514 	str.w	r0, [r6, #1300]	; 0x514
 8002f5e:	f8d4 0408 	ldr.w	r0, [r4, #1032]	; 0x408
 8002f62:	f8d6 e500 	ldr.w	lr, [r6, #1280]	; 0x500
 8002f66:	f02e 5e00 	bic.w	lr, lr, #536870912	; 0x20000000
 8002f6a:	f8c6 e500 	str.w	lr, [r6, #1280]	; 0x500
 8002f6e:	43c0      	mvns	r0, r0
 8002f70:	f8d6 e500 	ldr.w	lr, [r6, #1280]	; 0x500
 8002f74:	0740      	lsls	r0, r0, #29
 8002f76:	f000 5000 	and.w	r0, r0, #536870912	; 0x20000000
 8002f7a:	ea40 000e 	orr.w	r0, r0, lr
 8002f7e:	f8c6 0500 	str.w	r0, [r6, #1280]	; 0x500
 8002f82:	f8d6 0500 	ldr.w	r0, [r6, #1280]	; 0x500
 8002f86:	9003      	str	r0, [sp, #12]
 8002f88:	9803      	ldr	r0, [sp, #12]
 8002f8a:	f020 4080 	bic.w	r0, r0, #1073741824	; 0x40000000
 8002f8e:	9003      	str	r0, [sp, #12]
 8002f90:	f504 6c80 	add.w	ip, r4, #1024	; 0x400
 8002f94:	9803      	ldr	r0, [sp, #12]
 8002f96:	b327      	cbz	r7, 8002fe2 <USB_HC_StartXfer+0x10a>
 8002f98:	f440 4000 	orr.w	r0, r0, #32768	; 0x8000
 8002f9c:	9003      	str	r0, [sp, #12]
 8002f9e:	9803      	ldr	r0, [sp, #12]
 8002fa0:	f040 4000 	orr.w	r0, r0, #2147483648	; 0x80000000
 8002fa4:	9003      	str	r0, [sp, #12]
 8002fa6:	9803      	ldr	r0, [sp, #12]
 8002fa8:	f8c6 0500 	str.w	r0, [r6, #1280]	; 0x500
 8002fac:	ea57 0005 	orrs.w	r0, r7, r5
 8002fb0:	d10f      	bne.n	8002fd2 <USB_HC_StartXfer+0xfa>
 8002fb2:	b173      	cbz	r3, 8002fd2 <USB_HC_StartXfer+0xfa>
 8002fb4:	79c8      	ldrb	r0, [r1, #7]
 8002fb6:	2803      	cmp	r0, #3
 8002fb8:	d821      	bhi.n	8002ffe <USB_HC_StartXfer+0x126>
 8002fba:	e8df f000 	tbb	[pc, r0]
 8002fbe:	2815      	.short	0x2815
 8002fc0:	2815      	.short	0x2815
 8002fc2:	2d00      	cmp	r5, #0
 8002fc4:	d1a0      	bne.n	8002f08 <USB_HC_StartXfer+0x30>
 8002fc6:	794b      	ldrb	r3, [r1, #5]
 8002fc8:	2b01      	cmp	r3, #1
 8002fca:	d19d      	bne.n	8002f08 <USB_HC_StartXfer+0x30>
 8002fcc:	4611      	mov	r1, r2
 8002fce:	f7ff ff71 	bl	8002eb4 <USB_DoPing>
 8002fd2:	2000      	movs	r0, #0
 8002fd4:	b004      	add	sp, #16
 8002fd6:	e8bd 81f0 	ldmia.w	sp!, {r4, r5, r6, r7, r8, pc}
 8002fda:	2001      	movs	r0, #1
 8002fdc:	e7a2      	b.n	8002f24 <USB_HC_StartXfer+0x4c>
 8002fde:	4698      	mov	r8, r3
 8002fe0:	e7a7      	b.n	8002f32 <USB_HC_StartXfer+0x5a>
 8002fe2:	f420 4000 	bic.w	r0, r0, #32768	; 0x8000
 8002fe6:	e7d9      	b.n	8002f9c <USB_HC_StartXfer+0xc4>
 8002fe8:	6ae5      	ldr	r5, [r4, #44]	; 0x2c
 8002fea:	1cd8      	adds	r0, r3, #3
 8002fec:	b2ad      	uxth	r5, r5
 8002fee:	f3c0 008f 	ubfx	r0, r0, #2, #16
 8002ff2:	4285      	cmp	r5, r0
 8002ff4:	d203      	bcs.n	8002ffe <USB_HC_StartXfer+0x126>
 8002ff6:	69a0      	ldr	r0, [r4, #24]
 8002ff8:	f040 0020 	orr.w	r0, r0, #32
 8002ffc:	61a0      	str	r0, [r4, #24]
 8002ffe:	2000      	movs	r0, #0
 8003000:	9000      	str	r0, [sp, #0]
 8003002:	68c9      	ldr	r1, [r1, #12]
 8003004:	b29b      	uxth	r3, r3
 8003006:	4620      	mov	r0, r4
 8003008:	f7ff fd68 	bl	8002adc <USB_WritePacket>
 800300c:	e7e1      	b.n	8002fd2 <USB_HC_StartXfer+0xfa>
 800300e:	f8dc 5010 	ldr.w	r5, [ip, #16]
 8003012:	1cd8      	adds	r0, r3, #3
 8003014:	b2ad      	uxth	r5, r5
 8003016:	f3c0 008f 	ubfx	r0, r0, #2, #16
 800301a:	4285      	cmp	r5, r0
 800301c:	d2ef      	bcs.n	8002ffe <USB_HC_StartXfer+0x126>
 800301e:	69a0      	ldr	r0, [r4, #24]
 8003020:	f040 6080 	orr.w	r0, r0, #67108864	; 0x4000000
 8003024:	e7ea      	b.n	8002ffc <USB_HC_StartXfer+0x124>

08003026 <USB_StopHost>:
 8003026:	6883      	ldr	r3, [r0, #8]
 8003028:	f023 0301 	bic.w	r3, r3, #1
 800302c:	b510      	push	{r4, lr}
 800302e:	2110      	movs	r1, #16
 8003030:	4604      	mov	r4, r0
 8003032:	6083      	str	r3, [r0, #8]
 8003034:	f7ff fd24 	bl	8002a80 <USB_FlushTxFifo>
 8003038:	4620      	mov	r0, r4
 800303a:	f7ff fd39 	bl	8002ab0 <USB_FlushRxFifo>
 800303e:	f504 63a0 	add.w	r3, r4, #1280	; 0x500
 8003042:	f504 60e0 	add.w	r0, r4, #1792	; 0x700
 8003046:	4619      	mov	r1, r3
 8003048:	680a      	ldr	r2, [r1, #0]
 800304a:	f022 2280 	bic.w	r2, r2, #2147516416	; 0x80008000
 800304e:	f042 4280 	orr.w	r2, r2, #1073741824	; 0x40000000
 8003052:	f841 2b20 	str.w	r2, [r1], #32
 8003056:	4281      	cmp	r1, r0
 8003058:	d1f6      	bne.n	8003048 <USB_StopHost+0x22>
 800305a:	2100      	movs	r1, #0
 800305c:	681a      	ldr	r2, [r3, #0]
 800305e:	f422 4200 	bic.w	r2, r2, #32768	; 0x8000
 8003062:	f042 4240 	orr.w	r2, r2, #3221225472	; 0xc0000000
 8003066:	601a      	str	r2, [r3, #0]
 8003068:	3101      	adds	r1, #1
 800306a:	f5b1 7f7a 	cmp.w	r1, #1000	; 0x3e8
 800306e:	d802      	bhi.n	8003076 <USB_StopHost+0x50>
 8003070:	681a      	ldr	r2, [r3, #0]
 8003072:	2a00      	cmp	r2, #0
 8003074:	dbf8      	blt.n	8003068 <USB_StopHost+0x42>
 8003076:	3320      	adds	r3, #32
 8003078:	4283      	cmp	r3, r0
 800307a:	d1ef      	bne.n	800305c <USB_StopHost+0x36>
 800307c:	f04f 33ff 	mov.w	r3, #4294967295
 8003080:	f8c4 3414 	str.w	r3, [r4, #1044]	; 0x414
 8003084:	6163      	str	r3, [r4, #20]
 8003086:	68a3      	ldr	r3, [r4, #8]
 8003088:	f043 0301 	orr.w	r3, r3, #1
 800308c:	60a3      	str	r3, [r4, #8]
 800308e:	2000      	movs	r0, #0
 8003090:	bd10      	pop	{r4, pc}
	...

08003094 <MX_FATFS_Init>:
 8003094:	b508      	push	{r3, lr}
 8003096:	4903      	ldr	r1, [pc, #12]	; (80030a4 <MX_FATFS_Init+0x10>)
 8003098:	4803      	ldr	r0, [pc, #12]	; (80030a8 <MX_FATFS_Init+0x14>)
 800309a:	f002 fd31 	bl	8005b00 <FATFS_LinkDriver>
 800309e:	4b03      	ldr	r3, [pc, #12]	; (80030ac <MX_FATFS_Init+0x18>)
 80030a0:	7018      	strb	r0, [r3, #0]
 80030a2:	bd08      	pop	{r3, pc}
 80030a4:	2000181c 	.word	0x2000181c
 80030a8:	08007bec 	.word	0x08007bec
 80030ac:	20003884 	.word	0x20003884

080030b0 <get_fattime>:
 80030b0:	2000      	movs	r0, #0
 80030b2:	4770      	bx	lr

080030b4 <USBH_initialize>:
 80030b4:	2000      	movs	r0, #0
 80030b6:	4770      	bx	lr

080030b8 <USBH_status>:
 80030b8:	4601      	mov	r1, r0
 80030ba:	b508      	push	{r3, lr}
 80030bc:	4803      	ldr	r0, [pc, #12]	; (80030cc <USBH_status+0x14>)
 80030be:	f000 fa71 	bl	80035a4 <USBH_MSC_UnitIsReady>
 80030c2:	fab0 f080 	clz	r0, r0
 80030c6:	0940      	lsrs	r0, r0, #5
 80030c8:	bd08      	pop	{r3, pc}
 80030ca:	bf00      	nop
 80030cc:	20003888 	.word	0x20003888

080030d0 <USBH_read>:
 80030d0:	b510      	push	{r4, lr}
 80030d2:	b090      	sub	sp, #64	; 0x40
 80030d4:	4604      	mov	r4, r0
 80030d6:	9300      	str	r3, [sp, #0]
 80030d8:	460b      	mov	r3, r1
 80030da:	4601      	mov	r1, r0
 80030dc:	480b      	ldr	r0, [pc, #44]	; (800310c <USBH_read+0x3c>)
 80030de:	f000 fa8a 	bl	80035f6 <USBH_MSC_Read>
 80030e2:	b170      	cbz	r0, 8003102 <USBH_read+0x32>
 80030e4:	4809      	ldr	r0, [pc, #36]	; (800310c <USBH_read+0x3c>)
 80030e6:	aa03      	add	r2, sp, #12
 80030e8:	4621      	mov	r1, r4
 80030ea:	f000 fa6c 	bl	80035c6 <USBH_MSC_GetLUNInfo>
 80030ee:	f89d 3019 	ldrb.w	r3, [sp, #25]
 80030f2:	2b28      	cmp	r3, #40	; 0x28
 80030f4:	d007      	beq.n	8003106 <USBH_read+0x36>
 80030f6:	2b3a      	cmp	r3, #58	; 0x3a
 80030f8:	d005      	beq.n	8003106 <USBH_read+0x36>
 80030fa:	2b04      	cmp	r3, #4
 80030fc:	bf14      	ite	ne
 80030fe:	2001      	movne	r0, #1
 8003100:	2003      	moveq	r0, #3
 8003102:	b010      	add	sp, #64	; 0x40
 8003104:	bd10      	pop	{r4, pc}
 8003106:	2003      	movs	r0, #3
 8003108:	e7fb      	b.n	8003102 <USBH_read+0x32>
 800310a:	bf00      	nop
 800310c:	20003888 	.word	0x20003888

08003110 <USBH_ioctl>:
 8003110:	b510      	push	{r4, lr}
 8003112:	4603      	mov	r3, r0
 8003114:	b08e      	sub	sp, #56	; 0x38
 8003116:	4608      	mov	r0, r1
 8003118:	4614      	mov	r4, r2
 800311a:	2903      	cmp	r1, #3
 800311c:	d803      	bhi.n	8003126 <USBH_ioctl+0x16>
 800311e:	e8df f001 	tbb	[pc, r1]
 8003122:	0503      	.short	0x0503
 8003124:	1a10      	.short	0x1a10
 8003126:	2004      	movs	r0, #4
 8003128:	b00e      	add	sp, #56	; 0x38
 800312a:	bd10      	pop	{r4, pc}
 800312c:	480f      	ldr	r0, [pc, #60]	; (800316c <USBH_ioctl+0x5c>)
 800312e:	aa01      	add	r2, sp, #4
 8003130:	4619      	mov	r1, r3
 8003132:	f000 fa48 	bl	80035c6 <USBH_MSC_GetLUNInfo>
 8003136:	b108      	cbz	r0, 800313c <USBH_ioctl+0x2c>
 8003138:	2001      	movs	r0, #1
 800313a:	e7f5      	b.n	8003128 <USBH_ioctl+0x18>
 800313c:	9b02      	ldr	r3, [sp, #8]
 800313e:	6023      	str	r3, [r4, #0]
 8003140:	e7f2      	b.n	8003128 <USBH_ioctl+0x18>
 8003142:	480a      	ldr	r0, [pc, #40]	; (800316c <USBH_ioctl+0x5c>)
 8003144:	aa01      	add	r2, sp, #4
 8003146:	4619      	mov	r1, r3
 8003148:	f000 fa3d 	bl	80035c6 <USBH_MSC_GetLUNInfo>
 800314c:	2800      	cmp	r0, #0
 800314e:	d1f3      	bne.n	8003138 <USBH_ioctl+0x28>
 8003150:	f8bd 300c 	ldrh.w	r3, [sp, #12]
 8003154:	e7f3      	b.n	800313e <USBH_ioctl+0x2e>
 8003156:	4805      	ldr	r0, [pc, #20]	; (800316c <USBH_ioctl+0x5c>)
 8003158:	aa01      	add	r2, sp, #4
 800315a:	4619      	mov	r1, r3
 800315c:	f000 fa33 	bl	80035c6 <USBH_MSC_GetLUNInfo>
 8003160:	2800      	cmp	r0, #0
 8003162:	d1e9      	bne.n	8003138 <USBH_ioctl+0x28>
 8003164:	f8bd 300c 	ldrh.w	r3, [sp, #12]
 8003168:	0a5b      	lsrs	r3, r3, #9
 800316a:	e7e8      	b.n	800313e <USBH_ioctl+0x2e>
 800316c:	20003888 	.word	0x20003888

08003170 <USBH_write>:
 8003170:	b510      	push	{r4, lr}
 8003172:	b090      	sub	sp, #64	; 0x40
 8003174:	4604      	mov	r4, r0
 8003176:	9300      	str	r3, [sp, #0]
 8003178:	460b      	mov	r3, r1
 800317a:	4601      	mov	r1, r0
 800317c:	480d      	ldr	r0, [pc, #52]	; (80031b4 <USBH_write+0x44>)
 800317e:	f000 fa7d 	bl	800367c <USBH_MSC_Write>
 8003182:	b168      	cbz	r0, 80031a0 <USBH_write+0x30>
 8003184:	480b      	ldr	r0, [pc, #44]	; (80031b4 <USBH_write+0x44>)
 8003186:	aa03      	add	r2, sp, #12
 8003188:	4621      	mov	r1, r4
 800318a:	f000 fa1c 	bl	80035c6 <USBH_MSC_GetLUNInfo>
 800318e:	f89d 3019 	ldrb.w	r3, [sp, #25]
 8003192:	2b27      	cmp	r3, #39	; 0x27
 8003194:	d00a      	beq.n	80031ac <USBH_write+0x3c>
 8003196:	d805      	bhi.n	80031a4 <USBH_write+0x34>
 8003198:	2b04      	cmp	r3, #4
 800319a:	bf14      	ite	ne
 800319c:	2001      	movne	r0, #1
 800319e:	2003      	moveq	r0, #3
 80031a0:	b010      	add	sp, #64	; 0x40
 80031a2:	bd10      	pop	{r4, pc}
 80031a4:	2b28      	cmp	r3, #40	; 0x28
 80031a6:	d003      	beq.n	80031b0 <USBH_write+0x40>
 80031a8:	2b3a      	cmp	r3, #58	; 0x3a
 80031aa:	e7f6      	b.n	800319a <USBH_write+0x2a>
 80031ac:	2002      	movs	r0, #2
 80031ae:	e7f7      	b.n	80031a0 <USBH_write+0x30>
 80031b0:	2003      	movs	r0, #3
 80031b2:	e7f5      	b.n	80031a0 <USBH_write+0x30>
 80031b4:	20003888 	.word	0x20003888

080031b8 <USBH_MSC_SOFProcess>:
 80031b8:	2000      	movs	r0, #0
 80031ba:	4770      	bx	lr

080031bc <USBH_MSC_Process>:
 80031bc:	b570      	push	{r4, r5, r6, lr}
 80031be:	f8d0 337c 	ldr.w	r3, [r0, #892]	; 0x37c
 80031c2:	69dc      	ldr	r4, [r3, #28]
 80031c4:	7b23      	ldrb	r3, [r4, #12]
 80031c6:	4606      	mov	r6, r0
 80031c8:	b123      	cbz	r3, 80031d4 <USBH_MSC_Process+0x18>
 80031ca:	2b01      	cmp	r3, #1
 80031cc:	f000 80d1 	beq.w	8003372 <USBH_MSC_Process+0x1b6>
 80031d0:	2001      	movs	r0, #1
 80031d2:	bd70      	pop	{r4, r5, r6, pc}
 80031d4:	f8b4 10f8 	ldrh.w	r1, [r4, #248]	; 0xf8
 80031d8:	7822      	ldrb	r2, [r4, #0]
 80031da:	428a      	cmp	r2, r1
 80031dc:	f04f 0501 	mov.w	r5, #1
 80031e0:	f240 80bf 	bls.w	8003362 <USBH_MSC_Process+0x1a6>
 80031e4:	2234      	movs	r2, #52	; 0x34
 80031e6:	fb02 4301 	mla	r3, r2, r1, r4
 80031ea:	f883 5091 	strb.w	r5, [r3, #145]	; 0x91
 80031ee:	f893 3090 	ldrb.w	r3, [r3, #144]	; 0x90
 80031f2:	4615      	mov	r5, r2
 80031f4:	2b08      	cmp	r3, #8
 80031f6:	d8eb      	bhi.n	80031d0 <USBH_MSC_Process+0x14>
 80031f8:	a201      	add	r2, pc, #4	; (adr r2, 8003200 <USBH_MSC_Process+0x44>)
 80031fa:	f852 f023 	ldr.w	pc, [r2, r3, lsl #2]
 80031fe:	bf00      	nop
 8003200:	08003225 	.word	0x08003225
 8003204:	080031d1 	.word	0x080031d1
 8003208:	08003267 	.word	0x08003267
 800320c:	080032cd 	.word	0x080032cd
 8003210:	08003239 	.word	0x08003239
 8003214:	08003303 	.word	0x08003303
 8003218:	080031d1 	.word	0x080031d1
 800321c:	080031d1 	.word	0x080031d1
 8003220:	0800335b 	.word	0x0800335b
 8003224:	fb05 4101 	mla	r1, r5, r1, r4
 8003228:	2304      	movs	r3, #4
 800322a:	f881 3090 	strb.w	r3, [r1, #144]	; 0x90
 800322e:	f8d0 33c4 	ldr.w	r3, [r0, #964]	; 0x3c4
 8003232:	f8c4 30fc 	str.w	r3, [r4, #252]	; 0xfc
 8003236:	e7cb      	b.n	80031d0 <USBH_MSC_Process+0x14>
 8003238:	fb05 4201 	mla	r2, r5, r1, r4
 800323c:	329f      	adds	r2, #159	; 0x9f
 800323e:	b2c9      	uxtb	r1, r1
 8003240:	f000 fbc0 	bl	80039c4 <USBH_MSC_SCSI_Inquiry>
 8003244:	b938      	cbnz	r0, 8003256 <USBH_MSC_Process+0x9a>
 8003246:	f8b4 10f8 	ldrh.w	r1, [r4, #248]	; 0xf8
 800324a:	2302      	movs	r3, #2
 800324c:	fb05 4401 	mla	r4, r5, r1, r4
 8003250:	f884 3090 	strb.w	r3, [r4, #144]	; 0x90
 8003254:	e7bc      	b.n	80031d0 <USBH_MSC_Process+0x14>
 8003256:	2802      	cmp	r0, #2
 8003258:	d14b      	bne.n	80032f2 <USBH_MSC_Process+0x136>
 800325a:	f8b4 10f8 	ldrh.w	r1, [r4, #248]	; 0xf8
 800325e:	2305      	movs	r3, #5
 8003260:	fb05 4401 	mla	r4, r5, r1, r4
 8003264:	e7f4      	b.n	8003250 <USBH_MSC_Process+0x94>
 8003266:	b2c9      	uxtb	r1, r1
 8003268:	f000 fb54 	bl	8003914 <USBH_MSC_SCSI_TestUnitReady>
 800326c:	b988      	cbnz	r0, 8003292 <USBH_MSC_Process+0xd6>
 800326e:	f8b4 30f8 	ldrh.w	r3, [r4, #248]	; 0xf8
 8003272:	2234      	movs	r2, #52	; 0x34
 8003274:	fb02 4403 	mla	r4, r2, r3, r4
 8003278:	f894 3092 	ldrb.w	r3, [r4, #146]	; 0x92
 800327c:	3b00      	subs	r3, #0
 800327e:	bf18      	it	ne
 8003280:	2301      	movne	r3, #1
 8003282:	f884 30c1 	strb.w	r3, [r4, #193]	; 0xc1
 8003286:	2303      	movs	r3, #3
 8003288:	f8a4 3090 	strh.w	r3, [r4, #144]	; 0x90
 800328c:	f884 0092 	strb.w	r0, [r4, #146]	; 0x92
 8003290:	e79e      	b.n	80031d0 <USBH_MSC_Process+0x14>
 8003292:	2802      	cmp	r0, #2
 8003294:	d10e      	bne.n	80032b4 <USBH_MSC_Process+0xf8>
 8003296:	f8b4 30f8 	ldrh.w	r3, [r4, #248]	; 0xf8
 800329a:	2234      	movs	r2, #52	; 0x34
 800329c:	fb02 4403 	mla	r4, r2, r3, r4
 80032a0:	f894 3092 	ldrb.w	r3, [r4, #146]	; 0x92
 80032a4:	3b02      	subs	r3, #2
 80032a6:	bf18      	it	ne
 80032a8:	2301      	movne	r3, #1
 80032aa:	f884 30c1 	strb.w	r3, [r4, #193]	; 0xc1
 80032ae:	f240 1305 	movw	r3, #261	; 0x105
 80032b2:	e7e9      	b.n	8003288 <USBH_MSC_Process+0xcc>
 80032b4:	2804      	cmp	r0, #4
 80032b6:	d18b      	bne.n	80031d0 <USBH_MSC_Process+0x14>
 80032b8:	f8b4 30f8 	ldrh.w	r3, [r4, #248]	; 0xf8
 80032bc:	2234      	movs	r2, #52	; 0x34
 80032be:	fb02 4403 	mla	r4, r2, r3, r4
 80032c2:	f240 2301 	movw	r3, #513	; 0x201
 80032c6:	f8a4 3090 	strh.w	r3, [r4, #144]	; 0x90
 80032ca:	e781      	b.n	80031d0 <USBH_MSC_Process+0x14>
 80032cc:	fb05 4201 	mla	r2, r5, r1, r4
 80032d0:	3294      	adds	r2, #148	; 0x94
 80032d2:	b2c9      	uxtb	r1, r1
 80032d4:	f000 fb41 	bl	800395a <USBH_MSC_SCSI_ReadCapacity>
 80032d8:	2800      	cmp	r0, #0
 80032da:	d1bc      	bne.n	8003256 <USBH_MSC_Process+0x9a>
 80032dc:	f8b4 30f8 	ldrh.w	r3, [r4, #248]	; 0xf8
 80032e0:	fb05 4503 	mla	r5, r5, r3, r4
 80032e4:	2001      	movs	r0, #1
 80032e6:	f8a5 0090 	strh.w	r0, [r5, #144]	; 0x90
 80032ea:	4403      	add	r3, r0
 80032ec:	f8a4 30f8 	strh.w	r3, [r4, #248]	; 0xf8
 80032f0:	e76f      	b.n	80031d2 <USBH_MSC_Process+0x16>
 80032f2:	2804      	cmp	r0, #4
 80032f4:	f47f af6c 	bne.w	80031d0 <USBH_MSC_Process+0x14>
 80032f8:	f8b4 10f8 	ldrh.w	r1, [r4, #248]	; 0xf8
 80032fc:	fb05 4401 	mla	r4, r5, r1, r4
 8003300:	e7df      	b.n	80032c2 <USBH_MSC_Process+0x106>
 8003302:	fb05 4201 	mla	r2, r5, r1, r4
 8003306:	329c      	adds	r2, #156	; 0x9c
 8003308:	b2c9      	uxtb	r1, r1
 800330a:	f000 fbc1 	bl	8003a90 <USBH_MSC_SCSI_RequestSense>
 800330e:	b9e0      	cbnz	r0, 800334a <USBH_MSC_Process+0x18e>
 8003310:	f8b4 30f8 	ldrh.w	r3, [r4, #248]	; 0xf8
 8003314:	fb05 4503 	mla	r5, r5, r3, r4
 8003318:	f895 209c 	ldrb.w	r2, [r5, #156]	; 0x9c
 800331c:	f002 02fb 	and.w	r2, r2, #251	; 0xfb
 8003320:	2a02      	cmp	r2, #2
 8003322:	d10b      	bne.n	800333c <USBH_MSC_Process+0x180>
 8003324:	f8d4 10fc 	ldr.w	r1, [r4, #252]	; 0xfc
 8003328:	f8d6 03c4 	ldr.w	r0, [r6, #964]	; 0x3c4
 800332c:	1a40      	subs	r0, r0, r1
 800332e:	f242 710f 	movw	r1, #9999	; 0x270f
 8003332:	4288      	cmp	r0, r1
 8003334:	d802      	bhi.n	800333c <USBH_MSC_Process+0x180>
 8003336:	f885 2090 	strb.w	r2, [r5, #144]	; 0x90
 800333a:	e749      	b.n	80031d0 <USBH_MSC_Process+0x14>
 800333c:	2234      	movs	r2, #52	; 0x34
 800333e:	fb02 4203 	mla	r2, r2, r3, r4
 8003342:	2001      	movs	r0, #1
 8003344:	f882 0090 	strb.w	r0, [r2, #144]	; 0x90
 8003348:	e7cf      	b.n	80032ea <USBH_MSC_Process+0x12e>
 800334a:	2802      	cmp	r0, #2
 800334c:	d1d1      	bne.n	80032f2 <USBH_MSC_Process+0x136>
 800334e:	f8b4 10f8 	ldrh.w	r1, [r4, #248]	; 0xf8
 8003352:	2308      	movs	r3, #8
 8003354:	fb05 4401 	mla	r4, r5, r1, r4
 8003358:	e77a      	b.n	8003250 <USBH_MSC_Process+0x94>
 800335a:	3101      	adds	r1, #1
 800335c:	f8a4 10f8 	strh.w	r1, [r4, #248]	; 0xf8
 8003360:	e736      	b.n	80031d0 <USBH_MSC_Process+0x14>
 8003362:	7325      	strb	r5, [r4, #12]
 8003364:	f8a4 30f8 	strh.w	r3, [r4, #248]	; 0xf8
 8003368:	2102      	movs	r1, #2
 800336a:	f8d0 33d4 	ldr.w	r3, [r0, #980]	; 0x3d4
 800336e:	4798      	blx	r3
 8003370:	e72e      	b.n	80031d0 <USBH_MSC_Process+0x14>
 8003372:	2000      	movs	r0, #0
 8003374:	e72d      	b.n	80031d2 <USBH_MSC_Process+0x16>
 8003376:	bf00      	nop

08003378 <USBH_MSC_ClassRequest>:
 8003378:	b510      	push	{r4, lr}
 800337a:	f8d0 237c 	ldr.w	r2, [r0, #892]	; 0x37c
 800337e:	69d4      	ldr	r4, [r2, #28]
 8003380:	7ba2      	ldrb	r2, [r4, #14]
 8003382:	2a02      	cmp	r2, #2
 8003384:	4603      	mov	r3, r0
 8003386:	d002      	beq.n	800338e <USBH_MSC_ClassRequest+0x16>
 8003388:	2a03      	cmp	r2, #3
 800338a:	d021      	beq.n	80033d0 <USBH_MSC_ClassRequest+0x58>
 800338c:	bb32      	cbnz	r2, 80033dc <USBH_MSC_ClassRequest+0x64>
 800338e:	4621      	mov	r1, r4
 8003390:	4618      	mov	r0, r3
 8003392:	f000 f9be 	bl	8003712 <USBH_MSC_BOT_REQ_GetMaxLUN>
 8003396:	2803      	cmp	r0, #3
 8003398:	d117      	bne.n	80033ca <USBH_MSC_ClassRequest+0x52>
 800339a:	2300      	movs	r3, #0
 800339c:	7023      	strb	r3, [r4, #0]
 800339e:	7823      	ldrb	r3, [r4, #0]
 80033a0:	2b02      	cmp	r3, #2
 80033a2:	bf98      	it	ls
 80033a4:	3301      	addls	r3, #1
 80033a6:	f04f 0202 	mov.w	r2, #2
 80033aa:	bf94      	ite	ls
 80033ac:	b2db      	uxtbls	r3, r3
 80033ae:	4613      	movhi	r3, r2
 80033b0:	2000      	movs	r0, #0
 80033b2:	2b01      	cmp	r3, #1
 80033b4:	7023      	strb	r3, [r4, #0]
 80033b6:	f884 2092 	strb.w	r2, [r4, #146]	; 0x92
 80033ba:	f884 00c1 	strb.w	r0, [r4, #193]	; 0xc1
 80033be:	d006      	beq.n	80033ce <USBH_MSC_ClassRequest+0x56>
 80033c0:	f884 20c6 	strb.w	r2, [r4, #198]	; 0xc6
 80033c4:	f884 00f5 	strb.w	r0, [r4, #245]	; 0xf5
 80033c8:	e001      	b.n	80033ce <USBH_MSC_ClassRequest+0x56>
 80033ca:	2800      	cmp	r0, #0
 80033cc:	d0e7      	beq.n	800339e <USBH_MSC_ClassRequest+0x26>
 80033ce:	bd10      	pop	{r4, pc}
 80033d0:	2100      	movs	r1, #0
 80033d2:	f001 f8b9 	bl	8004548 <USBH_ClrFeature>
 80033d6:	b908      	cbnz	r0, 80033dc <USBH_MSC_ClassRequest+0x64>
 80033d8:	7be3      	ldrb	r3, [r4, #15]
 80033da:	73a3      	strb	r3, [r4, #14]
 80033dc:	2001      	movs	r0, #1
 80033de:	e7f6      	b.n	80033ce <USBH_MSC_ClassRequest+0x56>

080033e0 <USBH_MSC_InterfaceDeInit>:
 80033e0:	b538      	push	{r3, r4, r5, lr}
 80033e2:	f8d0 337c 	ldr.w	r3, [r0, #892]	; 0x37c
 80033e6:	69dd      	ldr	r5, [r3, #28]
 80033e8:	7969      	ldrb	r1, [r5, #5]
 80033ea:	4604      	mov	r4, r0
 80033ec:	b139      	cbz	r1, 80033fe <USBH_MSC_InterfaceDeInit+0x1e>
 80033ee:	f001 f925 	bl	800463c <USBH_ClosePipe>
 80033f2:	7969      	ldrb	r1, [r5, #5]
 80033f4:	4620      	mov	r0, r4
 80033f6:	f001 f93e 	bl	8004676 <USBH_FreePipe>
 80033fa:	2300      	movs	r3, #0
 80033fc:	716b      	strb	r3, [r5, #5]
 80033fe:	7929      	ldrb	r1, [r5, #4]
 8003400:	b141      	cbz	r1, 8003414 <USBH_MSC_InterfaceDeInit+0x34>
 8003402:	4620      	mov	r0, r4
 8003404:	f001 f91a 	bl	800463c <USBH_ClosePipe>
 8003408:	7929      	ldrb	r1, [r5, #4]
 800340a:	4620      	mov	r0, r4
 800340c:	f001 f933 	bl	8004676 <USBH_FreePipe>
 8003410:	2300      	movs	r3, #0
 8003412:	712b      	strb	r3, [r5, #4]
 8003414:	f8d4 337c 	ldr.w	r3, [r4, #892]	; 0x37c
 8003418:	69d8      	ldr	r0, [r3, #28]
 800341a:	b128      	cbz	r0, 8003428 <USBH_MSC_InterfaceDeInit+0x48>
 800341c:	f002 fd16 	bl	8005e4c <free>
 8003420:	f8d4 337c 	ldr.w	r3, [r4, #892]	; 0x37c
 8003424:	2200      	movs	r2, #0
 8003426:	61da      	str	r2, [r3, #28]
 8003428:	2000      	movs	r0, #0
 800342a:	bd38      	pop	{r3, r4, r5, pc}

0800342c <USBH_MSC_InterfaceInit>:
 800342c:	e92d 41ff 	stmdb	sp!, {r0, r1, r2, r3, r4, r5, r6, r7, r8, lr}
 8003430:	f8d0 137c 	ldr.w	r1, [r0, #892]	; 0x37c
 8003434:	2350      	movs	r3, #80	; 0x50
 8003436:	7909      	ldrb	r1, [r1, #4]
 8003438:	2206      	movs	r2, #6
 800343a:	4605      	mov	r5, r0
 800343c:	f000 fc43 	bl	8003cc6 <USBH_FindInterface>
 8003440:	2801      	cmp	r0, #1
 8003442:	4606      	mov	r6, r0
 8003444:	d904      	bls.n	8003450 <USBH_MSC_InterfaceInit+0x24>
 8003446:	2702      	movs	r7, #2
 8003448:	4638      	mov	r0, r7
 800344a:	b004      	add	sp, #16
 800344c:	e8bd 81f0 	ldmia.w	sp!, {r4, r5, r6, r7, r8, pc}
 8003450:	4601      	mov	r1, r0
 8003452:	4628      	mov	r0, r5
 8003454:	f000 fc2e 	bl	8003cb4 <USBH_SelectInterface>
 8003458:	4607      	mov	r7, r0
 800345a:	2800      	cmp	r0, #0
 800345c:	d1f3      	bne.n	8003446 <USBH_MSC_InterfaceInit+0x1a>
 800345e:	f44f 7080 	mov.w	r0, #256	; 0x100
 8003462:	f8d5 837c 	ldr.w	r8, [r5, #892]	; 0x37c
 8003466:	f002 fce9 	bl	8005e3c <malloc>
 800346a:	4604      	mov	r4, r0
 800346c:	f8c8 001c 	str.w	r0, [r8, #28]
 8003470:	2800      	cmp	r0, #0
 8003472:	d0e8      	beq.n	8003446 <USBH_MSC_InterfaceInit+0x1a>
 8003474:	4639      	mov	r1, r7
 8003476:	f44f 7280 	mov.w	r2, #256	; 0x100
 800347a:	f002 fcfd 	bl	8005e78 <memset>
 800347e:	201a      	movs	r0, #26
 8003480:	fb00 5306 	mla	r3, r0, r6, r5
 8003484:	fb00 5606 	mla	r6, r0, r6, r5
 8003488:	f893 134e 	ldrb.w	r1, [r3, #846]	; 0x34e
 800348c:	f8b3 2350 	ldrh.w	r2, [r3, #848]	; 0x350
 8003490:	f993 334e 	ldrsb.w	r3, [r3, #846]	; 0x34e
 8003494:	2b00      	cmp	r3, #0
 8003496:	bfac      	ite	ge
 8003498:	71a1      	strbge	r1, [r4, #6]
 800349a:	71e1      	strblt	r1, [r4, #7]
 800349c:	f996 1356 	ldrsb.w	r1, [r6, #854]	; 0x356
 80034a0:	bfb4      	ite	lt
 80034a2:	8162      	strhlt	r2, [r4, #10]
 80034a4:	8122      	strhge	r2, [r4, #8]
 80034a6:	2900      	cmp	r1, #0
 80034a8:	f896 2356 	ldrb.w	r2, [r6, #854]	; 0x356
 80034ac:	bfa8      	it	ge
 80034ae:	71a2      	strbge	r2, [r4, #6]
 80034b0:	f8b6 3358 	ldrh.w	r3, [r6, #856]	; 0x358
 80034b4:	79a1      	ldrb	r1, [r4, #6]
 80034b6:	bfb8      	it	lt
 80034b8:	71e2      	strblt	r2, [r4, #7]
 80034ba:	f04f 0600 	mov.w	r6, #0
 80034be:	4628      	mov	r0, r5
 80034c0:	bfb4      	ite	lt
 80034c2:	8163      	strhlt	r3, [r4, #10]
 80034c4:	8123      	strhge	r3, [r4, #8]
 80034c6:	81a6      	strh	r6, [r4, #12]
 80034c8:	73a6      	strb	r6, [r4, #14]
 80034ca:	f001 f8bc 	bl	8004646 <USBH_AllocPipe>
 80034ce:	79e1      	ldrb	r1, [r4, #7]
 80034d0:	7160      	strb	r0, [r4, #5]
 80034d2:	4628      	mov	r0, r5
 80034d4:	f001 f8b7 	bl	8004646 <USBH_AllocPipe>
 80034d8:	7120      	strb	r0, [r4, #4]
 80034da:	4628      	mov	r0, r5
 80034dc:	f000 f922 	bl	8003724 <USBH_MSC_BOT_Init>
 80034e0:	8923      	ldrh	r3, [r4, #8]
 80034e2:	9302      	str	r3, [sp, #8]
 80034e4:	f04f 0802 	mov.w	r8, #2
 80034e8:	f895 331d 	ldrb.w	r3, [r5, #797]	; 0x31d
 80034ec:	79a2      	ldrb	r2, [r4, #6]
 80034ee:	7961      	ldrb	r1, [r4, #5]
 80034f0:	9300      	str	r3, [sp, #0]
 80034f2:	f8cd 8004 	str.w	r8, [sp, #4]
 80034f6:	f895 331c 	ldrb.w	r3, [r5, #796]	; 0x31c
 80034fa:	4628      	mov	r0, r5
 80034fc:	f001 f88f 	bl	800461e <USBH_OpenPipe>
 8003500:	8963      	ldrh	r3, [r4, #10]
 8003502:	79e2      	ldrb	r2, [r4, #7]
 8003504:	7921      	ldrb	r1, [r4, #4]
 8003506:	e9cd 8301 	strd	r8, r3, [sp, #4]
 800350a:	f895 331d 	ldrb.w	r3, [r5, #797]	; 0x31d
 800350e:	9300      	str	r3, [sp, #0]
 8003510:	4628      	mov	r0, r5
 8003512:	f895 331c 	ldrb.w	r3, [r5, #796]	; 0x31c
 8003516:	f001 f882 	bl	800461e <USBH_OpenPipe>
 800351a:	7921      	ldrb	r1, [r4, #4]
 800351c:	4632      	mov	r2, r6
 800351e:	4628      	mov	r0, r5
 8003520:	f002 fc39 	bl	8005d96 <USBH_LL_SetToggle>
 8003524:	7961      	ldrb	r1, [r4, #5]
 8003526:	4632      	mov	r2, r6
 8003528:	4628      	mov	r0, r5
 800352a:	f002 fc34 	bl	8005d96 <USBH_LL_SetToggle>
 800352e:	e78b      	b.n	8003448 <USBH_MSC_InterfaceInit+0x1c>

08003530 <USBH_MSC_RdWrProcess>:
 8003530:	f8d0 337c 	ldr.w	r3, [r0, #892]	; 0x37c
 8003534:	b573      	push	{r0, r1, r4, r5, r6, lr}
 8003536:	69dd      	ldr	r5, [r3, #28]
 8003538:	2634      	movs	r6, #52	; 0x34
 800353a:	fb06 5401 	mla	r4, r6, r1, r5
 800353e:	f894 3090 	ldrb.w	r3, [r4, #144]	; 0x90
 8003542:	2b06      	cmp	r3, #6
 8003544:	d005      	beq.n	8003552 <USBH_MSC_RdWrProcess+0x22>
 8003546:	2b07      	cmp	r3, #7
 8003548:	d00e      	beq.n	8003568 <USBH_MSC_RdWrProcess+0x38>
 800354a:	2b05      	cmp	r3, #5
 800354c:	d018      	beq.n	8003580 <USBH_MSC_RdWrProcess+0x50>
 800354e:	2001      	movs	r0, #1
 8003550:	e008      	b.n	8003564 <USBH_MSC_RdWrProcess+0x34>
 8003552:	2300      	movs	r3, #0
 8003554:	9300      	str	r3, [sp, #0]
 8003556:	461a      	mov	r2, r3
 8003558:	f000 fb21 	bl	8003b9e <USBH_MSC_SCSI_Read>
 800355c:	b950      	cbnz	r0, 8003574 <USBH_MSC_RdWrProcess+0x44>
 800355e:	2301      	movs	r3, #1
 8003560:	f884 3090 	strb.w	r3, [r4, #144]	; 0x90
 8003564:	b002      	add	sp, #8
 8003566:	bd70      	pop	{r4, r5, r6, pc}
 8003568:	2300      	movs	r3, #0
 800356a:	9300      	str	r3, [sp, #0]
 800356c:	461a      	mov	r2, r3
 800356e:	f000 fad7 	bl	8003b20 <USBH_MSC_SCSI_Write>
 8003572:	e7f3      	b.n	800355c <USBH_MSC_RdWrProcess+0x2c>
 8003574:	2802      	cmp	r0, #2
 8003576:	d10f      	bne.n	8003598 <USBH_MSC_RdWrProcess+0x68>
 8003578:	2305      	movs	r3, #5
 800357a:	f884 3090 	strb.w	r3, [r4, #144]	; 0x90
 800357e:	e7e6      	b.n	800354e <USBH_MSC_RdWrProcess+0x1e>
 8003580:	fb06 5201 	mla	r2, r6, r1, r5
 8003584:	329c      	adds	r2, #156	; 0x9c
 8003586:	f000 fa83 	bl	8003a90 <USBH_MSC_SCSI_RequestSense>
 800358a:	b928      	cbnz	r0, 8003598 <USBH_MSC_RdWrProcess+0x68>
 800358c:	f240 2301 	movw	r3, #513	; 0x201
 8003590:	f8a4 3090 	strh.w	r3, [r4, #144]	; 0x90
 8003594:	2002      	movs	r0, #2
 8003596:	e7e5      	b.n	8003564 <USBH_MSC_RdWrProcess+0x34>
 8003598:	2804      	cmp	r0, #4
 800359a:	d1d8      	bne.n	800354e <USBH_MSC_RdWrProcess+0x1e>
 800359c:	2308      	movs	r3, #8
 800359e:	f884 3090 	strb.w	r3, [r4, #144]	; 0x90
 80035a2:	e7f7      	b.n	8003594 <USBH_MSC_RdWrProcess+0x64>

080035a4 <USBH_MSC_UnitIsReady>:
 80035a4:	7803      	ldrb	r3, [r0, #0]
 80035a6:	2b0b      	cmp	r3, #11
 80035a8:	bf01      	itttt	eq
 80035aa:	f8d0 337c 	ldreq.w	r3, [r0, #892]	; 0x37c
 80035ae:	69db      	ldreq	r3, [r3, #28]
 80035b0:	2234      	moveq	r2, #52	; 0x34
 80035b2:	fb02 3101 	mlaeq	r1, r2, r1, r3
 80035b6:	bf03      	ittte	eq
 80035b8:	f891 0091 	ldrbeq.w	r0, [r1, #145]	; 0x91
 80035bc:	fab0 f080 	clzeq	r0, r0
 80035c0:	0940      	lsreq	r0, r0, #5
 80035c2:	2000      	movne	r0, #0
 80035c4:	4770      	bx	lr

080035c6 <USBH_MSC_GetLUNInfo>:
 80035c6:	b510      	push	{r4, lr}
 80035c8:	7803      	ldrb	r3, [r0, #0]
 80035ca:	2b0b      	cmp	r3, #11
 80035cc:	d111      	bne.n	80035f2 <USBH_MSC_GetLUNInfo+0x2c>
 80035ce:	f8d0 037c 	ldr.w	r0, [r0, #892]	; 0x37c
 80035d2:	2334      	movs	r3, #52	; 0x34
 80035d4:	2490      	movs	r4, #144	; 0x90
 80035d6:	fb13 4101 	smlabb	r1, r3, r1, r4
 80035da:	69c3      	ldr	r3, [r0, #28]
 80035dc:	4419      	add	r1, r3
 80035de:	f101 0334 	add.w	r3, r1, #52	; 0x34
 80035e2:	f851 0b04 	ldr.w	r0, [r1], #4
 80035e6:	f842 0b04 	str.w	r0, [r2], #4
 80035ea:	4299      	cmp	r1, r3
 80035ec:	d1f9      	bne.n	80035e2 <USBH_MSC_GetLUNInfo+0x1c>
 80035ee:	2000      	movs	r0, #0
 80035f0:	bd10      	pop	{r4, pc}
 80035f2:	2002      	movs	r0, #2
 80035f4:	e7fc      	b.n	80035f0 <USBH_MSC_GetLUNInfo+0x2a>

080035f6 <USBH_MSC_Read>:
 80035f6:	e92d 43f7 	stmdb	sp!, {r0, r1, r2, r4, r5, r6, r7, r8, r9, lr}
 80035fa:	f890 5320 	ldrb.w	r5, [r0, #800]	; 0x320
 80035fe:	f8dd 8028 	ldr.w	r8, [sp, #40]	; 0x28
 8003602:	4604      	mov	r4, r0
 8003604:	460e      	mov	r6, r1
 8003606:	b3bd      	cbz	r5, 8003678 <USBH_MSC_Read+0x82>
 8003608:	7805      	ldrb	r5, [r0, #0]
 800360a:	2d0b      	cmp	r5, #11
 800360c:	d134      	bne.n	8003678 <USBH_MSC_Read+0x82>
 800360e:	f8d0 537c 	ldr.w	r5, [r0, #892]	; 0x37c
 8003612:	69ed      	ldr	r5, [r5, #28]
 8003614:	2734      	movs	r7, #52	; 0x34
 8003616:	fb07 5701 	mla	r7, r7, r1, r5
 800361a:	f897 c090 	ldrb.w	ip, [r7, #144]	; 0x90
 800361e:	f1bc 0f01 	cmp.w	ip, #1
 8003622:	d129      	bne.n	8003678 <USBH_MSC_Read+0x82>
 8003624:	f04f 0c06 	mov.w	ip, #6
 8003628:	f885 c00c 	strb.w	ip, [r5, #12]
 800362c:	f887 c090 	strb.w	ip, [r7, #144]	; 0x90
 8003630:	f8a5 10fa 	strh.w	r1, [r5, #250]	; 0xfa
 8003634:	f8cd 8000 	str.w	r8, [sp]
 8003638:	f000 fab1 	bl	8003b9e <USBH_MSC_SCSI_Read>
 800363c:	f242 7710 	movw	r7, #10000	; 0x2710
 8003640:	f8d4 93c4 	ldr.w	r9, [r4, #964]	; 0x3c4
 8003644:	fb07 f708 	mul.w	r7, r7, r8
 8003648:	4631      	mov	r1, r6
 800364a:	4620      	mov	r0, r4
 800364c:	f7ff ff70 	bl	8003530 <USBH_MSC_RdWrProcess>
 8003650:	2801      	cmp	r0, #1
 8003652:	d005      	beq.n	8003660 <USBH_MSC_Read+0x6a>
 8003654:	2301      	movs	r3, #1
 8003656:	732b      	strb	r3, [r5, #12]
 8003658:	2000      	movs	r0, #0
 800365a:	b003      	add	sp, #12
 800365c:	e8bd 83f0 	ldmia.w	sp!, {r4, r5, r6, r7, r8, r9, pc}
 8003660:	f8d4 33c4 	ldr.w	r3, [r4, #964]	; 0x3c4
 8003664:	eba3 0309 	sub.w	r3, r3, r9
 8003668:	42bb      	cmp	r3, r7
 800366a:	d803      	bhi.n	8003674 <USBH_MSC_Read+0x7e>
 800366c:	f894 3320 	ldrb.w	r3, [r4, #800]	; 0x320
 8003670:	2b00      	cmp	r3, #0
 8003672:	d1e9      	bne.n	8003648 <USBH_MSC_Read+0x52>
 8003674:	2301      	movs	r3, #1
 8003676:	732b      	strb	r3, [r5, #12]
 8003678:	2002      	movs	r0, #2
 800367a:	e7ee      	b.n	800365a <USBH_MSC_Read+0x64>

0800367c <USBH_MSC_Write>:
 800367c:	e92d 43f7 	stmdb	sp!, {r0, r1, r2, r4, r5, r6, r7, r8, r9, lr}
 8003680:	f890 5320 	ldrb.w	r5, [r0, #800]	; 0x320
 8003684:	f8dd 8028 	ldr.w	r8, [sp, #40]	; 0x28
 8003688:	4604      	mov	r4, r0
 800368a:	460e      	mov	r6, r1
 800368c:	b3bd      	cbz	r5, 80036fe <USBH_MSC_Write+0x82>
 800368e:	7805      	ldrb	r5, [r0, #0]
 8003690:	2d0b      	cmp	r5, #11
 8003692:	d134      	bne.n	80036fe <USBH_MSC_Write+0x82>
 8003694:	f8d0 537c 	ldr.w	r5, [r0, #892]	; 0x37c
 8003698:	69ed      	ldr	r5, [r5, #28]
 800369a:	2734      	movs	r7, #52	; 0x34
 800369c:	fb07 5701 	mla	r7, r7, r1, r5
 80036a0:	f897 c090 	ldrb.w	ip, [r7, #144]	; 0x90
 80036a4:	f1bc 0f01 	cmp.w	ip, #1
 80036a8:	d129      	bne.n	80036fe <USBH_MSC_Write+0x82>
 80036aa:	f04f 0c07 	mov.w	ip, #7
 80036ae:	f885 c00c 	strb.w	ip, [r5, #12]
 80036b2:	f887 c090 	strb.w	ip, [r7, #144]	; 0x90
 80036b6:	f8a5 10fa 	strh.w	r1, [r5, #250]	; 0xfa
 80036ba:	f8cd 8000 	str.w	r8, [sp]
 80036be:	f000 fa2f 	bl	8003b20 <USBH_MSC_SCSI_Write>
 80036c2:	f242 7710 	movw	r7, #10000	; 0x2710
 80036c6:	f8d4 93c4 	ldr.w	r9, [r4, #964]	; 0x3c4
 80036ca:	fb07 f708 	mul.w	r7, r7, r8
 80036ce:	4631      	mov	r1, r6
 80036d0:	4620      	mov	r0, r4
 80036d2:	f7ff ff2d 	bl	8003530 <USBH_MSC_RdWrProcess>
 80036d6:	2801      	cmp	r0, #1
 80036d8:	d005      	beq.n	80036e6 <USBH_MSC_Write+0x6a>
 80036da:	2301      	movs	r3, #1
 80036dc:	732b      	strb	r3, [r5, #12]
 80036de:	2000      	movs	r0, #0
 80036e0:	b003      	add	sp, #12
 80036e2:	e8bd 83f0 	ldmia.w	sp!, {r4, r5, r6, r7, r8, r9, pc}
 80036e6:	f8d4 33c4 	ldr.w	r3, [r4, #964]	; 0x3c4
 80036ea:	eba3 0309 	sub.w	r3, r3, r9
 80036ee:	42bb      	cmp	r3, r7
 80036f0:	d803      	bhi.n	80036fa <USBH_MSC_Write+0x7e>
 80036f2:	f894 3320 	ldrb.w	r3, [r4, #800]	; 0x320
 80036f6:	2b00      	cmp	r3, #0
 80036f8:	d1e9      	bne.n	80036ce <USBH_MSC_Write+0x52>
 80036fa:	2301      	movs	r3, #1
 80036fc:	732b      	strb	r3, [r5, #12]
 80036fe:	2002      	movs	r0, #2
 8003700:	e7ee      	b.n	80036e0 <USBH_MSC_Write+0x64>

08003702 <USBH_MSC_BOT_REQ_Reset>:
 8003702:	f64f 7121 	movw	r1, #65313	; 0xff21
 8003706:	2200      	movs	r2, #0
 8003708:	e9c0 1204 	strd	r1, r2, [r0, #16]
 800370c:	4611      	mov	r1, r2
 800370e:	f000 bd21 	b.w	8004154 <USBH_CtlReq>

08003712 <USBH_MSC_BOT_REQ_GetMaxLUN>:
 8003712:	f44f 3280 	mov.w	r2, #65536	; 0x10000
 8003716:	f64f 6ca1 	movw	ip, #65185	; 0xfea1
 800371a:	e9c0 c204 	strd	ip, r2, [r0, #16]
 800371e:	2201      	movs	r2, #1
 8003720:	f000 bd18 	b.w	8004154 <USBH_CtlReq>

08003724 <USBH_MSC_BOT_Init>:
 8003724:	f8d0 337c 	ldr.w	r3, [r0, #892]	; 0x37c
 8003728:	4905      	ldr	r1, [pc, #20]	; (8003740 <USBH_MSC_BOT_Init+0x1c>)
 800372a:	69db      	ldr	r3, [r3, #28]
 800372c:	4a05      	ldr	r2, [pc, #20]	; (8003744 <USBH_MSC_BOT_Init+0x20>)
 800372e:	e9c3 1215 	strd	r1, r2, [r3, #84]	; 0x54
 8003732:	2201      	movs	r2, #1
 8003734:	f883 2050 	strb.w	r2, [r3, #80]	; 0x50
 8003738:	f883 2052 	strb.w	r2, [r3, #82]	; 0x52
 800373c:	2000      	movs	r0, #0
 800373e:	4770      	bx	lr
 8003740:	43425355 	.word	0x43425355
 8003744:	20304050 	.word	0x20304050

08003748 <USBH_MSC_BOT_Process>:
 8003748:	b573      	push	{r0, r1, r4, r5, r6, lr}
 800374a:	f8d0 337c 	ldr.w	r3, [r0, #892]	; 0x37c
 800374e:	69dc      	ldr	r4, [r3, #28]
 8003750:	f894 5050 	ldrb.w	r5, [r4, #80]	; 0x50
 8003754:	1e6b      	subs	r3, r5, #1
 8003756:	4606      	mov	r6, r0
 8003758:	2b0a      	cmp	r3, #10
 800375a:	d82c      	bhi.n	80037b6 <USBH_MSC_BOT_Process+0x6e>
 800375c:	e8df f003 	tbb	[pc, r3]
 8003760:	372f1506 	.word	0x372f1506
 8003764:	89815e54 	.word	0x89815e54
 8003768:	b6ab      	.short	0xb6ab
 800376a:	ce          	.byte	0xce
 800376b:	00          	.byte	0x00
 800376c:	2302      	movs	r3, #2
 800376e:	2201      	movs	r2, #1
 8003770:	f884 1061 	strb.w	r1, [r4, #97]	; 0x61
 8003774:	f884 3050 	strb.w	r3, [r4, #80]	; 0x50
 8003778:	f104 0154 	add.w	r1, r4, #84	; 0x54
 800377c:	7963      	ldrb	r3, [r4, #5]
 800377e:	9200      	str	r2, [sp, #0]
 8003780:	221f      	movs	r2, #31
 8003782:	4630      	mov	r0, r6
 8003784:	f000 ff24 	bl	80045d0 <USBH_BulkSendData>
 8003788:	e016      	b.n	80037b8 <USBH_MSC_BOT_Process+0x70>
 800378a:	7961      	ldrb	r1, [r4, #5]
 800378c:	f002 faf2 	bl	8005d74 <USBH_LL_GetURBState>
 8003790:	2801      	cmp	r0, #1
 8003792:	4605      	mov	r5, r0
 8003794:	d10a      	bne.n	80037ac <USBH_MSC_BOT_Process+0x64>
 8003796:	6de3      	ldr	r3, [r4, #92]	; 0x5c
 8003798:	b35b      	cbz	r3, 80037f2 <USBH_MSC_BOT_Process+0xaa>
 800379a:	f994 3060 	ldrsb.w	r3, [r4, #96]	; 0x60
 800379e:	2b00      	cmp	r3, #0
 80037a0:	bfb4      	ite	lt
 80037a2:	2303      	movlt	r3, #3
 80037a4:	2305      	movge	r3, #5
 80037a6:	f884 3050 	strb.w	r3, [r4, #80]	; 0x50
 80037aa:	e005      	b.n	80037b8 <USBH_MSC_BOT_Process+0x70>
 80037ac:	2802      	cmp	r0, #2
 80037ae:	d152      	bne.n	8003856 <USBH_MSC_BOT_Process+0x10e>
 80037b0:	2001      	movs	r0, #1
 80037b2:	f884 0050 	strb.w	r0, [r4, #80]	; 0x50
 80037b6:	2501      	movs	r5, #1
 80037b8:	4628      	mov	r0, r5
 80037ba:	b002      	add	sp, #8
 80037bc:	bd70      	pop	{r4, r5, r6, pc}
 80037be:	7923      	ldrb	r3, [r4, #4]
 80037c0:	8962      	ldrh	r2, [r4, #10]
 80037c2:	f8d4 108c 	ldr.w	r1, [r4, #140]	; 0x8c
 80037c6:	f000 ff1a 	bl	80045fe <USBH_BulkReceiveData>
 80037ca:	2304      	movs	r3, #4
 80037cc:	e046      	b.n	800385c <USBH_MSC_BOT_Process+0x114>
 80037ce:	7921      	ldrb	r1, [r4, #4]
 80037d0:	f002 fad0 	bl	8005d74 <USBH_LL_GetURBState>
 80037d4:	2801      	cmp	r0, #1
 80037d6:	4605      	mov	r5, r0
 80037d8:	d112      	bne.n	8003800 <USBH_MSC_BOT_Process+0xb8>
 80037da:	6de3      	ldr	r3, [r4, #92]	; 0x5c
 80037dc:	8962      	ldrh	r2, [r4, #10]
 80037de:	4293      	cmp	r3, r2
 80037e0:	d932      	bls.n	8003848 <USBH_MSC_BOT_Process+0x100>
 80037e2:	f8d4 108c 	ldr.w	r1, [r4, #140]	; 0x8c
 80037e6:	1a9b      	subs	r3, r3, r2
 80037e8:	4411      	add	r1, r2
 80037ea:	f8c4 108c 	str.w	r1, [r4, #140]	; 0x8c
 80037ee:	65e3      	str	r3, [r4, #92]	; 0x5c
 80037f0:	b90b      	cbnz	r3, 80037f6 <USBH_MSC_BOT_Process+0xae>
 80037f2:	2307      	movs	r3, #7
 80037f4:	e7d7      	b.n	80037a6 <USBH_MSC_BOT_Process+0x5e>
 80037f6:	7923      	ldrb	r3, [r4, #4]
 80037f8:	4630      	mov	r0, r6
 80037fa:	f000 ff00 	bl	80045fe <USBH_BulkReceiveData>
 80037fe:	e7db      	b.n	80037b8 <USBH_MSC_BOT_Process+0x70>
 8003800:	2805      	cmp	r0, #5
 8003802:	d1d8      	bne.n	80037b6 <USBH_MSC_BOT_Process+0x6e>
 8003804:	2309      	movs	r3, #9
 8003806:	e029      	b.n	800385c <USBH_MSC_BOT_Process+0x114>
 8003808:	2501      	movs	r5, #1
 800380a:	7963      	ldrb	r3, [r4, #5]
 800380c:	8922      	ldrh	r2, [r4, #8]
 800380e:	9500      	str	r5, [sp, #0]
 8003810:	f8d4 108c 	ldr.w	r1, [r4, #140]	; 0x8c
 8003814:	f000 fedc 	bl	80045d0 <USBH_BulkSendData>
 8003818:	2306      	movs	r3, #6
 800381a:	e7c4      	b.n	80037a6 <USBH_MSC_BOT_Process+0x5e>
 800381c:	7961      	ldrb	r1, [r4, #5]
 800381e:	f002 faa9 	bl	8005d74 <USBH_LL_GetURBState>
 8003822:	2801      	cmp	r0, #1
 8003824:	4605      	mov	r5, r0
 8003826:	d112      	bne.n	800384e <USBH_MSC_BOT_Process+0x106>
 8003828:	6de3      	ldr	r3, [r4, #92]	; 0x5c
 800382a:	8922      	ldrh	r2, [r4, #8]
 800382c:	4293      	cmp	r3, r2
 800382e:	d90b      	bls.n	8003848 <USBH_MSC_BOT_Process+0x100>
 8003830:	f8d4 108c 	ldr.w	r1, [r4, #140]	; 0x8c
 8003834:	1a9b      	subs	r3, r3, r2
 8003836:	4411      	add	r1, r2
 8003838:	f8c4 108c 	str.w	r1, [r4, #140]	; 0x8c
 800383c:	65e3      	str	r3, [r4, #92]	; 0x5c
 800383e:	2b00      	cmp	r3, #0
 8003840:	d0d7      	beq.n	80037f2 <USBH_MSC_BOT_Process+0xaa>
 8003842:	7963      	ldrb	r3, [r4, #5]
 8003844:	9000      	str	r0, [sp, #0]
 8003846:	e79c      	b.n	8003782 <USBH_MSC_BOT_Process+0x3a>
 8003848:	2300      	movs	r3, #0
 800384a:	65e3      	str	r3, [r4, #92]	; 0x5c
 800384c:	e7d1      	b.n	80037f2 <USBH_MSC_BOT_Process+0xaa>
 800384e:	2802      	cmp	r0, #2
 8003850:	d101      	bne.n	8003856 <USBH_MSC_BOT_Process+0x10e>
 8003852:	2305      	movs	r3, #5
 8003854:	e002      	b.n	800385c <USBH_MSC_BOT_Process+0x114>
 8003856:	2d05      	cmp	r5, #5
 8003858:	d1ad      	bne.n	80037b6 <USBH_MSC_BOT_Process+0x6e>
 800385a:	230a      	movs	r3, #10
 800385c:	f884 3050 	strb.w	r3, [r4, #80]	; 0x50
 8003860:	e7a9      	b.n	80037b6 <USBH_MSC_BOT_Process+0x6e>
 8003862:	7923      	ldrb	r3, [r4, #4]
 8003864:	220d      	movs	r2, #13
 8003866:	f104 0178 	add.w	r1, r4, #120	; 0x78
 800386a:	f000 fec8 	bl	80045fe <USBH_BulkReceiveData>
 800386e:	2308      	movs	r3, #8
 8003870:	e7f4      	b.n	800385c <USBH_MSC_BOT_Process+0x114>
 8003872:	7921      	ldrb	r1, [r4, #4]
 8003874:	f002 fa7e 	bl	8005d74 <USBH_LL_GetURBState>
 8003878:	2801      	cmp	r0, #1
 800387a:	d11a      	bne.n	80038b2 <USBH_MSC_BOT_Process+0x16a>
 800387c:	f884 0050 	strb.w	r0, [r4, #80]	; 0x50
 8003880:	f884 0052 	strb.w	r0, [r4, #82]	; 0x52
 8003884:	f8d6 337c 	ldr.w	r3, [r6, #892]	; 0x37c
 8003888:	69dc      	ldr	r4, [r3, #28]
 800388a:	4630      	mov	r0, r6
 800388c:	7921      	ldrb	r1, [r4, #4]
 800388e:	f002 fa2d 	bl	8005cec <USBH_LL_GetLastXferSize>
 8003892:	280d      	cmp	r0, #13
 8003894:	d13a      	bne.n	800390c <USBH_MSC_BOT_Process+0x1c4>
 8003896:	6fa2      	ldr	r2, [r4, #120]	; 0x78
 8003898:	4b1d      	ldr	r3, [pc, #116]	; (8003910 <USBH_MSC_BOT_Process+0x1c8>)
 800389a:	429a      	cmp	r2, r3
 800389c:	d136      	bne.n	800390c <USBH_MSC_BOT_Process+0x1c4>
 800389e:	6fe2      	ldr	r2, [r4, #124]	; 0x7c
 80038a0:	6da3      	ldr	r3, [r4, #88]	; 0x58
 80038a2:	429a      	cmp	r2, r3
 80038a4:	d132      	bne.n	800390c <USBH_MSC_BOT_Process+0x1c4>
 80038a6:	f894 5084 	ldrb.w	r5, [r4, #132]	; 0x84
 80038aa:	2d00      	cmp	r5, #0
 80038ac:	bf18      	it	ne
 80038ae:	2502      	movne	r5, #2
 80038b0:	e782      	b.n	80037b8 <USBH_MSC_BOT_Process+0x70>
 80038b2:	2805      	cmp	r0, #5
 80038b4:	e7a5      	b.n	8003802 <USBH_MSC_BOT_Process+0xba>
 80038b6:	79e1      	ldrb	r1, [r4, #7]
 80038b8:	f000 fe46 	bl	8004548 <USBH_ClrFeature>
 80038bc:	b908      	cbnz	r0, 80038c2 <USBH_MSC_BOT_Process+0x17a>
 80038be:	2307      	movs	r3, #7
 80038c0:	e7cc      	b.n	800385c <USBH_MSC_BOT_Process+0x114>
 80038c2:	2804      	cmp	r0, #4
 80038c4:	f47f af77 	bne.w	80037b6 <USBH_MSC_BOT_Process+0x6e>
 80038c8:	230b      	movs	r3, #11
 80038ca:	e7c7      	b.n	800385c <USBH_MSC_BOT_Process+0x114>
 80038cc:	79a1      	ldrb	r1, [r4, #6]
 80038ce:	f000 fe3b 	bl	8004548 <USBH_ClrFeature>
 80038d2:	4605      	mov	r5, r0
 80038d4:	b980      	cbnz	r0, 80038f8 <USBH_MSC_BOT_Process+0x1b0>
 80038d6:	7961      	ldrb	r1, [r4, #5]
 80038d8:	4630      	mov	r0, r6
 80038da:	f002 fa6b 	bl	8005db4 <USBH_LL_GetToggle>
 80038de:	f1c0 0001 	rsb	r0, r0, #1
 80038e2:	7961      	ldrb	r1, [r4, #5]
 80038e4:	b2c2      	uxtb	r2, r0
 80038e6:	4630      	mov	r0, r6
 80038e8:	f002 fa55 	bl	8005d96 <USBH_LL_SetToggle>
 80038ec:	7921      	ldrb	r1, [r4, #4]
 80038ee:	462a      	mov	r2, r5
 80038f0:	4630      	mov	r0, r6
 80038f2:	f002 fa50 	bl	8005d96 <USBH_LL_SetToggle>
 80038f6:	e785      	b.n	8003804 <USBH_MSC_BOT_Process+0xbc>
 80038f8:	2804      	cmp	r0, #4
 80038fa:	e7e3      	b.n	80038c4 <USBH_MSC_BOT_Process+0x17c>
 80038fc:	f7ff ff01 	bl	8003702 <USBH_MSC_BOT_REQ_Reset>
 8003900:	4605      	mov	r5, r0
 8003902:	2800      	cmp	r0, #0
 8003904:	f47f af58 	bne.w	80037b8 <USBH_MSC_BOT_Process+0x70>
 8003908:	2301      	movs	r3, #1
 800390a:	e74c      	b.n	80037a6 <USBH_MSC_BOT_Process+0x5e>
 800390c:	2502      	movs	r5, #2
 800390e:	e753      	b.n	80037b8 <USBH_MSC_BOT_Process+0x70>
 8003910:	53425355 	.word	0x53425355

08003914 <USBH_MSC_SCSI_TestUnitReady>:
 8003914:	b538      	push	{r3, r4, r5, lr}
 8003916:	f8d0 337c 	ldr.w	r3, [r0, #892]	; 0x37c
 800391a:	69dc      	ldr	r4, [r3, #28]
 800391c:	f894 5052 	ldrb.w	r5, [r4, #82]	; 0x52
 8003920:	2d01      	cmp	r5, #1
 8003922:	d004      	beq.n	800392e <USBH_MSC_SCSI_TestUnitReady+0x1a>
 8003924:	2d02      	cmp	r5, #2
 8003926:	d014      	beq.n	8003952 <USBH_MSC_SCSI_TestUnitReady+0x3e>
 8003928:	2502      	movs	r5, #2
 800392a:	4628      	mov	r0, r5
 800392c:	bd38      	pop	{r3, r4, r5, pc}
 800392e:	2100      	movs	r1, #0
 8003930:	65e1      	str	r1, [r4, #92]	; 0x5c
 8003932:	f884 1060 	strb.w	r1, [r4, #96]	; 0x60
 8003936:	2210      	movs	r2, #16
 8003938:	f104 0063 	add.w	r0, r4, #99	; 0x63
 800393c:	f002 fa9c 	bl	8005e78 <memset>
 8003940:	230a      	movs	r3, #10
 8003942:	f8a4 3062 	strh.w	r3, [r4, #98]	; 0x62
 8003946:	2302      	movs	r3, #2
 8003948:	f884 5050 	strb.w	r5, [r4, #80]	; 0x50
 800394c:	f884 3052 	strb.w	r3, [r4, #82]	; 0x52
 8003950:	e7eb      	b.n	800392a <USBH_MSC_SCSI_TestUnitReady+0x16>
 8003952:	e8bd 4038 	ldmia.w	sp!, {r3, r4, r5, lr}
 8003956:	f7ff bef7 	b.w	8003748 <USBH_MSC_BOT_Process>

0800395a <USBH_MSC_SCSI_ReadCapacity>:
 800395a:	b570      	push	{r4, r5, r6, lr}
 800395c:	f8d0 337c 	ldr.w	r3, [r0, #892]	; 0x37c
 8003960:	69dc      	ldr	r4, [r3, #28]
 8003962:	f894 5052 	ldrb.w	r5, [r4, #82]	; 0x52
 8003966:	2d01      	cmp	r5, #1
 8003968:	4616      	mov	r6, r2
 800396a:	d004      	beq.n	8003976 <USBH_MSC_SCSI_ReadCapacity+0x1c>
 800396c:	2d02      	cmp	r5, #2
 800396e:	d01b      	beq.n	80039a8 <USBH_MSC_SCSI_ReadCapacity+0x4e>
 8003970:	2501      	movs	r5, #1
 8003972:	4628      	mov	r0, r5
 8003974:	bd70      	pop	{r4, r5, r6, pc}
 8003976:	2308      	movs	r3, #8
 8003978:	65e3      	str	r3, [r4, #92]	; 0x5c
 800397a:	2380      	movs	r3, #128	; 0x80
 800397c:	f884 3060 	strb.w	r3, [r4, #96]	; 0x60
 8003980:	2210      	movs	r2, #16
 8003982:	2100      	movs	r1, #0
 8003984:	f104 0063 	add.w	r0, r4, #99	; 0x63
 8003988:	f002 fa76 	bl	8005e78 <memset>
 800398c:	f242 530a 	movw	r3, #9482	; 0x250a
 8003990:	f8a4 3062 	strh.w	r3, [r4, #98]	; 0x62
 8003994:	2302      	movs	r3, #2
 8003996:	f884 3052 	strb.w	r3, [r4, #82]	; 0x52
 800399a:	f104 0310 	add.w	r3, r4, #16
 800399e:	f884 5050 	strb.w	r5, [r4, #80]	; 0x50
 80039a2:	f8c4 308c 	str.w	r3, [r4, #140]	; 0x8c
 80039a6:	e7e4      	b.n	8003972 <USBH_MSC_SCSI_ReadCapacity+0x18>
 80039a8:	f7ff fece 	bl	8003748 <USBH_MSC_BOT_Process>
 80039ac:	4605      	mov	r5, r0
 80039ae:	2800      	cmp	r0, #0
 80039b0:	d1df      	bne.n	8003972 <USBH_MSC_SCSI_ReadCapacity+0x18>
 80039b2:	f8d4 208c 	ldr.w	r2, [r4, #140]	; 0x8c
 80039b6:	6813      	ldr	r3, [r2, #0]
 80039b8:	ba1b      	rev	r3, r3
 80039ba:	6033      	str	r3, [r6, #0]
 80039bc:	88d3      	ldrh	r3, [r2, #6]
 80039be:	ba5b      	rev16	r3, r3
 80039c0:	80b3      	strh	r3, [r6, #4]
 80039c2:	e7d6      	b.n	8003972 <USBH_MSC_SCSI_ReadCapacity+0x18>

080039c4 <USBH_MSC_SCSI_Inquiry>:
 80039c4:	b570      	push	{r4, r5, r6, lr}
 80039c6:	4616      	mov	r6, r2
 80039c8:	f8d0 237c 	ldr.w	r2, [r0, #892]	; 0x37c
 80039cc:	69d4      	ldr	r4, [r2, #28]
 80039ce:	f894 5052 	ldrb.w	r5, [r4, #82]	; 0x52
 80039d2:	2d01      	cmp	r5, #1
 80039d4:	460b      	mov	r3, r1
 80039d6:	d004      	beq.n	80039e2 <USBH_MSC_SCSI_Inquiry+0x1e>
 80039d8:	2d02      	cmp	r5, #2
 80039da:	d023      	beq.n	8003a24 <USBH_MSC_SCSI_Inquiry+0x60>
 80039dc:	2502      	movs	r5, #2
 80039de:	4628      	mov	r0, r5
 80039e0:	bd70      	pop	{r4, r5, r6, pc}
 80039e2:	015b      	lsls	r3, r3, #5
 80039e4:	2224      	movs	r2, #36	; 0x24
 80039e6:	f884 3064 	strb.w	r3, [r4, #100]	; 0x64
 80039ea:	f44f 5310 	mov.w	r3, #9216	; 0x2400
 80039ee:	65e2      	str	r2, [r4, #92]	; 0x5c
 80039f0:	f8a4 3066 	strh.w	r3, [r4, #102]	; 0x66
 80039f4:	2280      	movs	r2, #128	; 0x80
 80039f6:	2302      	movs	r3, #2
 80039f8:	f884 2060 	strb.w	r2, [r4, #96]	; 0x60
 80039fc:	f241 210a 	movw	r1, #4618	; 0x120a
 8003a00:	2200      	movs	r2, #0
 8003a02:	f884 3052 	strb.w	r3, [r4, #82]	; 0x52
 8003a06:	f104 0310 	add.w	r3, r4, #16
 8003a0a:	f8c4 2069 	str.w	r2, [r4, #105]	; 0x69
 8003a0e:	f8a4 1062 	strh.w	r1, [r4, #98]	; 0x62
 8003a12:	f884 2065 	strb.w	r2, [r4, #101]	; 0x65
 8003a16:	f884 2068 	strb.w	r2, [r4, #104]	; 0x68
 8003a1a:	f884 5050 	strb.w	r5, [r4, #80]	; 0x50
 8003a1e:	f8c4 308c 	str.w	r3, [r4, #140]	; 0x8c
 8003a22:	e7dc      	b.n	80039de <USBH_MSC_SCSI_Inquiry+0x1a>
 8003a24:	f7ff fe90 	bl	8003748 <USBH_MSC_BOT_Process>
 8003a28:	4605      	mov	r5, r0
 8003a2a:	2800      	cmp	r0, #0
 8003a2c:	d1d7      	bne.n	80039de <USBH_MSC_SCSI_Inquiry+0x1a>
 8003a2e:	4601      	mov	r1, r0
 8003a30:	2222      	movs	r2, #34	; 0x22
 8003a32:	4630      	mov	r0, r6
 8003a34:	f002 fa20 	bl	8005e78 <memset>
 8003a38:	f8d4 308c 	ldr.w	r3, [r4, #140]	; 0x8c
 8003a3c:	781b      	ldrb	r3, [r3, #0]
 8003a3e:	f003 031f 	and.w	r3, r3, #31
 8003a42:	7073      	strb	r3, [r6, #1]
 8003a44:	f8d4 308c 	ldr.w	r3, [r4, #140]	; 0x8c
 8003a48:	781b      	ldrb	r3, [r3, #0]
 8003a4a:	095b      	lsrs	r3, r3, #5
 8003a4c:	7033      	strb	r3, [r6, #0]
 8003a4e:	f8d4 308c 	ldr.w	r3, [r4, #140]	; 0x8c
 8003a52:	785b      	ldrb	r3, [r3, #1]
 8003a54:	09db      	lsrs	r3, r3, #7
 8003a56:	70b3      	strb	r3, [r6, #2]
 8003a58:	f8d4 208c 	ldr.w	r2, [r4, #140]	; 0x8c
 8003a5c:	f852 3f08 	ldr.w	r3, [r2, #8]!
 8003a60:	f8c6 3003 	str.w	r3, [r6, #3]
 8003a64:	6853      	ldr	r3, [r2, #4]
 8003a66:	f8c6 3007 	str.w	r3, [r6, #7]
 8003a6a:	f8d4 308c 	ldr.w	r3, [r4, #140]	; 0x8c
 8003a6e:	f106 010c 	add.w	r1, r6, #12
 8003a72:	f103 0210 	add.w	r2, r3, #16
 8003a76:	3320      	adds	r3, #32
 8003a78:	f852 0b04 	ldr.w	r0, [r2], #4
 8003a7c:	f841 0b04 	str.w	r0, [r1], #4
 8003a80:	429a      	cmp	r2, r3
 8003a82:	d1f9      	bne.n	8003a78 <USBH_MSC_SCSI_Inquiry+0xb4>
 8003a84:	f8d4 308c 	ldr.w	r3, [r4, #140]	; 0x8c
 8003a88:	6a1b      	ldr	r3, [r3, #32]
 8003a8a:	f8c6 301d 	str.w	r3, [r6, #29]
 8003a8e:	e7a6      	b.n	80039de <USBH_MSC_SCSI_Inquiry+0x1a>

08003a90 <USBH_MSC_SCSI_RequestSense>:
 8003a90:	b570      	push	{r4, r5, r6, lr}
 8003a92:	f8d0 337c 	ldr.w	r3, [r0, #892]	; 0x37c
 8003a96:	69dc      	ldr	r4, [r3, #28]
 8003a98:	f894 3052 	ldrb.w	r3, [r4, #82]	; 0x52
 8003a9c:	2b01      	cmp	r3, #1
 8003a9e:	460e      	mov	r6, r1
 8003aa0:	4615      	mov	r5, r2
 8003aa2:	d004      	beq.n	8003aae <USBH_MSC_SCSI_RequestSense+0x1e>
 8003aa4:	2b02      	cmp	r3, #2
 8003aa6:	d027      	beq.n	8003af8 <USBH_MSC_SCSI_RequestSense+0x68>
 8003aa8:	2302      	movs	r3, #2
 8003aaa:	4618      	mov	r0, r3
 8003aac:	bd70      	pop	{r4, r5, r6, pc}
 8003aae:	220e      	movs	r2, #14
 8003ab0:	65e2      	str	r2, [r4, #92]	; 0x5c
 8003ab2:	2280      	movs	r2, #128	; 0x80
 8003ab4:	f884 2060 	strb.w	r2, [r4, #96]	; 0x60
 8003ab8:	2200      	movs	r2, #0
 8003aba:	f8c4 2067 	str.w	r2, [r4, #103]	; 0x67
 8003abe:	f240 310a 	movw	r1, #778	; 0x30a
 8003ac2:	f8c4 206b 	str.w	r2, [r4, #107]	; 0x6b
 8003ac6:	f8c4 206f 	str.w	r2, [r4, #111]	; 0x6f
 8003aca:	f884 2065 	strb.w	r2, [r4, #101]	; 0x65
 8003ace:	f884 2068 	strb.w	r2, [r4, #104]	; 0x68
 8003ad2:	2202      	movs	r2, #2
 8003ad4:	f8a4 1062 	strh.w	r1, [r4, #98]	; 0x62
 8003ad8:	0176      	lsls	r6, r6, #5
 8003ada:	f44f 6160 	mov.w	r1, #3584	; 0xe00
 8003ade:	f884 2052 	strb.w	r2, [r4, #82]	; 0x52
 8003ae2:	f104 0210 	add.w	r2, r4, #16
 8003ae6:	f884 6064 	strb.w	r6, [r4, #100]	; 0x64
 8003aea:	f8a4 1066 	strh.w	r1, [r4, #102]	; 0x66
 8003aee:	f884 3050 	strb.w	r3, [r4, #80]	; 0x50
 8003af2:	f8c4 208c 	str.w	r2, [r4, #140]	; 0x8c
 8003af6:	e7d8      	b.n	8003aaa <USBH_MSC_SCSI_RequestSense+0x1a>
 8003af8:	f7ff fe26 	bl	8003748 <USBH_MSC_BOT_Process>
 8003afc:	4603      	mov	r3, r0
 8003afe:	2800      	cmp	r0, #0
 8003b00:	d1d3      	bne.n	8003aaa <USBH_MSC_SCSI_RequestSense+0x1a>
 8003b02:	f8d4 208c 	ldr.w	r2, [r4, #140]	; 0x8c
 8003b06:	7892      	ldrb	r2, [r2, #2]
 8003b08:	f002 020f 	and.w	r2, r2, #15
 8003b0c:	702a      	strb	r2, [r5, #0]
 8003b0e:	f8d4 208c 	ldr.w	r2, [r4, #140]	; 0x8c
 8003b12:	7b12      	ldrb	r2, [r2, #12]
 8003b14:	706a      	strb	r2, [r5, #1]
 8003b16:	f8d4 208c 	ldr.w	r2, [r4, #140]	; 0x8c
 8003b1a:	7b52      	ldrb	r2, [r2, #13]
 8003b1c:	70aa      	strb	r2, [r5, #2]
 8003b1e:	e7c4      	b.n	8003aaa <USBH_MSC_SCSI_RequestSense+0x1a>

08003b20 <USBH_MSC_SCSI_Write>:
 8003b20:	e92d 41f0 	stmdb	sp!, {r4, r5, r6, r7, r8, lr}
 8003b24:	4698      	mov	r8, r3
 8003b26:	f8d0 337c 	ldr.w	r3, [r0, #892]	; 0x37c
 8003b2a:	9f06      	ldr	r7, [sp, #24]
 8003b2c:	69dc      	ldr	r4, [r3, #28]
 8003b2e:	f894 6052 	ldrb.w	r6, [r4, #82]	; 0x52
 8003b32:	2e01      	cmp	r6, #1
 8003b34:	4615      	mov	r5, r2
 8003b36:	d005      	beq.n	8003b44 <USBH_MSC_SCSI_Write+0x24>
 8003b38:	2e02      	cmp	r6, #2
 8003b3a:	d02c      	beq.n	8003b96 <USBH_MSC_SCSI_Write+0x76>
 8003b3c:	2602      	movs	r6, #2
 8003b3e:	4630      	mov	r0, r6
 8003b40:	e8bd 81f0 	ldmia.w	sp!, {r4, r5, r6, r7, r8, pc}
 8003b44:	f8b4 3098 	ldrh.w	r3, [r4, #152]	; 0x98
 8003b48:	2100      	movs	r1, #0
 8003b4a:	437b      	muls	r3, r7
 8003b4c:	65e3      	str	r3, [r4, #92]	; 0x5c
 8003b4e:	f884 1060 	strb.w	r1, [r4, #96]	; 0x60
 8003b52:	2210      	movs	r2, #16
 8003b54:	f104 0063 	add.w	r0, r4, #99	; 0x63
 8003b58:	f002 f98e 	bl	8005e78 <memset>
 8003b5c:	f642 230a 	movw	r3, #10762	; 0x2a0a
 8003b60:	f8a4 3062 	strh.w	r3, [r4, #98]	; 0x62
 8003b64:	f3c5 6307 	ubfx	r3, r5, #24, #8
 8003b68:	f884 3065 	strb.w	r3, [r4, #101]	; 0x65
 8003b6c:	f3c5 4307 	ubfx	r3, r5, #16, #8
 8003b70:	f884 3066 	strb.w	r3, [r4, #102]	; 0x66
 8003b74:	f3c5 2307 	ubfx	r3, r5, #8, #8
 8003b78:	f884 3067 	strb.w	r3, [r4, #103]	; 0x67
 8003b7c:	ba7f      	rev16	r7, r7
 8003b7e:	2302      	movs	r3, #2
 8003b80:	f884 5068 	strb.w	r5, [r4, #104]	; 0x68
 8003b84:	f8a4 706a 	strh.w	r7, [r4, #106]	; 0x6a
 8003b88:	f884 6050 	strb.w	r6, [r4, #80]	; 0x50
 8003b8c:	f884 3052 	strb.w	r3, [r4, #82]	; 0x52
 8003b90:	f8c4 808c 	str.w	r8, [r4, #140]	; 0x8c
 8003b94:	e7d3      	b.n	8003b3e <USBH_MSC_SCSI_Write+0x1e>
 8003b96:	e8bd 41f0 	ldmia.w	sp!, {r4, r5, r6, r7, r8, lr}
 8003b9a:	f7ff bdd5 	b.w	8003748 <USBH_MSC_BOT_Process>

08003b9e <USBH_MSC_SCSI_Read>:
 8003b9e:	e92d 41f0 	stmdb	sp!, {r4, r5, r6, r7, r8, lr}
 8003ba2:	4698      	mov	r8, r3
 8003ba4:	f8d0 337c 	ldr.w	r3, [r0, #892]	; 0x37c
 8003ba8:	9f06      	ldr	r7, [sp, #24]
 8003baa:	69dc      	ldr	r4, [r3, #28]
 8003bac:	f894 6052 	ldrb.w	r6, [r4, #82]	; 0x52
 8003bb0:	2e01      	cmp	r6, #1
 8003bb2:	4615      	mov	r5, r2
 8003bb4:	d005      	beq.n	8003bc2 <USBH_MSC_SCSI_Read+0x24>
 8003bb6:	2e02      	cmp	r6, #2
 8003bb8:	d02d      	beq.n	8003c16 <USBH_MSC_SCSI_Read+0x78>
 8003bba:	2602      	movs	r6, #2
 8003bbc:	4630      	mov	r0, r6
 8003bbe:	e8bd 81f0 	ldmia.w	sp!, {r4, r5, r6, r7, r8, pc}
 8003bc2:	f8b4 3098 	ldrh.w	r3, [r4, #152]	; 0x98
 8003bc6:	437b      	muls	r3, r7
 8003bc8:	65e3      	str	r3, [r4, #92]	; 0x5c
 8003bca:	2380      	movs	r3, #128	; 0x80
 8003bcc:	f884 3060 	strb.w	r3, [r4, #96]	; 0x60
 8003bd0:	2210      	movs	r2, #16
 8003bd2:	2100      	movs	r1, #0
 8003bd4:	f104 0063 	add.w	r0, r4, #99	; 0x63
 8003bd8:	f002 f94e 	bl	8005e78 <memset>
 8003bdc:	f642 030a 	movw	r3, #10250	; 0x280a
 8003be0:	f8a4 3062 	strh.w	r3, [r4, #98]	; 0x62
 8003be4:	f3c5 6307 	ubfx	r3, r5, #24, #8
 8003be8:	f884 3065 	strb.w	r3, [r4, #101]	; 0x65
 8003bec:	f3c5 4307 	ubfx	r3, r5, #16, #8
 8003bf0:	f884 3066 	strb.w	r3, [r4, #102]	; 0x66
 8003bf4:	f3c5 2307 	ubfx	r3, r5, #8, #8
 8003bf8:	f884 3067 	strb.w	r3, [r4, #103]	; 0x67
 8003bfc:	ba7f      	rev16	r7, r7
 8003bfe:	2302      	movs	r3, #2
 8003c00:	f884 5068 	strb.w	r5, [r4, #104]	; 0x68
 8003c04:	f8a4 706a 	strh.w	r7, [r4, #106]	; 0x6a
 8003c08:	f884 6050 	strb.w	r6, [r4, #80]	; 0x50
 8003c0c:	f884 3052 	strb.w	r3, [r4, #82]	; 0x52
 8003c10:	f8c4 808c 	str.w	r8, [r4, #140]	; 0x8c
 8003c14:	e7d2      	b.n	8003bbc <USBH_MSC_SCSI_Read+0x1e>
 8003c16:	e8bd 41f0 	ldmia.w	sp!, {r4, r5, r6, r7, r8, lr}
 8003c1a:	f7ff bd95 	b.w	8003748 <USBH_MSC_BOT_Process>

08003c1e <DeInitStateMachine>:
 8003c1e:	f500 7361 	add.w	r3, r0, #900	; 0x384
 8003c22:	f500 7270 	add.w	r2, r0, #960	; 0x3c0
 8003c26:	2100      	movs	r1, #0
 8003c28:	f843 1b04 	str.w	r1, [r3], #4
 8003c2c:	4293      	cmp	r3, r2
 8003c2e:	d1fb      	bne.n	8003c28 <DeInitStateMachine+0xa>
 8003c30:	f500 728e 	add.w	r2, r0, #284	; 0x11c
 8003c34:	f500 7147 	add.w	r1, r0, #796	; 0x31c
 8003c38:	2300      	movs	r3, #0
 8003c3a:	f802 3b01 	strb.w	r3, [r2], #1
 8003c3e:	428a      	cmp	r2, r1
 8003c40:	d1fb      	bne.n	8003c3a <DeInitStateMachine+0x1c>
 8003c42:	7003      	strb	r3, [r0, #0]
 8003c44:	7043      	strb	r3, [r0, #1]
 8003c46:	f8c0 33c4 	str.w	r3, [r0, #964]	; 0x3c4
 8003c4a:	2340      	movs	r3, #64	; 0x40
 8003c4c:	2201      	movs	r2, #1
 8003c4e:	7183      	strb	r3, [r0, #6]
 8003c50:	f44f 7380 	mov.w	r3, #256	; 0x100
 8003c54:	7082      	strb	r2, [r0, #2]
 8003c56:	8302      	strh	r2, [r0, #24]
 8003c58:	f8c0 331c 	str.w	r3, [r0, #796]	; 0x31c
 8003c5c:	2000      	movs	r0, #0
 8003c5e:	4770      	bx	lr

08003c60 <USBH_Init>:
 8003c60:	b570      	push	{r4, r5, r6, lr}
 8003c62:	460e      	mov	r6, r1
 8003c64:	4604      	mov	r4, r0
 8003c66:	b1b0      	cbz	r0, 8003c96 <USBH_Init+0x36>
 8003c68:	2500      	movs	r5, #0
 8003c6a:	e9c0 55df 	strd	r5, r5, [r0, #892]	; 0x37c
 8003c6e:	f880 23cc 	strb.w	r2, [r0, #972]	; 0x3cc
 8003c72:	f7ff ffd4 	bl	8003c1e <DeInitStateMachine>
 8003c76:	f884 5320 	strb.w	r5, [r4, #800]	; 0x320
 8003c7a:	f884 5323 	strb.w	r5, [r4, #803]	; 0x323
 8003c7e:	f884 5321 	strb.w	r5, [r4, #801]	; 0x321
 8003c82:	f884 5322 	strb.w	r5, [r4, #802]	; 0x322
 8003c86:	b10e      	cbz	r6, 8003c8c <USBH_Init+0x2c>
 8003c88:	f8c4 63d4 	str.w	r6, [r4, #980]	; 0x3d4
 8003c8c:	4620      	mov	r0, r4
 8003c8e:	f001 ffd3 	bl	8005c38 <USBH_LL_Init>
 8003c92:	2000      	movs	r0, #0
 8003c94:	bd70      	pop	{r4, r5, r6, pc}
 8003c96:	2002      	movs	r0, #2
 8003c98:	e7fc      	b.n	8003c94 <USBH_Init+0x34>

08003c9a <USBH_RegisterClass>:
 8003c9a:	b149      	cbz	r1, 8003cb0 <USBH_RegisterClass+0x16>
 8003c9c:	f8d0 3380 	ldr.w	r3, [r0, #896]	; 0x380
 8003ca0:	b933      	cbnz	r3, 8003cb0 <USBH_RegisterClass+0x16>
 8003ca2:	2201      	movs	r2, #1
 8003ca4:	f8c0 2380 	str.w	r2, [r0, #896]	; 0x380
 8003ca8:	f8c0 1378 	str.w	r1, [r0, #888]	; 0x378
 8003cac:	4618      	mov	r0, r3
 8003cae:	4770      	bx	lr
 8003cb0:	2002      	movs	r0, #2
 8003cb2:	4770      	bx	lr

08003cb4 <USBH_SelectInterface>:
 8003cb4:	f890 333c 	ldrb.w	r3, [r0, #828]	; 0x33c
 8003cb8:	428b      	cmp	r3, r1
 8003cba:	bf86      	itte	hi
 8003cbc:	f880 1324 	strbhi.w	r1, [r0, #804]	; 0x324
 8003cc0:	2000      	movhi	r0, #0
 8003cc2:	2002      	movls	r0, #2
 8003cc4:	4770      	bx	lr

08003cc6 <USBH_FindInterface>:
 8003cc6:	b570      	push	{r4, r5, r6, lr}
 8003cc8:	2400      	movs	r4, #0
 8003cca:	f890 6347 	ldrb.w	r6, [r0, #839]	; 0x347
 8003cce:	428e      	cmp	r6, r1
 8003cd0:	b2e5      	uxtb	r5, r4
 8003cd2:	d001      	beq.n	8003cd8 <USBH_FindInterface+0x12>
 8003cd4:	29ff      	cmp	r1, #255	; 0xff
 8003cd6:	d10b      	bne.n	8003cf0 <USBH_FindInterface+0x2a>
 8003cd8:	f890 6348 	ldrb.w	r6, [r0, #840]	; 0x348
 8003cdc:	4296      	cmp	r6, r2
 8003cde:	d001      	beq.n	8003ce4 <USBH_FindInterface+0x1e>
 8003ce0:	2aff      	cmp	r2, #255	; 0xff
 8003ce2:	d105      	bne.n	8003cf0 <USBH_FindInterface+0x2a>
 8003ce4:	f890 6349 	ldrb.w	r6, [r0, #841]	; 0x349
 8003ce8:	429e      	cmp	r6, r3
 8003cea:	d004      	beq.n	8003cf6 <USBH_FindInterface+0x30>
 8003cec:	2bff      	cmp	r3, #255	; 0xff
 8003cee:	d002      	beq.n	8003cf6 <USBH_FindInterface+0x30>
 8003cf0:	301a      	adds	r0, #26
 8003cf2:	b114      	cbz	r4, 8003cfa <USBH_FindInterface+0x34>
 8003cf4:	25ff      	movs	r5, #255	; 0xff
 8003cf6:	4628      	mov	r0, r5
 8003cf8:	bd70      	pop	{r4, r5, r6, pc}
 8003cfa:	2401      	movs	r4, #1
 8003cfc:	e7e5      	b.n	8003cca <USBH_FindInterface+0x4>

08003cfe <USBH_Start>:
 8003cfe:	b510      	push	{r4, lr}
 8003d00:	4604      	mov	r4, r0
 8003d02:	f001 ffbf 	bl	8005c84 <USBH_LL_Start>
 8003d06:	2101      	movs	r1, #1
 8003d08:	4620      	mov	r0, r4
 8003d0a:	f002 f837 	bl	8005d7c <USBH_LL_DriverVBUS>
 8003d0e:	2000      	movs	r0, #0
 8003d10:	bd10      	pop	{r4, pc}

08003d12 <USBH_Process>:
 8003d12:	b570      	push	{r4, r5, r6, lr}
 8003d14:	b086      	sub	sp, #24
 8003d16:	2302      	movs	r3, #2
 8003d18:	f88d 3017 	strb.w	r3, [sp, #23]
 8003d1c:	f890 3321 	ldrb.w	r3, [r0, #801]	; 0x321
 8003d20:	2b01      	cmp	r3, #1
 8003d22:	bf04      	itt	eq
 8003d24:	2303      	moveq	r3, #3
 8003d26:	7003      	strbeq	r3, [r0, #0]
 8003d28:	7803      	ldrb	r3, [r0, #0]
 8003d2a:	4604      	mov	r4, r0
 8003d2c:	2b0b      	cmp	r3, #11
 8003d2e:	d81d      	bhi.n	8003d6c <USBH_Process+0x5a>
 8003d30:	e8df f013 	tbh	[pc, r3, lsl #1]
 8003d34:	001f000c 	.word	0x001f000c
 8003d38:	01b50041 	.word	0x01b50041
 8003d3c:	0076001c 	.word	0x0076001c
 8003d40:	015a0199 	.word	0x015a0199
 8003d44:	016b0162 	.word	0x016b0162
 8003d48:	01ad0177 	.word	0x01ad0177
 8003d4c:	f890 3320 	ldrb.w	r3, [r0, #800]	; 0x320
 8003d50:	b163      	cbz	r3, 8003d6c <USBH_Process+0x5a>
 8003d52:	2301      	movs	r3, #1
 8003d54:	7003      	strb	r3, [r0, #0]
 8003d56:	20c8      	movs	r0, #200	; 0xc8
 8003d58:	f002 f83a 	bl	8005dd0 <USBH_Delay>
 8003d5c:	4620      	mov	r0, r4
 8003d5e:	f001 ffb7 	bl	8005cd0 <USBH_LL_ResetPort>
 8003d62:	2300      	movs	r3, #0
 8003d64:	f884 331c 	strb.w	r3, [r4, #796]	; 0x31c
 8003d68:	f8c4 33c8 	str.w	r3, [r4, #968]	; 0x3c8
 8003d6c:	2000      	movs	r0, #0
 8003d6e:	b006      	add	sp, #24
 8003d70:	bd70      	pop	{r4, r5, r6, pc}
 8003d72:	f890 3323 	ldrb.w	r3, [r0, #803]	; 0x323
 8003d76:	2b01      	cmp	r3, #1
 8003d78:	d105      	bne.n	8003d86 <USBH_Process+0x74>
 8003d7a:	2300      	movs	r3, #0
 8003d7c:	f880 331f 	strb.w	r3, [r0, #799]	; 0x31f
 8003d80:	2302      	movs	r3, #2
 8003d82:	7023      	strb	r3, [r4, #0]
 8003d84:	e7f2      	b.n	8003d6c <USBH_Process+0x5a>
 8003d86:	f8d0 33c8 	ldr.w	r3, [r0, #968]	; 0x3c8
 8003d8a:	f5b3 7f7a 	cmp.w	r3, #1000	; 0x3e8
 8003d8e:	d90b      	bls.n	8003da8 <USBH_Process+0x96>
 8003d90:	f890 331f 	ldrb.w	r3, [r0, #799]	; 0x31f
 8003d94:	3301      	adds	r3, #1
 8003d96:	b2db      	uxtb	r3, r3
 8003d98:	2b03      	cmp	r3, #3
 8003d9a:	f880 331f 	strb.w	r3, [r0, #799]	; 0x31f
 8003d9e:	d901      	bls.n	8003da4 <USBH_Process+0x92>
 8003da0:	230d      	movs	r3, #13
 8003da2:	e7ee      	b.n	8003d82 <USBH_Process+0x70>
 8003da4:	2300      	movs	r3, #0
 8003da6:	e7ec      	b.n	8003d82 <USBH_Process+0x70>
 8003da8:	330a      	adds	r3, #10
 8003daa:	f8c0 33c8 	str.w	r3, [r0, #968]	; 0x3c8
 8003dae:	200a      	movs	r0, #10
 8003db0:	f002 f80e 	bl	8005dd0 <USBH_Delay>
 8003db4:	e7da      	b.n	8003d6c <USBH_Process+0x5a>
 8003db6:	f8d0 33d4 	ldr.w	r3, [r0, #980]	; 0x3d4
 8003dba:	b10b      	cbz	r3, 8003dc0 <USBH_Process+0xae>
 8003dbc:	2104      	movs	r1, #4
 8003dbe:	4798      	blx	r3
 8003dc0:	2064      	movs	r0, #100	; 0x64
 8003dc2:	f002 f805 	bl	8005dd0 <USBH_Delay>
 8003dc6:	4620      	mov	r0, r4
 8003dc8:	f001 ff78 	bl	8005cbc <USBH_LL_GetSpeed>
 8003dcc:	2305      	movs	r3, #5
 8003dce:	7023      	strb	r3, [r4, #0]
 8003dd0:	f884 031d 	strb.w	r0, [r4, #797]	; 0x31d
 8003dd4:	2100      	movs	r1, #0
 8003dd6:	4620      	mov	r0, r4
 8003dd8:	f000 fc35 	bl	8004646 <USBH_AllocPipe>
 8003ddc:	2180      	movs	r1, #128	; 0x80
 8003dde:	7160      	strb	r0, [r4, #5]
 8003de0:	4620      	mov	r0, r4
 8003de2:	f000 fc30 	bl	8004646 <USBH_AllocPipe>
 8003de6:	79a3      	ldrb	r3, [r4, #6]
 8003de8:	9302      	str	r3, [sp, #8]
 8003dea:	2500      	movs	r5, #0
 8003dec:	f894 331d 	ldrb.w	r3, [r4, #797]	; 0x31d
 8003df0:	7120      	strb	r0, [r4, #4]
 8003df2:	4601      	mov	r1, r0
 8003df4:	9300      	str	r3, [sp, #0]
 8003df6:	9501      	str	r5, [sp, #4]
 8003df8:	f894 331c 	ldrb.w	r3, [r4, #796]	; 0x31c
 8003dfc:	2280      	movs	r2, #128	; 0x80
 8003dfe:	4620      	mov	r0, r4
 8003e00:	f000 fc0d 	bl	800461e <USBH_OpenPipe>
 8003e04:	79a3      	ldrb	r3, [r4, #6]
 8003e06:	7961      	ldrb	r1, [r4, #5]
 8003e08:	e9cd 5301 	strd	r5, r3, [sp, #4]
 8003e0c:	f894 331d 	ldrb.w	r3, [r4, #797]	; 0x31d
 8003e10:	9300      	str	r3, [sp, #0]
 8003e12:	462a      	mov	r2, r5
 8003e14:	f894 331c 	ldrb.w	r3, [r4, #796]	; 0x31c
 8003e18:	4620      	mov	r0, r4
 8003e1a:	f000 fc00 	bl	800461e <USBH_OpenPipe>
 8003e1e:	e7a5      	b.n	8003d6c <USBH_Process+0x5a>
 8003e20:	7845      	ldrb	r5, [r0, #1]
 8003e22:	2d07      	cmp	r5, #7
 8003e24:	d82b      	bhi.n	8003e7e <USBH_Process+0x16c>
 8003e26:	e8df f005 	tbb	[pc, r5]
 8003e2a:	4104      	.short	0x4104
 8003e2c:	af938d71 	.word	0xaf938d71
 8003e30:	cdbe      	.short	0xcdbe
 8003e32:	2108      	movs	r1, #8
 8003e34:	f000 fa65 	bl	8004302 <USBH_Get_DevDesc>
 8003e38:	4606      	mov	r6, r0
 8003e3a:	b9f0      	cbnz	r0, 8003e7a <USBH_Process+0x168>
 8003e3c:	f894 332d 	ldrb.w	r3, [r4, #813]	; 0x32d
 8003e40:	71a3      	strb	r3, [r4, #6]
 8003e42:	e9cd 0301 	strd	r0, r3, [sp, #4]
 8003e46:	f894 331d 	ldrb.w	r3, [r4, #797]	; 0x31d
 8003e4a:	9300      	str	r3, [sp, #0]
 8003e4c:	2501      	movs	r5, #1
 8003e4e:	f894 331c 	ldrb.w	r3, [r4, #796]	; 0x31c
 8003e52:	7065      	strb	r5, [r4, #1]
 8003e54:	7921      	ldrb	r1, [r4, #4]
 8003e56:	2280      	movs	r2, #128	; 0x80
 8003e58:	4620      	mov	r0, r4
 8003e5a:	f000 fbe0 	bl	800461e <USBH_OpenPipe>
 8003e5e:	79a3      	ldrb	r3, [r4, #6]
 8003e60:	7961      	ldrb	r1, [r4, #5]
 8003e62:	e9cd 6301 	strd	r6, r3, [sp, #4]
 8003e66:	f894 331d 	ldrb.w	r3, [r4, #797]	; 0x31d
 8003e6a:	9300      	str	r3, [sp, #0]
 8003e6c:	4632      	mov	r2, r6
 8003e6e:	f894 331c 	ldrb.w	r3, [r4, #796]	; 0x31c
 8003e72:	4620      	mov	r0, r4
 8003e74:	f000 fbd3 	bl	800461e <USBH_OpenPipe>
 8003e78:	e01e      	b.n	8003eb8 <USBH_Process+0x1a6>
 8003e7a:	2803      	cmp	r0, #3
 8003e7c:	d001      	beq.n	8003e82 <USBH_Process+0x170>
 8003e7e:	2501      	movs	r5, #1
 8003e80:	e01a      	b.n	8003eb8 <USBH_Process+0x1a6>
 8003e82:	f894 331e 	ldrb.w	r3, [r4, #798]	; 0x31e
 8003e86:	3301      	adds	r3, #1
 8003e88:	b2db      	uxtb	r3, r3
 8003e8a:	2b03      	cmp	r3, #3
 8003e8c:	f884 331e 	strb.w	r3, [r4, #798]	; 0x31e
 8003e90:	d901      	bls.n	8003e96 <USBH_Process+0x184>
 8003e92:	230d      	movs	r3, #13
 8003e94:	e008      	b.n	8003ea8 <USBH_Process+0x196>
 8003e96:	7961      	ldrb	r1, [r4, #5]
 8003e98:	4620      	mov	r0, r4
 8003e9a:	f000 fbec 	bl	8004676 <USBH_FreePipe>
 8003e9e:	7921      	ldrb	r1, [r4, #4]
 8003ea0:	4620      	mov	r0, r4
 8003ea2:	f000 fbe8 	bl	8004676 <USBH_FreePipe>
 8003ea6:	2300      	movs	r3, #0
 8003ea8:	7023      	strb	r3, [r4, #0]
 8003eaa:	e7e8      	b.n	8003e7e <USBH_Process+0x16c>
 8003eac:	2112      	movs	r1, #18
 8003eae:	f000 fa28 	bl	8004302 <USBH_Get_DevDesc>
 8003eb2:	b998      	cbnz	r0, 8003edc <USBH_Process+0x1ca>
 8003eb4:	2302      	movs	r3, #2
 8003eb6:	7063      	strb	r3, [r4, #1]
 8003eb8:	f88d 5017 	strb.w	r5, [sp, #23]
 8003ebc:	f89d 3017 	ldrb.w	r3, [sp, #23]
 8003ec0:	f003 02ff 	and.w	r2, r3, #255	; 0xff
 8003ec4:	2b00      	cmp	r3, #0
 8003ec6:	f47f af51 	bne.w	8003d6c <USBH_Process+0x5a>
 8003eca:	f894 3337 	ldrb.w	r3, [r4, #823]	; 0x337
 8003ece:	f884 2324 	strb.w	r2, [r4, #804]	; 0x324
 8003ed2:	2b01      	cmp	r3, #1
 8003ed4:	f040 8086 	bne.w	8003fe4 <USBH_Process+0x2d2>
 8003ed8:	2308      	movs	r3, #8
 8003eda:	e752      	b.n	8003d82 <USBH_Process+0x70>
 8003edc:	2803      	cmp	r0, #3
 8003ede:	d1ce      	bne.n	8003e7e <USBH_Process+0x16c>
 8003ee0:	f894 331e 	ldrb.w	r3, [r4, #798]	; 0x31e
 8003ee4:	3301      	adds	r3, #1
 8003ee6:	b2db      	uxtb	r3, r3
 8003ee8:	2b03      	cmp	r3, #3
 8003eea:	f884 331e 	strb.w	r3, [r4, #798]	; 0x31e
 8003eee:	d902      	bls.n	8003ef6 <USBH_Process+0x1e4>
 8003ef0:	230d      	movs	r3, #13
 8003ef2:	7023      	strb	r3, [r4, #0]
 8003ef4:	e7e0      	b.n	8003eb8 <USBH_Process+0x1a6>
 8003ef6:	7961      	ldrb	r1, [r4, #5]
 8003ef8:	4620      	mov	r0, r4
 8003efa:	f000 fbbc 	bl	8004676 <USBH_FreePipe>
 8003efe:	7921      	ldrb	r1, [r4, #4]
 8003f00:	4620      	mov	r0, r4
 8003f02:	f000 fbb8 	bl	8004676 <USBH_FreePipe>
 8003f06:	2300      	movs	r3, #0
 8003f08:	7063      	strb	r3, [r4, #1]
 8003f0a:	e7f2      	b.n	8003ef2 <USBH_Process+0x1e0>
 8003f0c:	2101      	movs	r1, #1
 8003f0e:	f000 faf4 	bl	80044fa <USBH_SetAddress>
 8003f12:	4606      	mov	r6, r0
 8003f14:	b978      	cbnz	r0, 8003f36 <USBH_Process+0x224>
 8003f16:	2002      	movs	r0, #2
 8003f18:	f001 ff5a 	bl	8005dd0 <USBH_Delay>
 8003f1c:	2303      	movs	r3, #3
 8003f1e:	7063      	strb	r3, [r4, #1]
 8003f20:	79a3      	ldrb	r3, [r4, #6]
 8003f22:	2501      	movs	r5, #1
 8003f24:	e9cd 6301 	strd	r6, r3, [sp, #4]
 8003f28:	f894 331d 	ldrb.w	r3, [r4, #797]	; 0x31d
 8003f2c:	9300      	str	r3, [sp, #0]
 8003f2e:	f884 531c 	strb.w	r5, [r4, #796]	; 0x31c
 8003f32:	462b      	mov	r3, r5
 8003f34:	e78e      	b.n	8003e54 <USBH_Process+0x142>
 8003f36:	2803      	cmp	r0, #3
 8003f38:	d1a1      	bne.n	8003e7e <USBH_Process+0x16c>
 8003f3a:	230d      	movs	r3, #13
 8003f3c:	7023      	strb	r3, [r4, #0]
 8003f3e:	2300      	movs	r3, #0
 8003f40:	7063      	strb	r3, [r4, #1]
 8003f42:	e79c      	b.n	8003e7e <USBH_Process+0x16c>
 8003f44:	2109      	movs	r1, #9
 8003f46:	f000 fa24 	bl	8004392 <USBH_Get_CfgDesc>
 8003f4a:	b940      	cbnz	r0, 8003f5e <USBH_Process+0x24c>
 8003f4c:	2304      	movs	r3, #4
 8003f4e:	e7f7      	b.n	8003f40 <USBH_Process+0x22e>
 8003f50:	f8b0 133a 	ldrh.w	r1, [r0, #826]	; 0x33a
 8003f54:	f000 fa1d 	bl	8004392 <USBH_Get_CfgDesc>
 8003f58:	b908      	cbnz	r0, 8003f5e <USBH_Process+0x24c>
 8003f5a:	2305      	movs	r3, #5
 8003f5c:	e7f0      	b.n	8003f40 <USBH_Process+0x22e>
 8003f5e:	2803      	cmp	r0, #3
 8003f60:	d18d      	bne.n	8003e7e <USBH_Process+0x16c>
 8003f62:	f894 331e 	ldrb.w	r3, [r4, #798]	; 0x31e
 8003f66:	3301      	adds	r3, #1
 8003f68:	b2db      	uxtb	r3, r3
 8003f6a:	2b03      	cmp	r3, #3
 8003f6c:	f884 331e 	strb.w	r3, [r4, #798]	; 0x31e
 8003f70:	d88f      	bhi.n	8003e92 <USBH_Process+0x180>
 8003f72:	7961      	ldrb	r1, [r4, #5]
 8003f74:	4620      	mov	r0, r4
 8003f76:	f000 fb7e 	bl	8004676 <USBH_FreePipe>
 8003f7a:	7921      	ldrb	r1, [r4, #4]
 8003f7c:	4620      	mov	r0, r4
 8003f7e:	f000 fb7a 	bl	8004676 <USBH_FreePipe>
 8003f82:	2300      	movs	r3, #0
 8003f84:	7063      	strb	r3, [r4, #1]
 8003f86:	e78f      	b.n	8003ea8 <USBH_Process+0x196>
 8003f88:	f890 1334 	ldrb.w	r1, [r0, #820]	; 0x334
 8003f8c:	b129      	cbz	r1, 8003f9a <USBH_Process+0x288>
 8003f8e:	23ff      	movs	r3, #255	; 0xff
 8003f90:	f500 728e 	add.w	r2, r0, #284	; 0x11c
 8003f94:	f000 fa8a 	bl	80044ac <USBH_Get_StringDesc>
 8003f98:	b908      	cbnz	r0, 8003f9e <USBH_Process+0x28c>
 8003f9a:	2306      	movs	r3, #6
 8003f9c:	e7d0      	b.n	8003f40 <USBH_Process+0x22e>
 8003f9e:	2803      	cmp	r0, #3
 8003fa0:	f47f af6d 	bne.w	8003e7e <USBH_Process+0x16c>
 8003fa4:	e7f9      	b.n	8003f9a <USBH_Process+0x288>
 8003fa6:	f890 1335 	ldrb.w	r1, [r0, #821]	; 0x335
 8003faa:	b129      	cbz	r1, 8003fb8 <USBH_Process+0x2a6>
 8003fac:	23ff      	movs	r3, #255	; 0xff
 8003fae:	f500 728e 	add.w	r2, r0, #284	; 0x11c
 8003fb2:	f000 fa7b 	bl	80044ac <USBH_Get_StringDesc>
 8003fb6:	b908      	cbnz	r0, 8003fbc <USBH_Process+0x2aa>
 8003fb8:	2307      	movs	r3, #7
 8003fba:	e7c1      	b.n	8003f40 <USBH_Process+0x22e>
 8003fbc:	2803      	cmp	r0, #3
 8003fbe:	f47f af5e 	bne.w	8003e7e <USBH_Process+0x16c>
 8003fc2:	e7f9      	b.n	8003fb8 <USBH_Process+0x2a6>
 8003fc4:	f890 1336 	ldrb.w	r1, [r0, #822]	; 0x336
 8003fc8:	b909      	cbnz	r1, 8003fce <USBH_Process+0x2bc>
 8003fca:	2500      	movs	r5, #0
 8003fcc:	e774      	b.n	8003eb8 <USBH_Process+0x1a6>
 8003fce:	23ff      	movs	r3, #255	; 0xff
 8003fd0:	f500 728e 	add.w	r2, r0, #284	; 0x11c
 8003fd4:	f000 fa6a 	bl	80044ac <USBH_Get_StringDesc>
 8003fd8:	2800      	cmp	r0, #0
 8003fda:	d0f6      	beq.n	8003fca <USBH_Process+0x2b8>
 8003fdc:	1ec5      	subs	r5, r0, #3
 8003fde:	bf18      	it	ne
 8003fe0:	2501      	movne	r5, #1
 8003fe2:	e769      	b.n	8003eb8 <USBH_Process+0x1a6>
 8003fe4:	2307      	movs	r3, #7
 8003fe6:	e6cc      	b.n	8003d82 <USBH_Process+0x70>
 8003fe8:	f8d0 33d4 	ldr.w	r3, [r0, #980]	; 0x3d4
 8003fec:	2b00      	cmp	r3, #0
 8003fee:	f43f aebd 	beq.w	8003d6c <USBH_Process+0x5a>
 8003ff2:	2101      	movs	r1, #1
 8003ff4:	4798      	blx	r3
 8003ff6:	e76f      	b.n	8003ed8 <USBH_Process+0x1c6>
 8003ff8:	f890 133d 	ldrb.w	r1, [r0, #829]	; 0x33d
 8003ffc:	f000 fa8a 	bl	8004514 <USBH_SetCfg>
 8004000:	2800      	cmp	r0, #0
 8004002:	f47f aeb3 	bne.w	8003d6c <USBH_Process+0x5a>
 8004006:	2309      	movs	r3, #9
 8004008:	e6bb      	b.n	8003d82 <USBH_Process+0x70>
 800400a:	f890 333f 	ldrb.w	r3, [r0, #831]	; 0x33f
 800400e:	069b      	lsls	r3, r3, #26
 8004010:	d505      	bpl.n	800401e <USBH_Process+0x30c>
 8004012:	2101      	movs	r1, #1
 8004014:	f000 fa8b 	bl	800452e <USBH_SetFeature>
 8004018:	2800      	cmp	r0, #0
 800401a:	f47f aea7 	bne.w	8003d6c <USBH_Process+0x5a>
 800401e:	230a      	movs	r3, #10
 8004020:	e6af      	b.n	8003d82 <USBH_Process+0x70>
 8004022:	f8d0 3380 	ldr.w	r3, [r0, #896]	; 0x380
 8004026:	2b00      	cmp	r3, #0
 8004028:	f43f aea0 	beq.w	8003d6c <USBH_Process+0x5a>
 800402c:	2300      	movs	r3, #0
 800402e:	f8c0 337c 	str.w	r3, [r0, #892]	; 0x37c
 8004032:	f8d0 3378 	ldr.w	r3, [r0, #888]	; 0x378
 8004036:	f890 2347 	ldrb.w	r2, [r0, #839]	; 0x347
 800403a:	7919      	ldrb	r1, [r3, #4]
 800403c:	4291      	cmp	r1, r2
 800403e:	bf18      	it	ne
 8004040:	2300      	movne	r3, #0
 8004042:	f8c0 337c 	str.w	r3, [r0, #892]	; 0x37c
 8004046:	2b00      	cmp	r3, #0
 8004048:	f43f aeaa 	beq.w	8003da0 <USBH_Process+0x8e>
 800404c:	689b      	ldr	r3, [r3, #8]
 800404e:	4798      	blx	r3
 8004050:	2800      	cmp	r0, #0
 8004052:	f47f aea5 	bne.w	8003da0 <USBH_Process+0x8e>
 8004056:	2306      	movs	r3, #6
 8004058:	7023      	strb	r3, [r4, #0]
 800405a:	2103      	movs	r1, #3
 800405c:	f8d4 33d4 	ldr.w	r3, [r4, #980]	; 0x3d4
 8004060:	4620      	mov	r0, r4
 8004062:	4798      	blx	r3
 8004064:	e682      	b.n	8003d6c <USBH_Process+0x5a>
 8004066:	f8d0 337c 	ldr.w	r3, [r0, #892]	; 0x37c
 800406a:	2b00      	cmp	r3, #0
 800406c:	f43f ae98 	beq.w	8003da0 <USBH_Process+0x8e>
 8004070:	691b      	ldr	r3, [r3, #16]
 8004072:	4798      	blx	r3
 8004074:	f88d 0017 	strb.w	r0, [sp, #23]
 8004078:	f89d 3017 	ldrb.w	r3, [sp, #23]
 800407c:	b90b      	cbnz	r3, 8004082 <USBH_Process+0x370>
 800407e:	230b      	movs	r3, #11
 8004080:	e67f      	b.n	8003d82 <USBH_Process+0x70>
 8004082:	f89d 3017 	ldrb.w	r3, [sp, #23]
 8004086:	2b02      	cmp	r3, #2
 8004088:	f47f ae70 	bne.w	8003d6c <USBH_Process+0x5a>
 800408c:	e688      	b.n	8003da0 <USBH_Process+0x8e>
 800408e:	f8d0 337c 	ldr.w	r3, [r0, #892]	; 0x37c
 8004092:	2b00      	cmp	r3, #0
 8004094:	f43f ae6a 	beq.w	8003d6c <USBH_Process+0x5a>
 8004098:	695b      	ldr	r3, [r3, #20]
 800409a:	4798      	blx	r3
 800409c:	e666      	b.n	8003d6c <USBH_Process+0x5a>
 800409e:	2500      	movs	r5, #0
 80040a0:	f880 5321 	strb.w	r5, [r0, #801]	; 0x321
 80040a4:	f7ff fdbb 	bl	8003c1e <DeInitStateMachine>
 80040a8:	f8d4 337c 	ldr.w	r3, [r4, #892]	; 0x37c
 80040ac:	b123      	cbz	r3, 80040b8 <USBH_Process+0x3a6>
 80040ae:	68db      	ldr	r3, [r3, #12]
 80040b0:	4620      	mov	r0, r4
 80040b2:	4798      	blx	r3
 80040b4:	f8c4 537c 	str.w	r5, [r4, #892]	; 0x37c
 80040b8:	f8d4 33d4 	ldr.w	r3, [r4, #980]	; 0x3d4
 80040bc:	b113      	cbz	r3, 80040c4 <USBH_Process+0x3b2>
 80040be:	2105      	movs	r1, #5
 80040c0:	4620      	mov	r0, r4
 80040c2:	4798      	blx	r3
 80040c4:	f894 3322 	ldrb.w	r3, [r4, #802]	; 0x322
 80040c8:	2b01      	cmp	r3, #1
 80040ca:	d106      	bne.n	80040da <USBH_Process+0x3c8>
 80040cc:	2300      	movs	r3, #0
 80040ce:	f884 3322 	strb.w	r3, [r4, #802]	; 0x322
 80040d2:	4620      	mov	r0, r4
 80040d4:	f7ff fe13 	bl	8003cfe <USBH_Start>
 80040d8:	e648      	b.n	8003d6c <USBH_Process+0x5a>
 80040da:	4620      	mov	r0, r4
 80040dc:	f001 fdd2 	bl	8005c84 <USBH_LL_Start>
 80040e0:	e644      	b.n	8003d6c <USBH_Process+0x5a>

080040e2 <USBH_LL_SetTimer>:
 80040e2:	f8c0 13c4 	str.w	r1, [r0, #964]	; 0x3c4
 80040e6:	4770      	bx	lr

080040e8 <USBH_LL_IncTimer>:
 80040e8:	f8d0 23c4 	ldr.w	r2, [r0, #964]	; 0x3c4
 80040ec:	3201      	adds	r2, #1
 80040ee:	f8c0 23c4 	str.w	r2, [r0, #964]	; 0x3c4
 80040f2:	7802      	ldrb	r2, [r0, #0]
 80040f4:	2a0b      	cmp	r2, #11
 80040f6:	d104      	bne.n	8004102 <USBH_LL_IncTimer+0x1a>
 80040f8:	f8d0 337c 	ldr.w	r3, [r0, #892]	; 0x37c
 80040fc:	b10b      	cbz	r3, 8004102 <USBH_LL_IncTimer+0x1a>
 80040fe:	699b      	ldr	r3, [r3, #24]
 8004100:	4718      	bx	r3
 8004102:	4770      	bx	lr

08004104 <USBH_LL_PortEnabled>:
 8004104:	2301      	movs	r3, #1
 8004106:	f880 3323 	strb.w	r3, [r0, #803]	; 0x323
 800410a:	4770      	bx	lr

0800410c <USBH_LL_PortDisabled>:
 800410c:	2300      	movs	r3, #0
 800410e:	f880 3323 	strb.w	r3, [r0, #803]	; 0x323
 8004112:	4770      	bx	lr

08004114 <USBH_LL_Connect>:
 8004114:	2301      	movs	r3, #1
 8004116:	f880 3320 	strb.w	r3, [r0, #800]	; 0x320
 800411a:	2300      	movs	r3, #0
 800411c:	f880 3321 	strb.w	r3, [r0, #801]	; 0x321
 8004120:	f880 3322 	strb.w	r3, [r0, #802]	; 0x322
 8004124:	4618      	mov	r0, r3
 8004126:	4770      	bx	lr

08004128 <USBH_LL_Disconnect>:
 8004128:	b538      	push	{r3, r4, r5, lr}
 800412a:	4604      	mov	r4, r0
 800412c:	2301      	movs	r3, #1
 800412e:	2500      	movs	r5, #0
 8004130:	f880 3321 	strb.w	r3, [r0, #801]	; 0x321
 8004134:	f880 5323 	strb.w	r5, [r0, #803]	; 0x323
 8004138:	f880 5320 	strb.w	r5, [r0, #800]	; 0x320
 800413c:	f001 fdb0 	bl	8005ca0 <USBH_LL_Stop>
 8004140:	7921      	ldrb	r1, [r4, #4]
 8004142:	4620      	mov	r0, r4
 8004144:	f000 fa97 	bl	8004676 <USBH_FreePipe>
 8004148:	7961      	ldrb	r1, [r4, #5]
 800414a:	4620      	mov	r0, r4
 800414c:	f000 fa93 	bl	8004676 <USBH_FreePipe>
 8004150:	4628      	mov	r0, r5
 8004152:	bd38      	pop	{r3, r4, r5, pc}

08004154 <USBH_CtlReq>:
 8004154:	b573      	push	{r0, r1, r4, r5, r6, lr}
 8004156:	7885      	ldrb	r5, [r0, #2]
 8004158:	2d01      	cmp	r5, #1
 800415a:	4604      	mov	r4, r0
 800415c:	d003      	beq.n	8004166 <USBH_CtlReq+0x12>
 800415e:	2d02      	cmp	r5, #2
 8004160:	d007      	beq.n	8004172 <USBH_CtlReq+0x1e>
 8004162:	2501      	movs	r5, #1
 8004164:	e019      	b.n	800419a <USBH_CtlReq+0x46>
 8004166:	6081      	str	r1, [r0, #8]
 8004168:	8182      	strh	r2, [r0, #12]
 800416a:	7605      	strb	r5, [r0, #24]
 800416c:	2302      	movs	r3, #2
 800416e:	70a3      	strb	r3, [r4, #2]
 8004170:	e013      	b.n	800419a <USBH_CtlReq+0x46>
 8004172:	7e06      	ldrb	r6, [r0, #24]
 8004174:	1e73      	subs	r3, r6, #1
 8004176:	2b0a      	cmp	r3, #10
 8004178:	d8f3      	bhi.n	8004162 <USBH_CtlReq+0xe>
 800417a:	e8df f003 	tbb	[pc, r3]
 800417e:	1106      	.short	0x1106
 8004180:	4e42392f 	.word	0x4e42392f
 8004184:	8478675d 	.word	0x8478675d
 8004188:	8c          	.byte	0x8c
 8004189:	00          	.byte	0x00
 800418a:	7942      	ldrb	r2, [r0, #5]
 800418c:	f100 0110 	add.w	r1, r0, #16
 8004190:	f000 f9e7 	bl	8004562 <USBH_CtlSendSetup>
 8004194:	2302      	movs	r3, #2
 8004196:	7623      	strb	r3, [r4, #24]
 8004198:	4635      	mov	r5, r6
 800419a:	4628      	mov	r0, r5
 800419c:	b002      	add	sp, #8
 800419e:	bd70      	pop	{r4, r5, r6, pc}
 80041a0:	7941      	ldrb	r1, [r0, #5]
 80041a2:	f001 fde7 	bl	8005d74 <USBH_LL_GetURBState>
 80041a6:	2801      	cmp	r0, #1
 80041a8:	4605      	mov	r5, r0
 80041aa:	d111      	bne.n	80041d0 <USBH_CtlReq+0x7c>
 80041ac:	8ae2      	ldrh	r2, [r4, #22]
 80041ae:	f994 3010 	ldrsb.w	r3, [r4, #16]
 80041b2:	b13a      	cbz	r2, 80041c4 <USBH_CtlReq+0x70>
 80041b4:	2b00      	cmp	r3, #0
 80041b6:	da02      	bge.n	80041be <USBH_CtlReq+0x6a>
 80041b8:	2303      	movs	r3, #3
 80041ba:	7623      	strb	r3, [r4, #24]
 80041bc:	e7ed      	b.n	800419a <USBH_CtlReq+0x46>
 80041be:	2305      	movs	r3, #5
 80041c0:	7623      	strb	r3, [r4, #24]
 80041c2:	e7ce      	b.n	8004162 <USBH_CtlReq+0xe>
 80041c4:	2b00      	cmp	r3, #0
 80041c6:	da01      	bge.n	80041cc <USBH_CtlReq+0x78>
 80041c8:	2309      	movs	r3, #9
 80041ca:	e7f9      	b.n	80041c0 <USBH_CtlReq+0x6c>
 80041cc:	2307      	movs	r3, #7
 80041ce:	e7f7      	b.n	80041c0 <USBH_CtlReq+0x6c>
 80041d0:	2804      	cmp	r0, #4
 80041d2:	d001      	beq.n	80041d8 <USBH_CtlReq+0x84>
 80041d4:	2802      	cmp	r0, #2
 80041d6:	d1c4      	bne.n	8004162 <USBH_CtlReq+0xe>
 80041d8:	230b      	movs	r3, #11
 80041da:	e7f1      	b.n	80041c0 <USBH_CtlReq+0x6c>
 80041dc:	f8d0 33c4 	ldr.w	r3, [r0, #964]	; 0x3c4
 80041e0:	81c3      	strh	r3, [r0, #14]
 80041e2:	8982      	ldrh	r2, [r0, #12]
 80041e4:	7903      	ldrb	r3, [r0, #4]
 80041e6:	6881      	ldr	r1, [r0, #8]
 80041e8:	f000 f9e2 	bl	80045b0 <USBH_CtlReceiveData>
 80041ec:	2304      	movs	r3, #4
 80041ee:	e7e7      	b.n	80041c0 <USBH_CtlReq+0x6c>
 80041f0:	7901      	ldrb	r1, [r0, #4]
 80041f2:	f001 fdbf 	bl	8005d74 <USBH_LL_GetURBState>
 80041f6:	2801      	cmp	r0, #1
 80041f8:	d0e6      	beq.n	80041c8 <USBH_CtlReq+0x74>
 80041fa:	2805      	cmp	r0, #5
 80041fc:	d035      	beq.n	800426a <USBH_CtlReq+0x116>
 80041fe:	2804      	cmp	r0, #4
 8004200:	e7e9      	b.n	80041d6 <USBH_CtlReq+0x82>
 8004202:	2501      	movs	r5, #1
 8004204:	9500      	str	r5, [sp, #0]
 8004206:	7943      	ldrb	r3, [r0, #5]
 8004208:	8982      	ldrh	r2, [r0, #12]
 800420a:	6881      	ldr	r1, [r0, #8]
 800420c:	f000 f9b9 	bl	8004582 <USBH_CtlSendData>
 8004210:	f8d4 33c4 	ldr.w	r3, [r4, #964]	; 0x3c4
 8004214:	81e3      	strh	r3, [r4, #14]
 8004216:	2306      	movs	r3, #6
 8004218:	e7cf      	b.n	80041ba <USBH_CtlReq+0x66>
 800421a:	7941      	ldrb	r1, [r0, #5]
 800421c:	f001 fdaa 	bl	8005d74 <USBH_LL_GetURBState>
 8004220:	2801      	cmp	r0, #1
 8004222:	d0d3      	beq.n	80041cc <USBH_CtlReq+0x78>
 8004224:	2805      	cmp	r0, #5
 8004226:	d020      	beq.n	800426a <USBH_CtlReq+0x116>
 8004228:	2802      	cmp	r0, #2
 800422a:	d0c8      	beq.n	80041be <USBH_CtlReq+0x6a>
 800422c:	2804      	cmp	r0, #4
 800422e:	d198      	bne.n	8004162 <USBH_CtlReq+0xe>
 8004230:	230b      	movs	r3, #11
 8004232:	7623      	strb	r3, [r4, #24]
 8004234:	2301      	movs	r3, #1
 8004236:	e79a      	b.n	800416e <USBH_CtlReq+0x1a>
 8004238:	2200      	movs	r2, #0
 800423a:	7903      	ldrb	r3, [r0, #4]
 800423c:	4611      	mov	r1, r2
 800423e:	f000 f9b7 	bl	80045b0 <USBH_CtlReceiveData>
 8004242:	f8d4 33c4 	ldr.w	r3, [r4, #964]	; 0x3c4
 8004246:	81e3      	strh	r3, [r4, #14]
 8004248:	2308      	movs	r3, #8
 800424a:	e7b9      	b.n	80041c0 <USBH_CtlReq+0x6c>
 800424c:	7901      	ldrb	r1, [r0, #4]
 800424e:	f001 fd91 	bl	8005d74 <USBH_LL_GetURBState>
 8004252:	2801      	cmp	r0, #1
 8004254:	d104      	bne.n	8004260 <USBH_CtlReq+0x10c>
 8004256:	2500      	movs	r5, #0
 8004258:	2301      	movs	r3, #1
 800425a:	70a3      	strb	r3, [r4, #2]
 800425c:	2300      	movs	r3, #0
 800425e:	e7ac      	b.n	80041ba <USBH_CtlReq+0x66>
 8004260:	2804      	cmp	r0, #4
 8004262:	d0b9      	beq.n	80041d8 <USBH_CtlReq+0x84>
 8004264:	2805      	cmp	r0, #5
 8004266:	f47f af7c 	bne.w	8004162 <USBH_CtlReq+0xe>
 800426a:	2503      	movs	r5, #3
 800426c:	e7f4      	b.n	8004258 <USBH_CtlReq+0x104>
 800426e:	2501      	movs	r5, #1
 8004270:	9500      	str	r5, [sp, #0]
 8004272:	2200      	movs	r2, #0
 8004274:	7943      	ldrb	r3, [r0, #5]
 8004276:	4611      	mov	r1, r2
 8004278:	f000 f983 	bl	8004582 <USBH_CtlSendData>
 800427c:	f8d4 33c4 	ldr.w	r3, [r4, #964]	; 0x3c4
 8004280:	81e3      	strh	r3, [r4, #14]
 8004282:	230a      	movs	r3, #10
 8004284:	e799      	b.n	80041ba <USBH_CtlReq+0x66>
 8004286:	7941      	ldrb	r1, [r0, #5]
 8004288:	f001 fd74 	bl	8005d74 <USBH_LL_GetURBState>
 800428c:	2801      	cmp	r0, #1
 800428e:	d0e2      	beq.n	8004256 <USBH_CtlReq+0x102>
 8004290:	2802      	cmp	r0, #2
 8004292:	d1b4      	bne.n	80041fe <USBH_CtlReq+0xaa>
 8004294:	e798      	b.n	80041c8 <USBH_CtlReq+0x74>
 8004296:	7e43      	ldrb	r3, [r0, #25]
 8004298:	3301      	adds	r3, #1
 800429a:	b2db      	uxtb	r3, r3
 800429c:	2b02      	cmp	r3, #2
 800429e:	7643      	strb	r3, [r0, #25]
 80042a0:	d803      	bhi.n	80042aa <USBH_CtlReq+0x156>
 80042a2:	2501      	movs	r5, #1
 80042a4:	7605      	strb	r5, [r0, #24]
 80042a6:	7085      	strb	r5, [r0, #2]
 80042a8:	e777      	b.n	800419a <USBH_CtlReq+0x46>
 80042aa:	f8d0 33d4 	ldr.w	r3, [r0, #980]	; 0x3d4
 80042ae:	2106      	movs	r1, #6
 80042b0:	2600      	movs	r6, #0
 80042b2:	4798      	blx	r3
 80042b4:	7961      	ldrb	r1, [r4, #5]
 80042b6:	7666      	strb	r6, [r4, #25]
 80042b8:	4620      	mov	r0, r4
 80042ba:	f000 f9dc 	bl	8004676 <USBH_FreePipe>
 80042be:	7921      	ldrb	r1, [r4, #4]
 80042c0:	4620      	mov	r0, r4
 80042c2:	f000 f9d8 	bl	8004676 <USBH_FreePipe>
 80042c6:	7026      	strb	r6, [r4, #0]
 80042c8:	e7b4      	b.n	8004234 <USBH_CtlReq+0xe0>

080042ca <USBH_GetDescriptor>:
 80042ca:	b430      	push	{r4, r5}
 80042cc:	460c      	mov	r4, r1
 80042ce:	4619      	mov	r1, r3
 80042d0:	7883      	ldrb	r3, [r0, #2]
 80042d2:	f8bd 5008 	ldrh.w	r5, [sp, #8]
 80042d6:	2b01      	cmp	r3, #1
 80042d8:	d10f      	bne.n	80042fa <USBH_GetDescriptor+0x30>
 80042da:	f064 047f 	orn	r4, r4, #127	; 0x7f
 80042de:	7404      	strb	r4, [r0, #16]
 80042e0:	f402 447f 	and.w	r4, r2, #65280	; 0xff00
 80042e4:	2306      	movs	r3, #6
 80042e6:	f5b4 7f40 	cmp.w	r4, #768	; 0x300
 80042ea:	7443      	strb	r3, [r0, #17]
 80042ec:	f240 4309 	movw	r3, #1033	; 0x409
 80042f0:	bf18      	it	ne
 80042f2:	2300      	movne	r3, #0
 80042f4:	8242      	strh	r2, [r0, #18]
 80042f6:	8283      	strh	r3, [r0, #20]
 80042f8:	82c5      	strh	r5, [r0, #22]
 80042fa:	462a      	mov	r2, r5
 80042fc:	bc30      	pop	{r4, r5}
 80042fe:	f7ff bf29 	b.w	8004154 <USBH_CtlReq>

08004302 <USBH_Get_DevDesc>:
 8004302:	b537      	push	{r0, r1, r2, r4, r5, lr}
 8004304:	f500 738e 	add.w	r3, r0, #284	; 0x11c
 8004308:	460d      	mov	r5, r1
 800430a:	9100      	str	r1, [sp, #0]
 800430c:	f44f 7280 	mov.w	r2, #256	; 0x100
 8004310:	2100      	movs	r1, #0
 8004312:	4604      	mov	r4, r0
 8004314:	f7ff ffd9 	bl	80042ca <USBH_GetDescriptor>
 8004318:	bbc8      	cbnz	r0, 800438e <USBH_Get_DevDesc+0x8c>
 800431a:	f894 311c 	ldrb.w	r3, [r4, #284]	; 0x11c
 800431e:	f884 3326 	strb.w	r3, [r4, #806]	; 0x326
 8004322:	f894 311d 	ldrb.w	r3, [r4, #285]	; 0x11d
 8004326:	f884 3327 	strb.w	r3, [r4, #807]	; 0x327
 800432a:	f8b4 311e 	ldrh.w	r3, [r4, #286]	; 0x11e
 800432e:	f8a4 3328 	strh.w	r3, [r4, #808]	; 0x328
 8004332:	f894 3120 	ldrb.w	r3, [r4, #288]	; 0x120
 8004336:	f884 332a 	strb.w	r3, [r4, #810]	; 0x32a
 800433a:	f894 3121 	ldrb.w	r3, [r4, #289]	; 0x121
 800433e:	f884 332b 	strb.w	r3, [r4, #811]	; 0x32b
 8004342:	f894 3122 	ldrb.w	r3, [r4, #290]	; 0x122
 8004346:	f884 332c 	strb.w	r3, [r4, #812]	; 0x32c
 800434a:	2d08      	cmp	r5, #8
 800434c:	f894 3123 	ldrb.w	r3, [r4, #291]	; 0x123
 8004350:	f884 332d 	strb.w	r3, [r4, #813]	; 0x32d
 8004354:	d91b      	bls.n	800438e <USBH_Get_DevDesc+0x8c>
 8004356:	f8b4 3124 	ldrh.w	r3, [r4, #292]	; 0x124
 800435a:	f8a4 332e 	strh.w	r3, [r4, #814]	; 0x32e
 800435e:	f8b4 3126 	ldrh.w	r3, [r4, #294]	; 0x126
 8004362:	f8a4 3330 	strh.w	r3, [r4, #816]	; 0x330
 8004366:	f8b4 3128 	ldrh.w	r3, [r4, #296]	; 0x128
 800436a:	f8a4 3332 	strh.w	r3, [r4, #818]	; 0x332
 800436e:	f894 312a 	ldrb.w	r3, [r4, #298]	; 0x12a
 8004372:	f884 3334 	strb.w	r3, [r4, #820]	; 0x334
 8004376:	f894 312b 	ldrb.w	r3, [r4, #299]	; 0x12b
 800437a:	f884 3335 	strb.w	r3, [r4, #821]	; 0x335
 800437e:	f894 312c 	ldrb.w	r3, [r4, #300]	; 0x12c
 8004382:	f884 3336 	strb.w	r3, [r4, #822]	; 0x336
 8004386:	f894 312d 	ldrb.w	r3, [r4, #301]	; 0x12d
 800438a:	f884 3337 	strb.w	r3, [r4, #823]	; 0x337
 800438e:	b003      	add	sp, #12
 8004390:	bd30      	pop	{r4, r5, pc}

08004392 <USBH_Get_CfgDesc>:
 8004392:	e92d 43f7 	stmdb	sp!, {r0, r1, r2, r4, r5, r6, r7, r8, r9, lr}
 8004396:	f100 041c 	add.w	r4, r0, #28
 800439a:	460e      	mov	r6, r1
 800439c:	9100      	str	r1, [sp, #0]
 800439e:	4623      	mov	r3, r4
 80043a0:	f44f 7200 	mov.w	r2, #512	; 0x200
 80043a4:	2100      	movs	r1, #0
 80043a6:	4605      	mov	r5, r0
 80043a8:	f7ff ff8f 	bl	80042ca <USBH_GetDescriptor>
 80043ac:	bb40      	cbnz	r0, 8004400 <USBH_Get_CfgDesc+0x6e>
 80043ae:	7f2b      	ldrb	r3, [r5, #28]
 80043b0:	f885 3338 	strb.w	r3, [r5, #824]	; 0x338
 80043b4:	7f6b      	ldrb	r3, [r5, #29]
 80043b6:	f885 3339 	strb.w	r3, [r5, #825]	; 0x339
 80043ba:	f895 3020 	ldrb.w	r3, [r5, #32]
 80043be:	f885 333c 	strb.w	r3, [r5, #828]	; 0x33c
 80043c2:	f895 3021 	ldrb.w	r3, [r5, #33]	; 0x21
 80043c6:	f885 333d 	strb.w	r3, [r5, #829]	; 0x33d
 80043ca:	f895 3022 	ldrb.w	r3, [r5, #34]	; 0x22
 80043ce:	f885 333e 	strb.w	r3, [r5, #830]	; 0x33e
 80043d2:	f895 3023 	ldrb.w	r3, [r5, #35]	; 0x23
 80043d6:	f8b5 c01e 	ldrh.w	ip, [r5, #30]
 80043da:	f885 333f 	strb.w	r3, [r5, #831]	; 0x33f
 80043de:	2e09      	cmp	r6, #9
 80043e0:	f895 3024 	ldrb.w	r3, [r5, #36]	; 0x24
 80043e4:	f8a5 c33a 	strh.w	ip, [r5, #826]	; 0x33a
 80043e8:	f885 3340 	strb.w	r3, [r5, #832]	; 0x340
 80043ec:	d908      	bls.n	8004400 <USBH_Get_CfgDesc+0x6e>
 80043ee:	462b      	mov	r3, r5
 80043f0:	4607      	mov	r7, r0
 80043f2:	2209      	movs	r2, #9
 80043f4:	f04f 0e1a 	mov.w	lr, #26
 80043f8:	2f02      	cmp	r7, #2
 80043fa:	d001      	beq.n	8004400 <USBH_Get_CfgDesc+0x6e>
 80043fc:	4594      	cmp	ip, r2
 80043fe:	d802      	bhi.n	8004406 <USBH_Get_CfgDesc+0x74>
 8004400:	b003      	add	sp, #12
 8004402:	e8bd 83f0 	ldmia.w	sp!, {r4, r5, r6, r7, r8, r9, pc}
 8004406:	7821      	ldrb	r1, [r4, #0]
 8004408:	440c      	add	r4, r1
 800440a:	440a      	add	r2, r1
 800440c:	7861      	ldrb	r1, [r4, #1]
 800440e:	2904      	cmp	r1, #4
 8004410:	b292      	uxth	r2, r2
 8004412:	d1f1      	bne.n	80043f8 <USBH_Get_CfgDesc+0x66>
 8004414:	7821      	ldrb	r1, [r4, #0]
 8004416:	f883 1342 	strb.w	r1, [r3, #834]	; 0x342
 800441a:	7861      	ldrb	r1, [r4, #1]
 800441c:	f883 1343 	strb.w	r1, [r3, #835]	; 0x343
 8004420:	78a1      	ldrb	r1, [r4, #2]
 8004422:	f883 1344 	strb.w	r1, [r3, #836]	; 0x344
 8004426:	78e1      	ldrb	r1, [r4, #3]
 8004428:	f883 1345 	strb.w	r1, [r3, #837]	; 0x345
 800442c:	7921      	ldrb	r1, [r4, #4]
 800442e:	f883 1346 	strb.w	r1, [r3, #838]	; 0x346
 8004432:	7961      	ldrb	r1, [r4, #5]
 8004434:	f883 1347 	strb.w	r1, [r3, #839]	; 0x347
 8004438:	79a1      	ldrb	r1, [r4, #6]
 800443a:	f883 1348 	strb.w	r1, [r3, #840]	; 0x348
 800443e:	79e1      	ldrb	r1, [r4, #7]
 8004440:	f883 1349 	strb.w	r1, [r3, #841]	; 0x349
 8004444:	7a21      	ldrb	r1, [r4, #8]
 8004446:	f883 134a 	strb.w	r1, [r3, #842]	; 0x34a
 800444a:	fb0e f807 	mul.w	r8, lr, r7
 800444e:	2100      	movs	r1, #0
 8004450:	f893 6346 	ldrb.w	r6, [r3, #838]	; 0x346
 8004454:	428e      	cmp	r6, r1
 8004456:	d901      	bls.n	800445c <USBH_Get_CfgDesc+0xca>
 8004458:	4594      	cmp	ip, r2
 800445a:	d802      	bhi.n	8004462 <USBH_Get_CfgDesc+0xd0>
 800445c:	3701      	adds	r7, #1
 800445e:	331a      	adds	r3, #26
 8004460:	e7ca      	b.n	80043f8 <USBH_Get_CfgDesc+0x66>
 8004462:	7826      	ldrb	r6, [r4, #0]
 8004464:	4434      	add	r4, r6
 8004466:	4432      	add	r2, r6
 8004468:	7866      	ldrb	r6, [r4, #1]
 800446a:	2e05      	cmp	r6, #5
 800446c:	b292      	uxth	r2, r2
 800446e:	d1ef      	bne.n	8004450 <USBH_Get_CfgDesc+0xbe>
 8004470:	1c4e      	adds	r6, r1, #1
 8004472:	eb08 01c6 	add.w	r1, r8, r6, lsl #3
 8004476:	4429      	add	r1, r5
 8004478:	f894 9000 	ldrb.w	r9, [r4]
 800447c:	f881 9344 	strb.w	r9, [r1, #836]	; 0x344
 8004480:	f894 9001 	ldrb.w	r9, [r4, #1]
 8004484:	f881 9345 	strb.w	r9, [r1, #837]	; 0x345
 8004488:	f894 9002 	ldrb.w	r9, [r4, #2]
 800448c:	f881 9346 	strb.w	r9, [r1, #838]	; 0x346
 8004490:	f894 9003 	ldrb.w	r9, [r4, #3]
 8004494:	f881 9347 	strb.w	r9, [r1, #839]	; 0x347
 8004498:	f8b4 9004 	ldrh.w	r9, [r4, #4]
 800449c:	f8a1 9348 	strh.w	r9, [r1, #840]	; 0x348
 80044a0:	f894 9006 	ldrb.w	r9, [r4, #6]
 80044a4:	f881 934a 	strb.w	r9, [r1, #842]	; 0x34a
 80044a8:	b2f1      	uxtb	r1, r6
 80044aa:	e7d1      	b.n	8004450 <USBH_Get_CfgDesc+0xbe>

080044ac <USBH_Get_StringDesc>:
 80044ac:	b5f7      	push	{r0, r1, r2, r4, r5, r6, r7, lr}
 80044ae:	f500 768e 	add.w	r6, r0, #284	; 0x11c
 80044b2:	4615      	mov	r5, r2
 80044b4:	461f      	mov	r7, r3
 80044b6:	9300      	str	r3, [sp, #0]
 80044b8:	f441 7240 	orr.w	r2, r1, #768	; 0x300
 80044bc:	4633      	mov	r3, r6
 80044be:	2100      	movs	r1, #0
 80044c0:	4604      	mov	r4, r0
 80044c2:	f7ff ff02 	bl	80042ca <USBH_GetDescriptor>
 80044c6:	b978      	cbnz	r0, 80044e8 <USBH_Get_StringDesc+0x3c>
 80044c8:	f894 311d 	ldrb.w	r3, [r4, #285]	; 0x11d
 80044cc:	2b03      	cmp	r3, #3
 80044ce:	d10b      	bne.n	80044e8 <USBH_Get_StringDesc+0x3c>
 80044d0:	f894 411c 	ldrb.w	r4, [r4, #284]	; 0x11c
 80044d4:	1ea1      	subs	r1, r4, #2
 80044d6:	42b9      	cmp	r1, r7
 80044d8:	bf28      	it	cs
 80044da:	4639      	movcs	r1, r7
 80044dc:	b289      	uxth	r1, r1
 80044de:	4604      	mov	r4, r0
 80044e0:	42a1      	cmp	r1, r4
 80044e2:	d803      	bhi.n	80044ec <USBH_Get_StringDesc+0x40>
 80044e4:	2300      	movs	r3, #0
 80044e6:	702b      	strb	r3, [r5, #0]
 80044e8:	b003      	add	sp, #12
 80044ea:	bdf0      	pop	{r4, r5, r6, r7, pc}
 80044ec:	1933      	adds	r3, r6, r4
 80044ee:	3402      	adds	r4, #2
 80044f0:	789b      	ldrb	r3, [r3, #2]
 80044f2:	f805 3b01 	strb.w	r3, [r5], #1
 80044f6:	b2a4      	uxth	r4, r4
 80044f8:	e7f2      	b.n	80044e0 <USBH_Get_StringDesc+0x34>

080044fa <USBH_SetAddress>:
 80044fa:	7883      	ldrb	r3, [r0, #2]
 80044fc:	2b01      	cmp	r3, #1
 80044fe:	d105      	bne.n	800450c <USBH_SetAddress+0x12>
 8004500:	f44f 63a0 	mov.w	r3, #1280	; 0x500
 8004504:	8203      	strh	r3, [r0, #16]
 8004506:	2300      	movs	r3, #0
 8004508:	8241      	strh	r1, [r0, #18]
 800450a:	6143      	str	r3, [r0, #20]
 800450c:	2200      	movs	r2, #0
 800450e:	4611      	mov	r1, r2
 8004510:	f7ff be20 	b.w	8004154 <USBH_CtlReq>

08004514 <USBH_SetCfg>:
 8004514:	7883      	ldrb	r3, [r0, #2]
 8004516:	2b01      	cmp	r3, #1
 8004518:	d105      	bne.n	8004526 <USBH_SetCfg+0x12>
 800451a:	f44f 6310 	mov.w	r3, #2304	; 0x900
 800451e:	8203      	strh	r3, [r0, #16]
 8004520:	2300      	movs	r3, #0
 8004522:	8241      	strh	r1, [r0, #18]
 8004524:	6143      	str	r3, [r0, #20]
 8004526:	2200      	movs	r2, #0
 8004528:	4611      	mov	r1, r2
 800452a:	f7ff be13 	b.w	8004154 <USBH_CtlReq>

0800452e <USBH_SetFeature>:
 800452e:	7883      	ldrb	r3, [r0, #2]
 8004530:	2b01      	cmp	r3, #1
 8004532:	d105      	bne.n	8004540 <USBH_SetFeature+0x12>
 8004534:	f44f 7340 	mov.w	r3, #768	; 0x300
 8004538:	8203      	strh	r3, [r0, #16]
 800453a:	2300      	movs	r3, #0
 800453c:	8241      	strh	r1, [r0, #18]
 800453e:	6143      	str	r3, [r0, #20]
 8004540:	2200      	movs	r2, #0
 8004542:	4611      	mov	r1, r2
 8004544:	f7ff be06 	b.w	8004154 <USBH_CtlReq>

08004548 <USBH_ClrFeature>:
 8004548:	7883      	ldrb	r3, [r0, #2]
 800454a:	2b01      	cmp	r3, #1
 800454c:	d105      	bne.n	800455a <USBH_ClrFeature+0x12>
 800454e:	f44f 7381 	mov.w	r3, #258	; 0x102
 8004552:	6103      	str	r3, [r0, #16]
 8004554:	2300      	movs	r3, #0
 8004556:	8281      	strh	r1, [r0, #20]
 8004558:	82c3      	strh	r3, [r0, #22]
 800455a:	2200      	movs	r2, #0
 800455c:	4611      	mov	r1, r2
 800455e:	f7ff bdf9 	b.w	8004154 <USBH_CtlReq>

08004562 <USBH_CtlSendSetup>:
 8004562:	b51f      	push	{r0, r1, r2, r3, r4, lr}
 8004564:	2400      	movs	r4, #0
 8004566:	460b      	mov	r3, r1
 8004568:	4611      	mov	r1, r2
 800456a:	2208      	movs	r2, #8
 800456c:	e9cd 2402 	strd	r2, r4, [sp, #8]
 8004570:	e9cd 4300 	strd	r4, r3, [sp]
 8004574:	4622      	mov	r2, r4
 8004576:	4623      	mov	r3, r4
 8004578:	f001 fbe2 	bl	8005d40 <USBH_LL_SubmitURB>
 800457c:	4620      	mov	r0, r4
 800457e:	b004      	add	sp, #16
 8004580:	bd10      	pop	{r4, pc}

08004582 <USBH_CtlSendData>:
 8004582:	b530      	push	{r4, r5, lr}
 8004584:	b085      	sub	sp, #20
 8004586:	f890 531d 	ldrb.w	r5, [r0, #797]	; 0x31d
 800458a:	460c      	mov	r4, r1
 800458c:	2d00      	cmp	r5, #0
 800458e:	4619      	mov	r1, r3
 8004590:	f89d 3020 	ldrb.w	r3, [sp, #32]
 8004594:	9401      	str	r4, [sp, #4]
 8004596:	bf18      	it	ne
 8004598:	2300      	movne	r3, #0
 800459a:	e9cd 2302 	strd	r2, r3, [sp, #8]
 800459e:	2301      	movs	r3, #1
 80045a0:	9300      	str	r3, [sp, #0]
 80045a2:	2300      	movs	r3, #0
 80045a4:	461a      	mov	r2, r3
 80045a6:	f001 fbcb 	bl	8005d40 <USBH_LL_SubmitURB>
 80045aa:	2000      	movs	r0, #0
 80045ac:	b005      	add	sp, #20
 80045ae:	bd30      	pop	{r4, r5, pc}

080045b0 <USBH_CtlReceiveData>:
 80045b0:	b530      	push	{r4, r5, lr}
 80045b2:	2400      	movs	r4, #0
 80045b4:	b085      	sub	sp, #20
 80045b6:	e9cd 2402 	strd	r2, r4, [sp, #8]
 80045ba:	460d      	mov	r5, r1
 80045bc:	2201      	movs	r2, #1
 80045be:	4619      	mov	r1, r3
 80045c0:	9501      	str	r5, [sp, #4]
 80045c2:	9200      	str	r2, [sp, #0]
 80045c4:	4623      	mov	r3, r4
 80045c6:	f001 fbbb 	bl	8005d40 <USBH_LL_SubmitURB>
 80045ca:	4620      	mov	r0, r4
 80045cc:	b005      	add	sp, #20
 80045ce:	bd30      	pop	{r4, r5, pc}

080045d0 <USBH_BulkSendData>:
 80045d0:	b530      	push	{r4, r5, lr}
 80045d2:	b085      	sub	sp, #20
 80045d4:	f890 531d 	ldrb.w	r5, [r0, #797]	; 0x31d
 80045d8:	460c      	mov	r4, r1
 80045da:	2d00      	cmp	r5, #0
 80045dc:	4619      	mov	r1, r3
 80045de:	f89d 3020 	ldrb.w	r3, [sp, #32]
 80045e2:	9401      	str	r4, [sp, #4]
 80045e4:	bf18      	it	ne
 80045e6:	2300      	movne	r3, #0
 80045e8:	e9cd 2302 	strd	r2, r3, [sp, #8]
 80045ec:	2301      	movs	r3, #1
 80045ee:	9300      	str	r3, [sp, #0]
 80045f0:	2200      	movs	r2, #0
 80045f2:	2302      	movs	r3, #2
 80045f4:	f001 fba4 	bl	8005d40 <USBH_LL_SubmitURB>
 80045f8:	2000      	movs	r0, #0
 80045fa:	b005      	add	sp, #20
 80045fc:	bd30      	pop	{r4, r5, pc}

080045fe <USBH_BulkReceiveData>:
 80045fe:	b530      	push	{r4, r5, lr}
 8004600:	2400      	movs	r4, #0
 8004602:	b085      	sub	sp, #20
 8004604:	e9cd 2402 	strd	r2, r4, [sp, #8]
 8004608:	460d      	mov	r5, r1
 800460a:	2201      	movs	r2, #1
 800460c:	4619      	mov	r1, r3
 800460e:	9501      	str	r5, [sp, #4]
 8004610:	9200      	str	r2, [sp, #0]
 8004612:	2302      	movs	r3, #2
 8004614:	f001 fb94 	bl	8005d40 <USBH_LL_SubmitURB>
 8004618:	4620      	mov	r0, r4
 800461a:	b005      	add	sp, #20
 800461c:	bd30      	pop	{r4, r5, pc}

0800461e <USBH_OpenPipe>:
 800461e:	b51f      	push	{r0, r1, r2, r3, r4, lr}
 8004620:	f8bd 4020 	ldrh.w	r4, [sp, #32]
 8004624:	9402      	str	r4, [sp, #8]
 8004626:	f89d 401c 	ldrb.w	r4, [sp, #28]
 800462a:	9401      	str	r4, [sp, #4]
 800462c:	f89d 4018 	ldrb.w	r4, [sp, #24]
 8004630:	9400      	str	r4, [sp, #0]
 8004632:	f001 fb5f 	bl	8005cf4 <USBH_LL_OpenPipe>
 8004636:	2000      	movs	r0, #0
 8004638:	b004      	add	sp, #16
 800463a:	bd10      	pop	{r4, pc}

0800463c <USBH_ClosePipe>:
 800463c:	b508      	push	{r3, lr}
 800463e:	f001 fb71 	bl	8005d24 <USBH_LL_ClosePipe>
 8004642:	2000      	movs	r0, #0
 8004644:	bd08      	pop	{r3, pc}

08004646 <USBH_AllocPipe>:
 8004646:	b530      	push	{r4, r5, lr}
 8004648:	2300      	movs	r3, #0
 800464a:	f500 7461 	add.w	r4, r0, #900	; 0x384
 800464e:	f854 5b04 	ldr.w	r5, [r4], #4
 8004652:	042d      	lsls	r5, r5, #16
 8004654:	b2da      	uxtb	r2, r3
 8004656:	d408      	bmi.n	800466a <USBH_AllocPipe+0x24>
 8004658:	eb00 0083 	add.w	r0, r0, r3, lsl #2
 800465c:	f441 4100 	orr.w	r1, r1, #32768	; 0x8000
 8004660:	b292      	uxth	r2, r2
 8004662:	f8c0 1384 	str.w	r1, [r0, #900]	; 0x384
 8004666:	b2d0      	uxtb	r0, r2
 8004668:	bd30      	pop	{r4, r5, pc}
 800466a:	3301      	adds	r3, #1
 800466c:	2b0b      	cmp	r3, #11
 800466e:	d1ee      	bne.n	800464e <USBH_AllocPipe+0x8>
 8004670:	f64f 72ff 	movw	r2, #65535	; 0xffff
 8004674:	e7f7      	b.n	8004666 <USBH_AllocPipe+0x20>

08004676 <USBH_FreePipe>:
 8004676:	290a      	cmp	r1, #10
 8004678:	bf98      	it	ls
 800467a:	eb00 0181 	addls.w	r1, r0, r1, lsl #2
 800467e:	f04f 0000 	mov.w	r0, #0
 8004682:	bf9e      	ittt	ls
 8004684:	f8d1 3384 	ldrls.w	r3, [r1, #900]	; 0x384
 8004688:	f3c3 030e 	ubfxls	r3, r3, #0, #15
 800468c:	f8c1 3384 	strls.w	r3, [r1, #900]	; 0x384
 8004690:	4770      	bx	lr
	...

08004694 <disk_status>:
 8004694:	4b03      	ldr	r3, [pc, #12]	; (80046a4 <disk_status+0x10>)
 8004696:	181a      	adds	r2, r3, r0
 8004698:	eb03 0080 	add.w	r0, r3, r0, lsl #2
 800469c:	6843      	ldr	r3, [r0, #4]
 800469e:	7a10      	ldrb	r0, [r2, #8]
 80046a0:	685b      	ldr	r3, [r3, #4]
 80046a2:	4718      	bx	r3
 80046a4:	200007cc 	.word	0x200007cc

080046a8 <disk_initialize>:
 80046a8:	4b06      	ldr	r3, [pc, #24]	; (80046c4 <disk_initialize+0x1c>)
 80046aa:	5c1a      	ldrb	r2, [r3, r0]
 80046ac:	b942      	cbnz	r2, 80046c0 <disk_initialize+0x18>
 80046ae:	2201      	movs	r2, #1
 80046b0:	541a      	strb	r2, [r3, r0]
 80046b2:	181a      	adds	r2, r3, r0
 80046b4:	eb03 0380 	add.w	r3, r3, r0, lsl #2
 80046b8:	7a10      	ldrb	r0, [r2, #8]
 80046ba:	685b      	ldr	r3, [r3, #4]
 80046bc:	681b      	ldr	r3, [r3, #0]
 80046be:	4718      	bx	r3
 80046c0:	2000      	movs	r0, #0
 80046c2:	4770      	bx	lr
 80046c4:	200007cc 	.word	0x200007cc

080046c8 <disk_read>:
 80046c8:	b430      	push	{r4, r5}
 80046ca:	4c05      	ldr	r4, [pc, #20]	; (80046e0 <disk_read+0x18>)
 80046cc:	1825      	adds	r5, r4, r0
 80046ce:	eb04 0080 	add.w	r0, r4, r0, lsl #2
 80046d2:	6840      	ldr	r0, [r0, #4]
 80046d4:	6884      	ldr	r4, [r0, #8]
 80046d6:	7a28      	ldrb	r0, [r5, #8]
 80046d8:	46a4      	mov	ip, r4
 80046da:	bc30      	pop	{r4, r5}
 80046dc:	4760      	bx	ip
 80046de:	bf00      	nop
 80046e0:	200007cc 	.word	0x200007cc

080046e4 <disk_write>:
 80046e4:	b430      	push	{r4, r5}
 80046e6:	4c05      	ldr	r4, [pc, #20]	; (80046fc <disk_write+0x18>)
 80046e8:	1825      	adds	r5, r4, r0
 80046ea:	eb04 0080 	add.w	r0, r4, r0, lsl #2
 80046ee:	6840      	ldr	r0, [r0, #4]
 80046f0:	68c4      	ldr	r4, [r0, #12]
 80046f2:	7a28      	ldrb	r0, [r5, #8]
 80046f4:	46a4      	mov	ip, r4
 80046f6:	bc30      	pop	{r4, r5}
 80046f8:	4760      	bx	ip
 80046fa:	bf00      	nop
 80046fc:	200007cc 	.word	0x200007cc

08004700 <disk_ioctl>:
 8004700:	4b05      	ldr	r3, [pc, #20]	; (8004718 <disk_ioctl+0x18>)
 8004702:	b410      	push	{r4}
 8004704:	181c      	adds	r4, r3, r0
 8004706:	eb03 0080 	add.w	r0, r3, r0, lsl #2
 800470a:	6843      	ldr	r3, [r0, #4]
 800470c:	7a20      	ldrb	r0, [r4, #8]
 800470e:	691b      	ldr	r3, [r3, #16]
 8004710:	f85d 4b04 	ldr.w	r4, [sp], #4
 8004714:	4718      	bx	r3
 8004716:	bf00      	nop
 8004718:	200007cc 	.word	0x200007cc

0800471c <ld_dword>:
 800471c:	8842      	ldrh	r2, [r0, #2]
 800471e:	7843      	ldrb	r3, [r0, #1]
 8004720:	7800      	ldrb	r0, [r0, #0]
 8004722:	ea43 2302 	orr.w	r3, r3, r2, lsl #8
 8004726:	ea40 2003 	orr.w	r0, r0, r3, lsl #8
 800472a:	4770      	bx	lr

0800472c <st_dword>:
 800472c:	0a0b      	lsrs	r3, r1, #8
 800472e:	7001      	strb	r1, [r0, #0]
 8004730:	7043      	strb	r3, [r0, #1]
 8004732:	0c0b      	lsrs	r3, r1, #16
 8004734:	0e09      	lsrs	r1, r1, #24
 8004736:	7083      	strb	r3, [r0, #2]
 8004738:	70c1      	strb	r1, [r0, #3]
 800473a:	4770      	bx	lr

0800473c <mem_set>:
 800473c:	4402      	add	r2, r0
 800473e:	f800 1b01 	strb.w	r1, [r0], #1
 8004742:	4290      	cmp	r0, r2
 8004744:	d1fb      	bne.n	800473e <mem_set+0x2>
 8004746:	4770      	bx	lr

08004748 <chk_lock>:
 8004748:	4a1b      	ldr	r2, [pc, #108]	; (80047b8 <chk_lock+0x70>)
 800474a:	6813      	ldr	r3, [r2, #0]
 800474c:	b530      	push	{r4, r5, lr}
 800474e:	b163      	cbz	r3, 800476a <chk_lock+0x22>
 8004750:	6804      	ldr	r4, [r0, #0]
 8004752:	429c      	cmp	r4, r3
 8004754:	d107      	bne.n	8004766 <chk_lock+0x1e>
 8004756:	6854      	ldr	r4, [r2, #4]
 8004758:	6883      	ldr	r3, [r0, #8]
 800475a:	429c      	cmp	r4, r3
 800475c:	d103      	bne.n	8004766 <chk_lock+0x1e>
 800475e:	6894      	ldr	r4, [r2, #8]
 8004760:	6943      	ldr	r3, [r0, #20]
 8004762:	429c      	cmp	r4, r3
 8004764:	d020      	beq.n	80047a8 <chk_lock+0x60>
 8004766:	2400      	movs	r4, #0
 8004768:	e000      	b.n	800476c <chk_lock+0x24>
 800476a:	2401      	movs	r4, #1
 800476c:	6913      	ldr	r3, [r2, #16]
 800476e:	b1cb      	cbz	r3, 80047a4 <chk_lock+0x5c>
 8004770:	6805      	ldr	r5, [r0, #0]
 8004772:	42ab      	cmp	r3, r5
 8004774:	d107      	bne.n	8004786 <chk_lock+0x3e>
 8004776:	6955      	ldr	r5, [r2, #20]
 8004778:	6883      	ldr	r3, [r0, #8]
 800477a:	429d      	cmp	r5, r3
 800477c:	d103      	bne.n	8004786 <chk_lock+0x3e>
 800477e:	6995      	ldr	r5, [r2, #24]
 8004780:	6943      	ldr	r3, [r0, #20]
 8004782:	429d      	cmp	r5, r3
 8004784:	d015      	beq.n	80047b2 <chk_lock+0x6a>
 8004786:	b96c      	cbnz	r4, 80047a4 <chk_lock+0x5c>
 8004788:	2902      	cmp	r1, #2
 800478a:	bf0c      	ite	eq
 800478c:	2000      	moveq	r0, #0
 800478e:	2012      	movne	r0, #18
 8004790:	bd30      	pop	{r4, r5, pc}
 8004792:	eb02 1203 	add.w	r2, r2, r3, lsl #4
 8004796:	8993      	ldrh	r3, [r2, #12]
 8004798:	f5b3 7f80 	cmp.w	r3, #256	; 0x100
 800479c:	bf14      	ite	ne
 800479e:	2000      	movne	r0, #0
 80047a0:	2010      	moveq	r0, #16
 80047a2:	e7f5      	b.n	8004790 <chk_lock+0x48>
 80047a4:	2000      	movs	r0, #0
 80047a6:	e7f3      	b.n	8004790 <chk_lock+0x48>
 80047a8:	2300      	movs	r3, #0
 80047aa:	2900      	cmp	r1, #0
 80047ac:	d0f1      	beq.n	8004792 <chk_lock+0x4a>
 80047ae:	2010      	movs	r0, #16
 80047b0:	e7ee      	b.n	8004790 <chk_lock+0x48>
 80047b2:	2301      	movs	r3, #1
 80047b4:	e7f9      	b.n	80047aa <chk_lock+0x62>
 80047b6:	bf00      	nop
 80047b8:	200007a8 	.word	0x200007a8

080047bc <inc_lock>:
 80047bc:	4a1f      	ldr	r2, [pc, #124]	; (800483c <inc_lock+0x80>)
 80047be:	b5f0      	push	{r4, r5, r6, r7, lr}
 80047c0:	6813      	ldr	r3, [r2, #0]
 80047c2:	6806      	ldr	r6, [r0, #0]
 80047c4:	429e      	cmp	r6, r3
 80047c6:	d107      	bne.n	80047d8 <inc_lock+0x1c>
 80047c8:	6855      	ldr	r5, [r2, #4]
 80047ca:	6884      	ldr	r4, [r0, #8]
 80047cc:	42a5      	cmp	r5, r4
 80047ce:	d103      	bne.n	80047d8 <inc_lock+0x1c>
 80047d0:	6945      	ldr	r5, [r0, #20]
 80047d2:	6894      	ldr	r4, [r2, #8]
 80047d4:	42a5      	cmp	r5, r4
 80047d6:	d01b      	beq.n	8004810 <inc_lock+0x54>
 80047d8:	6914      	ldr	r4, [r2, #16]
 80047da:	42b4      	cmp	r4, r6
 80047dc:	d107      	bne.n	80047ee <inc_lock+0x32>
 80047de:	6957      	ldr	r7, [r2, #20]
 80047e0:	6885      	ldr	r5, [r0, #8]
 80047e2:	42af      	cmp	r7, r5
 80047e4:	d103      	bne.n	80047ee <inc_lock+0x32>
 80047e6:	6997      	ldr	r7, [r2, #24]
 80047e8:	6945      	ldr	r5, [r0, #20]
 80047ea:	42af      	cmp	r7, r5
 80047ec:	d019      	beq.n	8004822 <inc_lock+0x66>
 80047ee:	b10b      	cbz	r3, 80047f4 <inc_lock+0x38>
 80047f0:	b9ac      	cbnz	r4, 800481e <inc_lock+0x62>
 80047f2:	2301      	movs	r3, #1
 80047f4:	011d      	lsls	r5, r3, #4
 80047f6:	eb02 1403 	add.w	r4, r2, r3, lsl #4
 80047fa:	5156      	str	r6, [r2, r5]
 80047fc:	6885      	ldr	r5, [r0, #8]
 80047fe:	6940      	ldr	r0, [r0, #20]
 8004800:	60a0      	str	r0, [r4, #8]
 8004802:	2000      	movs	r0, #0
 8004804:	6065      	str	r5, [r4, #4]
 8004806:	81a0      	strh	r0, [r4, #12]
 8004808:	b169      	cbz	r1, 8004826 <inc_lock+0x6a>
 800480a:	f44f 7180 	mov.w	r1, #256	; 0x100
 800480e:	e00f      	b.n	8004830 <inc_lock+0x74>
 8004810:	2300      	movs	r3, #0
 8004812:	b141      	cbz	r1, 8004826 <inc_lock+0x6a>
 8004814:	eb02 1103 	add.w	r1, r2, r3, lsl #4
 8004818:	8989      	ldrh	r1, [r1, #12]
 800481a:	2900      	cmp	r1, #0
 800481c:	d0f5      	beq.n	800480a <inc_lock+0x4e>
 800481e:	2000      	movs	r0, #0
 8004820:	e00a      	b.n	8004838 <inc_lock+0x7c>
 8004822:	2301      	movs	r3, #1
 8004824:	e7f5      	b.n	8004812 <inc_lock+0x56>
 8004826:	eb02 1103 	add.w	r1, r2, r3, lsl #4
 800482a:	8989      	ldrh	r1, [r1, #12]
 800482c:	3101      	adds	r1, #1
 800482e:	b289      	uxth	r1, r1
 8004830:	eb02 1203 	add.w	r2, r2, r3, lsl #4
 8004834:	1c58      	adds	r0, r3, #1
 8004836:	8191      	strh	r1, [r2, #12]
 8004838:	bdf0      	pop	{r4, r5, r6, r7, pc}
 800483a:	bf00      	nop
 800483c:	200007a8 	.word	0x200007a8

08004840 <dec_lock>:
 8004840:	3801      	subs	r0, #1
 8004842:	2801      	cmp	r0, #1
 8004844:	d815      	bhi.n	8004872 <dec_lock+0x32>
 8004846:	4a0c      	ldr	r2, [pc, #48]	; (8004878 <dec_lock+0x38>)
 8004848:	0101      	lsls	r1, r0, #4
 800484a:	eb02 1000 	add.w	r0, r2, r0, lsl #4
 800484e:	8983      	ldrh	r3, [r0, #12]
 8004850:	f5b3 7f80 	cmp.w	r3, #256	; 0x100
 8004854:	d104      	bne.n	8004860 <dec_lock+0x20>
 8004856:	2300      	movs	r3, #0
 8004858:	8183      	strh	r3, [r0, #12]
 800485a:	2000      	movs	r0, #0
 800485c:	5050      	str	r0, [r2, r1]
 800485e:	4770      	bx	lr
 8004860:	2b00      	cmp	r3, #0
 8004862:	d0fa      	beq.n	800485a <dec_lock+0x1a>
 8004864:	3b01      	subs	r3, #1
 8004866:	b29b      	uxth	r3, r3
 8004868:	8183      	strh	r3, [r0, #12]
 800486a:	2b00      	cmp	r3, #0
 800486c:	d0f5      	beq.n	800485a <dec_lock+0x1a>
 800486e:	2000      	movs	r0, #0
 8004870:	4770      	bx	lr
 8004872:	2002      	movs	r0, #2
 8004874:	4770      	bx	lr
 8004876:	bf00      	nop
 8004878:	200007a8 	.word	0x200007a8

0800487c <clust2sect>:
 800487c:	6983      	ldr	r3, [r0, #24]
 800487e:	3902      	subs	r1, #2
 8004880:	3b02      	subs	r3, #2
 8004882:	428b      	cmp	r3, r1
 8004884:	bf83      	ittte	hi
 8004886:	8943      	ldrhhi	r3, [r0, #10]
 8004888:	6ac0      	ldrhi	r0, [r0, #44]	; 0x2c
 800488a:	fb01 0003 	mlahi	r0, r1, r3, r0
 800488e:	2000      	movls	r0, #0
 8004890:	4770      	bx	lr

08004892 <clmt_clust>:
 8004892:	6ac3      	ldr	r3, [r0, #44]	; 0x2c
 8004894:	6802      	ldr	r2, [r0, #0]
 8004896:	3304      	adds	r3, #4
 8004898:	8990      	ldrh	r0, [r2, #12]
 800489a:	8952      	ldrh	r2, [r2, #10]
 800489c:	fbb1 f1f0 	udiv	r1, r1, r0
 80048a0:	fbb1 f1f2 	udiv	r1, r1, r2
 80048a4:	6818      	ldr	r0, [r3, #0]
 80048a6:	b130      	cbz	r0, 80048b6 <clmt_clust+0x24>
 80048a8:	4281      	cmp	r1, r0
 80048aa:	d302      	bcc.n	80048b2 <clmt_clust+0x20>
 80048ac:	1a09      	subs	r1, r1, r0
 80048ae:	3308      	adds	r3, #8
 80048b0:	e7f8      	b.n	80048a4 <clmt_clust+0x12>
 80048b2:	6858      	ldr	r0, [r3, #4]
 80048b4:	4408      	add	r0, r1
 80048b6:	4770      	bx	lr

080048b8 <get_ldnumber>:
 80048b8:	6802      	ldr	r2, [r0, #0]
 80048ba:	b510      	push	{r4, lr}
 80048bc:	b152      	cbz	r2, 80048d4 <get_ldnumber+0x1c>
 80048be:	4611      	mov	r1, r2
 80048c0:	460b      	mov	r3, r1
 80048c2:	f811 4b01 	ldrb.w	r4, [r1], #1
 80048c6:	2c20      	cmp	r4, #32
 80048c8:	d90c      	bls.n	80048e4 <get_ldnumber+0x2c>
 80048ca:	2c3a      	cmp	r4, #58	; 0x3a
 80048cc:	d1f8      	bne.n	80048c0 <get_ldnumber+0x8>
 80048ce:	1c51      	adds	r1, r2, #1
 80048d0:	428b      	cmp	r3, r1
 80048d2:	d002      	beq.n	80048da <get_ldnumber+0x22>
 80048d4:	f04f 30ff 	mov.w	r0, #4294967295
 80048d8:	e005      	b.n	80048e6 <get_ldnumber+0x2e>
 80048da:	7812      	ldrb	r2, [r2, #0]
 80048dc:	2a30      	cmp	r2, #48	; 0x30
 80048de:	d1f9      	bne.n	80048d4 <get_ldnumber+0x1c>
 80048e0:	3301      	adds	r3, #1
 80048e2:	6003      	str	r3, [r0, #0]
 80048e4:	2000      	movs	r0, #0
 80048e6:	bd10      	pop	{r4, pc}

080048e8 <validate>:
 80048e8:	b538      	push	{r3, r4, r5, lr}
 80048ea:	460d      	mov	r5, r1
 80048ec:	4604      	mov	r4, r0
 80048ee:	b918      	cbnz	r0, 80048f8 <validate+0x10>
 80048f0:	2009      	movs	r0, #9
 80048f2:	2300      	movs	r3, #0
 80048f4:	602b      	str	r3, [r5, #0]
 80048f6:	bd38      	pop	{r3, r4, r5, pc}
 80048f8:	6803      	ldr	r3, [r0, #0]
 80048fa:	2b00      	cmp	r3, #0
 80048fc:	d0f8      	beq.n	80048f0 <validate+0x8>
 80048fe:	781a      	ldrb	r2, [r3, #0]
 8004900:	2a00      	cmp	r2, #0
 8004902:	d0f5      	beq.n	80048f0 <validate+0x8>
 8004904:	8881      	ldrh	r1, [r0, #4]
 8004906:	88da      	ldrh	r2, [r3, #6]
 8004908:	4291      	cmp	r1, r2
 800490a:	d1f1      	bne.n	80048f0 <validate+0x8>
 800490c:	7858      	ldrb	r0, [r3, #1]
 800490e:	f7ff fec1 	bl	8004694 <disk_status>
 8004912:	f010 0001 	ands.w	r0, r0, #1
 8004916:	d1eb      	bne.n	80048f0 <validate+0x8>
 8004918:	6823      	ldr	r3, [r4, #0]
 800491a:	e7eb      	b.n	80048f4 <validate+0xc>

0800491c <mem_cpy.part.0>:
 800491c:	3801      	subs	r0, #1
 800491e:	440a      	add	r2, r1
 8004920:	f811 3b01 	ldrb.w	r3, [r1], #1
 8004924:	f800 3f01 	strb.w	r3, [r0, #1]!
 8004928:	4291      	cmp	r1, r2
 800492a:	d1f9      	bne.n	8004920 <mem_cpy.part.0+0x4>
 800492c:	4770      	bx	lr

0800492e <ld_clust.isra.0>:
 800492e:	7eca      	ldrb	r2, [r1, #27]
 8004930:	7e8b      	ldrb	r3, [r1, #26]
 8004932:	2803      	cmp	r0, #3
 8004934:	ea43 2302 	orr.w	r3, r3, r2, lsl #8
 8004938:	bf01      	itttt	eq
 800493a:	7d48      	ldrbeq	r0, [r1, #21]
 800493c:	7d0a      	ldrbeq	r2, [r1, #20]
 800493e:	ea42 2200 	orreq.w	r2, r2, r0, lsl #8
 8004942:	ea43 4302 	orreq.w	r3, r3, r2, lsl #16
 8004946:	4618      	mov	r0, r3
 8004948:	4770      	bx	lr

0800494a <st_clust.isra.0>:
 800494a:	f3c2 2307 	ubfx	r3, r2, #8, #8
 800494e:	768a      	strb	r2, [r1, #26]
 8004950:	76cb      	strb	r3, [r1, #27]
 8004952:	7803      	ldrb	r3, [r0, #0]
 8004954:	2b03      	cmp	r3, #3
 8004956:	bf01      	itttt	eq
 8004958:	0c12      	lsreq	r2, r2, #16
 800495a:	750a      	strbeq	r2, [r1, #20]
 800495c:	0a12      	lsreq	r2, r2, #8
 800495e:	754a      	strbeq	r2, [r1, #21]
 8004960:	4770      	bx	lr

08004962 <sync_window.part.0>:
 8004962:	e92d 41f0 	stmdb	sp!, {r4, r5, r6, r7, r8, lr}
 8004966:	6b06      	ldr	r6, [r0, #48]	; 0x30
 8004968:	f100 0834 	add.w	r8, r0, #52	; 0x34
 800496c:	4604      	mov	r4, r0
 800496e:	2301      	movs	r3, #1
 8004970:	7840      	ldrb	r0, [r0, #1]
 8004972:	4632      	mov	r2, r6
 8004974:	4641      	mov	r1, r8
 8004976:	f7ff feb5 	bl	80046e4 <disk_write>
 800497a:	4605      	mov	r5, r0
 800497c:	b9a8      	cbnz	r0, 80049aa <sync_window.part.0+0x48>
 800497e:	6a63      	ldr	r3, [r4, #36]	; 0x24
 8004980:	69e2      	ldr	r2, [r4, #28]
 8004982:	70e0      	strb	r0, [r4, #3]
 8004984:	1af3      	subs	r3, r6, r3
 8004986:	4293      	cmp	r3, r2
 8004988:	d202      	bcs.n	8004990 <sync_window.part.0+0x2e>
 800498a:	78a7      	ldrb	r7, [r4, #2]
 800498c:	2f01      	cmp	r7, #1
 800498e:	d802      	bhi.n	8004996 <sync_window.part.0+0x34>
 8004990:	4628      	mov	r0, r5
 8004992:	e8bd 81f0 	ldmia.w	sp!, {r4, r5, r6, r7, r8, pc}
 8004996:	69e3      	ldr	r3, [r4, #28]
 8004998:	7860      	ldrb	r0, [r4, #1]
 800499a:	441e      	add	r6, r3
 800499c:	4632      	mov	r2, r6
 800499e:	2301      	movs	r3, #1
 80049a0:	4641      	mov	r1, r8
 80049a2:	f7ff fe9f 	bl	80046e4 <disk_write>
 80049a6:	3f01      	subs	r7, #1
 80049a8:	e7f0      	b.n	800498c <sync_window.part.0+0x2a>
 80049aa:	2501      	movs	r5, #1
 80049ac:	e7f0      	b.n	8004990 <sync_window.part.0+0x2e>

080049ae <sync_window>:
 80049ae:	78c3      	ldrb	r3, [r0, #3]
 80049b0:	b10b      	cbz	r3, 80049b6 <sync_window+0x8>
 80049b2:	f7ff bfd6 	b.w	8004962 <sync_window.part.0>
 80049b6:	4618      	mov	r0, r3
 80049b8:	4770      	bx	lr

080049ba <move_window>:
 80049ba:	b538      	push	{r3, r4, r5, lr}
 80049bc:	6b03      	ldr	r3, [r0, #48]	; 0x30
 80049be:	428b      	cmp	r3, r1
 80049c0:	4605      	mov	r5, r0
 80049c2:	460c      	mov	r4, r1
 80049c4:	d010      	beq.n	80049e8 <move_window+0x2e>
 80049c6:	f7ff fff2 	bl	80049ae <sync_window>
 80049ca:	b960      	cbnz	r0, 80049e6 <move_window+0x2c>
 80049cc:	4622      	mov	r2, r4
 80049ce:	7868      	ldrb	r0, [r5, #1]
 80049d0:	2301      	movs	r3, #1
 80049d2:	f105 0134 	add.w	r1, r5, #52	; 0x34
 80049d6:	f7ff fe77 	bl	80046c8 <disk_read>
 80049da:	2800      	cmp	r0, #0
 80049dc:	bf1c      	itt	ne
 80049de:	f04f 34ff 	movne.w	r4, #4294967295
 80049e2:	2001      	movne	r0, #1
 80049e4:	632c      	str	r4, [r5, #48]	; 0x30
 80049e6:	bd38      	pop	{r3, r4, r5, pc}
 80049e8:	2000      	movs	r0, #0
 80049ea:	e7fc      	b.n	80049e6 <move_window+0x2c>

080049ec <check_fs>:
 80049ec:	2300      	movs	r3, #0
 80049ee:	b510      	push	{r4, lr}
 80049f0:	70c3      	strb	r3, [r0, #3]
 80049f2:	f04f 33ff 	mov.w	r3, #4294967295
 80049f6:	6303      	str	r3, [r0, #48]	; 0x30
 80049f8:	4604      	mov	r4, r0
 80049fa:	f7ff ffde 	bl	80049ba <move_window>
 80049fe:	4601      	mov	r1, r0
 8004a00:	bb30      	cbnz	r0, 8004a50 <check_fs+0x64>
 8004a02:	f894 2233 	ldrb.w	r2, [r4, #563]	; 0x233
 8004a06:	f894 3232 	ldrb.w	r3, [r4, #562]	; 0x232
 8004a0a:	ea43 2302 	orr.w	r3, r3, r2, lsl #8
 8004a0e:	f64a 2255 	movw	r2, #43605	; 0xaa55
 8004a12:	4293      	cmp	r3, r2
 8004a14:	d11e      	bne.n	8004a54 <check_fs+0x68>
 8004a16:	f894 3034 	ldrb.w	r3, [r4, #52]	; 0x34
 8004a1a:	2be9      	cmp	r3, #233	; 0xe9
 8004a1c:	d005      	beq.n	8004a2a <check_fs+0x3e>
 8004a1e:	6b63      	ldr	r3, [r4, #52]	; 0x34
 8004a20:	4a0e      	ldr	r2, [pc, #56]	; (8004a5c <check_fs+0x70>)
 8004a22:	f003 13ff 	and.w	r3, r3, #16711935	; 0xff00ff
 8004a26:	4293      	cmp	r3, r2
 8004a28:	d116      	bne.n	8004a58 <check_fs+0x6c>
 8004a2a:	f104 006a 	add.w	r0, r4, #106	; 0x6a
 8004a2e:	f7ff fe75 	bl	800471c <ld_dword>
 8004a32:	4b0b      	ldr	r3, [pc, #44]	; (8004a60 <check_fs+0x74>)
 8004a34:	f020 407f 	bic.w	r0, r0, #4278190080	; 0xff000000
 8004a38:	4298      	cmp	r0, r3
 8004a3a:	d007      	beq.n	8004a4c <check_fs+0x60>
 8004a3c:	f104 0086 	add.w	r0, r4, #134	; 0x86
 8004a40:	f7ff fe6c 	bl	800471c <ld_dword>
 8004a44:	4b07      	ldr	r3, [pc, #28]	; (8004a64 <check_fs+0x78>)
 8004a46:	4298      	cmp	r0, r3
 8004a48:	bf18      	it	ne
 8004a4a:	2102      	movne	r1, #2
 8004a4c:	4608      	mov	r0, r1
 8004a4e:	bd10      	pop	{r4, pc}
 8004a50:	2104      	movs	r1, #4
 8004a52:	e7fb      	b.n	8004a4c <check_fs+0x60>
 8004a54:	2103      	movs	r1, #3
 8004a56:	e7f9      	b.n	8004a4c <check_fs+0x60>
 8004a58:	2102      	movs	r1, #2
 8004a5a:	e7f7      	b.n	8004a4c <check_fs+0x60>
 8004a5c:	009000eb 	.word	0x009000eb
 8004a60:	00544146 	.word	0x00544146
 8004a64:	33544146 	.word	0x33544146

08004a68 <find_volume>:
 8004a68:	e92d 4ff0 	stmdb	sp!, {r4, r5, r6, r7, r8, r9, sl, fp, lr}
 8004a6c:	2300      	movs	r3, #0
 8004a6e:	b087      	sub	sp, #28
 8004a70:	600b      	str	r3, [r1, #0]
 8004a72:	460f      	mov	r7, r1
 8004a74:	4615      	mov	r5, r2
 8004a76:	f7ff ff1f 	bl	80048b8 <get_ldnumber>
 8004a7a:	1e06      	subs	r6, r0, #0
 8004a7c:	f2c0 8168 	blt.w	8004d50 <find_volume+0x2e8>
 8004a80:	4bb6      	ldr	r3, [pc, #728]	; (8004d5c <find_volume+0x2f4>)
 8004a82:	f853 4026 	ldr.w	r4, [r3, r6, lsl #2]
 8004a86:	2c00      	cmp	r4, #0
 8004a88:	f000 8164 	beq.w	8004d54 <find_volume+0x2ec>
 8004a8c:	603c      	str	r4, [r7, #0]
 8004a8e:	7823      	ldrb	r3, [r4, #0]
 8004a90:	f005 05fe 	and.w	r5, r5, #254	; 0xfe
 8004a94:	b16b      	cbz	r3, 8004ab2 <find_volume+0x4a>
 8004a96:	7860      	ldrb	r0, [r4, #1]
 8004a98:	f7ff fdfc 	bl	8004694 <disk_status>
 8004a9c:	07c1      	lsls	r1, r0, #31
 8004a9e:	d408      	bmi.n	8004ab2 <find_volume+0x4a>
 8004aa0:	b11d      	cbz	r5, 8004aaa <find_volume+0x42>
 8004aa2:	f010 0504 	ands.w	r5, r0, #4
 8004aa6:	d000      	beq.n	8004aaa <find_volume+0x42>
 8004aa8:	250a      	movs	r5, #10
 8004aaa:	4628      	mov	r0, r5
 8004aac:	b007      	add	sp, #28
 8004aae:	e8bd 8ff0 	ldmia.w	sp!, {r4, r5, r6, r7, r8, r9, sl, fp, pc}
 8004ab2:	2300      	movs	r3, #0
 8004ab4:	b2f0      	uxtb	r0, r6
 8004ab6:	7023      	strb	r3, [r4, #0]
 8004ab8:	7060      	strb	r0, [r4, #1]
 8004aba:	f7ff fdf5 	bl	80046a8 <disk_initialize>
 8004abe:	07c2      	lsls	r2, r0, #31
 8004ac0:	f100 814a 	bmi.w	8004d58 <find_volume+0x2f0>
 8004ac4:	b10d      	cbz	r5, 8004aca <find_volume+0x62>
 8004ac6:	0743      	lsls	r3, r0, #29
 8004ac8:	d4ee      	bmi.n	8004aa8 <find_volume+0x40>
 8004aca:	7860      	ldrb	r0, [r4, #1]
 8004acc:	f104 020c 	add.w	r2, r4, #12
 8004ad0:	2102      	movs	r1, #2
 8004ad2:	f7ff fe15 	bl	8004700 <disk_ioctl>
 8004ad6:	4605      	mov	r5, r0
 8004ad8:	b108      	cbz	r0, 8004ade <find_volume+0x76>
 8004ada:	2501      	movs	r5, #1
 8004adc:	e7e5      	b.n	8004aaa <find_volume+0x42>
 8004ade:	89a3      	ldrh	r3, [r4, #12]
 8004ae0:	f5a3 7200 	sub.w	r2, r3, #512	; 0x200
 8004ae4:	f5b2 6f60 	cmp.w	r2, #3584	; 0xe00
 8004ae8:	d8f7      	bhi.n	8004ada <find_volume+0x72>
 8004aea:	1e5a      	subs	r2, r3, #1
 8004aec:	421a      	tst	r2, r3
 8004aee:	d1f4      	bne.n	8004ada <find_volume+0x72>
 8004af0:	4601      	mov	r1, r0
 8004af2:	4620      	mov	r0, r4
 8004af4:	f7ff ff7a 	bl	80049ec <check_fs>
 8004af8:	2802      	cmp	r0, #2
 8004afa:	f040 810a 	bne.w	8004d12 <find_volume+0x2aa>
 8004afe:	ae02      	add	r6, sp, #8
 8004b00:	f504 71fd 	add.w	r1, r4, #506	; 0x1fa
 8004b04:	f204 283a 	addw	r8, r4, #570	; 0x23a
 8004b08:	4637      	mov	r7, r6
 8004b0a:	f811 0c04 	ldrb.w	r0, [r1, #-4]
 8004b0e:	b110      	cbz	r0, 8004b16 <find_volume+0xae>
 8004b10:	4608      	mov	r0, r1
 8004b12:	f7ff fe03 	bl	800471c <ld_dword>
 8004b16:	3110      	adds	r1, #16
 8004b18:	4588      	cmp	r8, r1
 8004b1a:	f847 0b04 	str.w	r0, [r7], #4
 8004b1e:	d1f4      	bne.n	8004b0a <find_volume+0xa2>
 8004b20:	2700      	movs	r7, #0
 8004b22:	f856 bb04 	ldr.w	fp, [r6], #4
 8004b26:	f1bb 0f00 	cmp.w	fp, #0
 8004b2a:	f000 80ea 	beq.w	8004d02 <find_volume+0x29a>
 8004b2e:	4659      	mov	r1, fp
 8004b30:	4620      	mov	r0, r4
 8004b32:	f7ff ff5b 	bl	80049ec <check_fs>
 8004b36:	2801      	cmp	r0, #1
 8004b38:	f200 80e4 	bhi.w	8004d04 <find_volume+0x29c>
 8004b3c:	f894 2040 	ldrb.w	r2, [r4, #64]	; 0x40
 8004b40:	f894 303f 	ldrb.w	r3, [r4, #63]	; 0x3f
 8004b44:	f8b4 a00c 	ldrh.w	sl, [r4, #12]
 8004b48:	ea43 2302 	orr.w	r3, r3, r2, lsl #8
 8004b4c:	459a      	cmp	sl, r3
 8004b4e:	f040 80e5 	bne.w	8004d1c <find_volume+0x2b4>
 8004b52:	f894 004b 	ldrb.w	r0, [r4, #75]	; 0x4b
 8004b56:	f894 604a 	ldrb.w	r6, [r4, #74]	; 0x4a
 8004b5a:	ea56 2600 	orrs.w	r6, r6, r0, lsl #8
 8004b5e:	d104      	bne.n	8004b6a <find_volume+0x102>
 8004b60:	f104 0058 	add.w	r0, r4, #88	; 0x58
 8004b64:	f7ff fdda 	bl	800471c <ld_dword>
 8004b68:	4606      	mov	r6, r0
 8004b6a:	f894 9044 	ldrb.w	r9, [r4, #68]	; 0x44
 8004b6e:	61e6      	str	r6, [r4, #28]
 8004b70:	f109 33ff 	add.w	r3, r9, #4294967295
 8004b74:	2b01      	cmp	r3, #1
 8004b76:	f884 9002 	strb.w	r9, [r4, #2]
 8004b7a:	f200 80cf 	bhi.w	8004d1c <find_volume+0x2b4>
 8004b7e:	f894 3041 	ldrb.w	r3, [r4, #65]	; 0x41
 8004b82:	8163      	strh	r3, [r4, #10]
 8004b84:	2b00      	cmp	r3, #0
 8004b86:	f000 80c9 	beq.w	8004d1c <find_volume+0x2b4>
 8004b8a:	1e5a      	subs	r2, r3, #1
 8004b8c:	421a      	tst	r2, r3
 8004b8e:	f040 80c5 	bne.w	8004d1c <find_volume+0x2b4>
 8004b92:	f894 2046 	ldrb.w	r2, [r4, #70]	; 0x46
 8004b96:	f894 8045 	ldrb.w	r8, [r4, #69]	; 0x45
 8004b9a:	ea48 2802 	orr.w	r8, r8, r2, lsl #8
 8004b9e:	ea4f 125a 	mov.w	r2, sl, lsr #5
 8004ba2:	fbb8 f7f2 	udiv	r7, r8, r2
 8004ba6:	fb02 8217 	mls	r2, r2, r7, r8
 8004baa:	b292      	uxth	r2, r2
 8004bac:	fa0f f188 	sxth.w	r1, r8
 8004bb0:	f8a4 8008 	strh.w	r8, [r4, #8]
 8004bb4:	2a00      	cmp	r2, #0
 8004bb6:	f040 80b1 	bne.w	8004d1c <find_volume+0x2b4>
 8004bba:	f894 2048 	ldrb.w	r2, [r4, #72]	; 0x48
 8004bbe:	f894 0047 	ldrb.w	r0, [r4, #71]	; 0x47
 8004bc2:	ea50 2002 	orrs.w	r0, r0, r2, lsl #8
 8004bc6:	d105      	bne.n	8004bd4 <find_volume+0x16c>
 8004bc8:	f104 0054 	add.w	r0, r4, #84	; 0x54
 8004bcc:	9301      	str	r3, [sp, #4]
 8004bce:	f7ff fda5 	bl	800471c <ld_dword>
 8004bd2:	9b01      	ldr	r3, [sp, #4]
 8004bd4:	f894 c043 	ldrb.w	ip, [r4, #67]	; 0x43
 8004bd8:	f894 2042 	ldrb.w	r2, [r4, #66]	; 0x42
 8004bdc:	ea52 220c 	orrs.w	r2, r2, ip, lsl #8
 8004be0:	f000 809c 	beq.w	8004d1c <find_volume+0x2b4>
 8004be4:	fb06 fc09 	mul.w	ip, r6, r9
 8004be8:	4417      	add	r7, r2
 8004bea:	eb07 0e0c 	add.w	lr, r7, ip
 8004bee:	4570      	cmp	r0, lr
 8004bf0:	f0c0 8094 	bcc.w	8004d1c <find_volume+0x2b4>
 8004bf4:	eba0 000e 	sub.w	r0, r0, lr
 8004bf8:	4298      	cmp	r0, r3
 8004bfa:	fbb0 f7f3 	udiv	r7, r0, r3
 8004bfe:	f0c0 808d 	bcc.w	8004d1c <find_volume+0x2b4>
 8004c02:	f64f 73f5 	movw	r3, #65525	; 0xfff5
 8004c06:	429f      	cmp	r7, r3
 8004c08:	f200 808c 	bhi.w	8004d24 <find_volume+0x2bc>
 8004c0c:	f640 79f5 	movw	r9, #4085	; 0xff5
 8004c10:	454f      	cmp	r7, r9
 8004c12:	bf8c      	ite	hi
 8004c14:	f04f 0902 	movhi.w	r9, #2
 8004c18:	f04f 0901 	movls.w	r9, #1
 8004c1c:	3702      	adds	r7, #2
 8004c1e:	445a      	add	r2, fp
 8004c20:	eb0e 030b 	add.w	r3, lr, fp
 8004c24:	f1b9 0f03 	cmp.w	r9, #3
 8004c28:	61a7      	str	r7, [r4, #24]
 8004c2a:	f8c4 b020 	str.w	fp, [r4, #32]
 8004c2e:	6262      	str	r2, [r4, #36]	; 0x24
 8004c30:	62e3      	str	r3, [r4, #44]	; 0x2c
 8004c32:	d17a      	bne.n	8004d2a <find_volume+0x2c2>
 8004c34:	f894 205f 	ldrb.w	r2, [r4, #95]	; 0x5f
 8004c38:	f894 305e 	ldrb.w	r3, [r4, #94]	; 0x5e
 8004c3c:	ea43 2302 	orr.w	r3, r3, r2, lsl #8
 8004c40:	4319      	orrs	r1, r3
 8004c42:	b209      	sxth	r1, r1
 8004c44:	2900      	cmp	r1, #0
 8004c46:	d169      	bne.n	8004d1c <find_volume+0x2b4>
 8004c48:	f104 0060 	add.w	r0, r4, #96	; 0x60
 8004c4c:	f7ff fd66 	bl	800471c <ld_dword>
 8004c50:	00bf      	lsls	r7, r7, #2
 8004c52:	62a0      	str	r0, [r4, #40]	; 0x28
 8004c54:	f10a 33ff 	add.w	r3, sl, #4294967295
 8004c58:	441f      	add	r7, r3
 8004c5a:	fbb7 fafa 	udiv	sl, r7, sl
 8004c5e:	45b2      	cmp	sl, r6
 8004c60:	d85c      	bhi.n	8004d1c <find_volume+0x2b4>
 8004c62:	f04f 33ff 	mov.w	r3, #4294967295
 8004c66:	e9c4 3304 	strd	r3, r3, [r4, #16]
 8004c6a:	f1b9 0f03 	cmp.w	r9, #3
 8004c6e:	f04f 0380 	mov.w	r3, #128	; 0x80
 8004c72:	7123      	strb	r3, [r4, #4]
 8004c74:	d130      	bne.n	8004cd8 <find_volume+0x270>
 8004c76:	f894 2065 	ldrb.w	r2, [r4, #101]	; 0x65
 8004c7a:	f894 3064 	ldrb.w	r3, [r4, #100]	; 0x64
 8004c7e:	ea43 2302 	orr.w	r3, r3, r2, lsl #8
 8004c82:	2b01      	cmp	r3, #1
 8004c84:	d128      	bne.n	8004cd8 <find_volume+0x270>
 8004c86:	f10b 0101 	add.w	r1, fp, #1
 8004c8a:	4620      	mov	r0, r4
 8004c8c:	f7ff fe95 	bl	80049ba <move_window>
 8004c90:	bb10      	cbnz	r0, 8004cd8 <find_volume+0x270>
 8004c92:	f894 2233 	ldrb.w	r2, [r4, #563]	; 0x233
 8004c96:	f894 3232 	ldrb.w	r3, [r4, #562]	; 0x232
 8004c9a:	7120      	strb	r0, [r4, #4]
 8004c9c:	ea43 2302 	orr.w	r3, r3, r2, lsl #8
 8004ca0:	f64a 2255 	movw	r2, #43605	; 0xaa55
 8004ca4:	4293      	cmp	r3, r2
 8004ca6:	d117      	bne.n	8004cd8 <find_volume+0x270>
 8004ca8:	f104 0034 	add.w	r0, r4, #52	; 0x34
 8004cac:	f7ff fd36 	bl	800471c <ld_dword>
 8004cb0:	4b2b      	ldr	r3, [pc, #172]	; (8004d60 <find_volume+0x2f8>)
 8004cb2:	4298      	cmp	r0, r3
 8004cb4:	d110      	bne.n	8004cd8 <find_volume+0x270>
 8004cb6:	f504 7006 	add.w	r0, r4, #536	; 0x218
 8004cba:	f7ff fd2f 	bl	800471c <ld_dword>
 8004cbe:	4b29      	ldr	r3, [pc, #164]	; (8004d64 <find_volume+0x2fc>)
 8004cc0:	4298      	cmp	r0, r3
 8004cc2:	d109      	bne.n	8004cd8 <find_volume+0x270>
 8004cc4:	f504 7007 	add.w	r0, r4, #540	; 0x21c
 8004cc8:	f7ff fd28 	bl	800471c <ld_dword>
 8004ccc:	6160      	str	r0, [r4, #20]
 8004cce:	f504 7008 	add.w	r0, r4, #544	; 0x220
 8004cd2:	f7ff fd23 	bl	800471c <ld_dword>
 8004cd6:	6120      	str	r0, [r4, #16]
 8004cd8:	4a23      	ldr	r2, [pc, #140]	; (8004d68 <find_volume+0x300>)
 8004cda:	f884 9000 	strb.w	r9, [r4]
 8004cde:	8813      	ldrh	r3, [r2, #0]
 8004ce0:	3301      	adds	r3, #1
 8004ce2:	b29b      	uxth	r3, r3
 8004ce4:	8013      	strh	r3, [r2, #0]
 8004ce6:	80e3      	strh	r3, [r4, #6]
 8004ce8:	4b20      	ldr	r3, [pc, #128]	; (8004d6c <find_volume+0x304>)
 8004cea:	681a      	ldr	r2, [r3, #0]
 8004cec:	4294      	cmp	r4, r2
 8004cee:	bf04      	itt	eq
 8004cf0:	2200      	moveq	r2, #0
 8004cf2:	601a      	streq	r2, [r3, #0]
 8004cf4:	691a      	ldr	r2, [r3, #16]
 8004cf6:	4294      	cmp	r4, r2
 8004cf8:	f47f aed7 	bne.w	8004aaa <find_volume+0x42>
 8004cfc:	2200      	movs	r2, #0
 8004cfe:	611a      	str	r2, [r3, #16]
 8004d00:	e6d3      	b.n	8004aaa <find_volume+0x42>
 8004d02:	2003      	movs	r0, #3
 8004d04:	3701      	adds	r7, #1
 8004d06:	2f04      	cmp	r7, #4
 8004d08:	f47f af0b 	bne.w	8004b22 <find_volume+0xba>
 8004d0c:	2804      	cmp	r0, #4
 8004d0e:	d105      	bne.n	8004d1c <find_volume+0x2b4>
 8004d10:	e6e3      	b.n	8004ada <find_volume+0x72>
 8004d12:	2804      	cmp	r0, #4
 8004d14:	f43f aee1 	beq.w	8004ada <find_volume+0x72>
 8004d18:	2801      	cmp	r0, #1
 8004d1a:	d901      	bls.n	8004d20 <find_volume+0x2b8>
 8004d1c:	250d      	movs	r5, #13
 8004d1e:	e6c4      	b.n	8004aaa <find_volume+0x42>
 8004d20:	46ab      	mov	fp, r5
 8004d22:	e70b      	b.n	8004b3c <find_volume+0xd4>
 8004d24:	f04f 0903 	mov.w	r9, #3
 8004d28:	e778      	b.n	8004c1c <find_volume+0x1b4>
 8004d2a:	f1b8 0f00 	cmp.w	r8, #0
 8004d2e:	d0f5      	beq.n	8004d1c <find_volume+0x2b4>
 8004d30:	f1b9 0f02 	cmp.w	r9, #2
 8004d34:	ea4f 0347 	mov.w	r3, r7, lsl #1
 8004d38:	bf18      	it	ne
 8004d3a:	19db      	addne	r3, r3, r7
 8004d3c:	4462      	add	r2, ip
 8004d3e:	bf18      	it	ne
 8004d40:	f007 0701 	andne.w	r7, r7, #1
 8004d44:	62a2      	str	r2, [r4, #40]	; 0x28
 8004d46:	bf0c      	ite	eq
 8004d48:	461f      	moveq	r7, r3
 8004d4a:	eb07 0753 	addne.w	r7, r7, r3, lsr #1
 8004d4e:	e781      	b.n	8004c54 <find_volume+0x1ec>
 8004d50:	250b      	movs	r5, #11
 8004d52:	e6aa      	b.n	8004aaa <find_volume+0x42>
 8004d54:	250c      	movs	r5, #12
 8004d56:	e6a8      	b.n	8004aaa <find_volume+0x42>
 8004d58:	2503      	movs	r5, #3
 8004d5a:	e6a6      	b.n	8004aaa <find_volume+0x42>
 8004d5c:	200007a4 	.word	0x200007a4
 8004d60:	41615252 	.word	0x41615252
 8004d64:	61417272 	.word	0x61417272
 8004d68:	200007c8 	.word	0x200007c8
 8004d6c:	200007a8 	.word	0x200007a8

08004d70 <put_fat>:
 8004d70:	2901      	cmp	r1, #1
 8004d72:	e92d 47f0 	stmdb	sp!, {r4, r5, r6, r7, r8, r9, sl, lr}
 8004d76:	4604      	mov	r4, r0
 8004d78:	460e      	mov	r6, r1
 8004d7a:	4617      	mov	r7, r2
 8004d7c:	f240 808b 	bls.w	8004e96 <put_fat+0x126>
 8004d80:	6983      	ldr	r3, [r0, #24]
 8004d82:	428b      	cmp	r3, r1
 8004d84:	f240 8087 	bls.w	8004e96 <put_fat+0x126>
 8004d88:	7803      	ldrb	r3, [r0, #0]
 8004d8a:	2b02      	cmp	r3, #2
 8004d8c:	d049      	beq.n	8004e22 <put_fat+0xb2>
 8004d8e:	2b03      	cmp	r3, #3
 8004d90:	d060      	beq.n	8004e54 <put_fat+0xe4>
 8004d92:	2b01      	cmp	r3, #1
 8004d94:	d17f      	bne.n	8004e96 <put_fat+0x126>
 8004d96:	eb01 0a51 	add.w	sl, r1, r1, lsr #1
 8004d9a:	6a41      	ldr	r1, [r0, #36]	; 0x24
 8004d9c:	8983      	ldrh	r3, [r0, #12]
 8004d9e:	fbba f3f3 	udiv	r3, sl, r3
 8004da2:	4419      	add	r1, r3
 8004da4:	f7ff fe09 	bl	80049ba <move_window>
 8004da8:	4605      	mov	r5, r0
 8004daa:	bb78      	cbnz	r0, 8004e0c <put_fat+0x9c>
 8004dac:	89a3      	ldrh	r3, [r4, #12]
 8004dae:	fbba f2f3 	udiv	r2, sl, r3
 8004db2:	f104 0834 	add.w	r8, r4, #52	; 0x34
 8004db6:	fb03 a212 	mls	r2, r3, r2, sl
 8004dba:	f016 0601 	ands.w	r6, r6, #1
 8004dbe:	bf1f      	itttt	ne
 8004dc0:	f818 3002 	ldrbne.w	r3, [r8, r2]
 8004dc4:	f003 010f 	andne.w	r1, r3, #15
 8004dc8:	013b      	lslne	r3, r7, #4
 8004dca:	f003 03f0 	andne.w	r3, r3, #240	; 0xf0
 8004dce:	bf14      	ite	ne
 8004dd0:	430b      	orrne	r3, r1
 8004dd2:	b2fb      	uxtbeq	r3, r7
 8004dd4:	f808 3002 	strb.w	r3, [r8, r2]
 8004dd8:	6a61      	ldr	r1, [r4, #36]	; 0x24
 8004dda:	2301      	movs	r3, #1
 8004ddc:	70e3      	strb	r3, [r4, #3]
 8004dde:	f10a 0901 	add.w	r9, sl, #1
 8004de2:	89a3      	ldrh	r3, [r4, #12]
 8004de4:	fbb9 f3f3 	udiv	r3, r9, r3
 8004de8:	4620      	mov	r0, r4
 8004dea:	4419      	add	r1, r3
 8004dec:	f7ff fde5 	bl	80049ba <move_window>
 8004df0:	4605      	mov	r5, r0
 8004df2:	b958      	cbnz	r0, 8004e0c <put_fat+0x9c>
 8004df4:	89a3      	ldrh	r3, [r4, #12]
 8004df6:	fbb9 f0f3 	udiv	r0, r9, r3
 8004dfa:	fb03 9010 	mls	r0, r3, r0, r9
 8004dfe:	b146      	cbz	r6, 8004e12 <put_fat+0xa2>
 8004e00:	f3c7 1707 	ubfx	r7, r7, #4, #8
 8004e04:	f808 7000 	strb.w	r7, [r8, r0]
 8004e08:	2301      	movs	r3, #1
 8004e0a:	70e3      	strb	r3, [r4, #3]
 8004e0c:	4628      	mov	r0, r5
 8004e0e:	e8bd 87f0 	ldmia.w	sp!, {r4, r5, r6, r7, r8, r9, sl, pc}
 8004e12:	f818 3000 	ldrb.w	r3, [r8, r0]
 8004e16:	f3c7 2703 	ubfx	r7, r7, #8, #4
 8004e1a:	f023 030f 	bic.w	r3, r3, #15
 8004e1e:	431f      	orrs	r7, r3
 8004e20:	e7f0      	b.n	8004e04 <put_fat+0x94>
 8004e22:	8983      	ldrh	r3, [r0, #12]
 8004e24:	085b      	lsrs	r3, r3, #1
 8004e26:	fbb1 f3f3 	udiv	r3, r1, r3
 8004e2a:	6a41      	ldr	r1, [r0, #36]	; 0x24
 8004e2c:	4419      	add	r1, r3
 8004e2e:	f7ff fdc4 	bl	80049ba <move_window>
 8004e32:	4605      	mov	r5, r0
 8004e34:	2800      	cmp	r0, #0
 8004e36:	d1e9      	bne.n	8004e0c <put_fat+0x9c>
 8004e38:	89a0      	ldrh	r0, [r4, #12]
 8004e3a:	0076      	lsls	r6, r6, #1
 8004e3c:	f104 0234 	add.w	r2, r4, #52	; 0x34
 8004e40:	fbb6 f3f0 	udiv	r3, r6, r0
 8004e44:	fb00 6613 	mls	r6, r0, r3, r6
 8004e48:	1993      	adds	r3, r2, r6
 8004e4a:	5597      	strb	r7, [r2, r6]
 8004e4c:	f3c7 2707 	ubfx	r7, r7, #8, #8
 8004e50:	705f      	strb	r7, [r3, #1]
 8004e52:	e7d9      	b.n	8004e08 <put_fat+0x98>
 8004e54:	8983      	ldrh	r3, [r0, #12]
 8004e56:	089b      	lsrs	r3, r3, #2
 8004e58:	fbb1 f3f3 	udiv	r3, r1, r3
 8004e5c:	6a41      	ldr	r1, [r0, #36]	; 0x24
 8004e5e:	4419      	add	r1, r3
 8004e60:	f7ff fdab 	bl	80049ba <move_window>
 8004e64:	4605      	mov	r5, r0
 8004e66:	2800      	cmp	r0, #0
 8004e68:	d1d0      	bne.n	8004e0c <put_fat+0x9c>
 8004e6a:	89a2      	ldrh	r2, [r4, #12]
 8004e6c:	00b6      	lsls	r6, r6, #2
 8004e6e:	f104 0334 	add.w	r3, r4, #52	; 0x34
 8004e72:	fbb6 f1f2 	udiv	r1, r6, r2
 8004e76:	fb02 6611 	mls	r6, r2, r1, r6
 8004e7a:	441e      	add	r6, r3
 8004e7c:	4630      	mov	r0, r6
 8004e7e:	f7ff fc4d 	bl	800471c <ld_dword>
 8004e82:	f027 4770 	bic.w	r7, r7, #4026531840	; 0xf0000000
 8004e86:	f000 4070 	and.w	r0, r0, #4026531840	; 0xf0000000
 8004e8a:	ea47 0100 	orr.w	r1, r7, r0
 8004e8e:	4630      	mov	r0, r6
 8004e90:	f7ff fc4c 	bl	800472c <st_dword>
 8004e94:	e7b8      	b.n	8004e08 <put_fat+0x98>
 8004e96:	2502      	movs	r5, #2
 8004e98:	e7b8      	b.n	8004e0c <put_fat+0x9c>

08004e9a <get_fat.isra.0>:
 8004e9a:	2901      	cmp	r1, #1
 8004e9c:	b5f8      	push	{r3, r4, r5, r6, r7, lr}
 8004e9e:	4604      	mov	r4, r0
 8004ea0:	460e      	mov	r6, r1
 8004ea2:	d968      	bls.n	8004f76 <get_fat.isra.0+0xdc>
 8004ea4:	6983      	ldr	r3, [r0, #24]
 8004ea6:	4299      	cmp	r1, r3
 8004ea8:	d265      	bcs.n	8004f76 <get_fat.isra.0+0xdc>
 8004eaa:	7803      	ldrb	r3, [r0, #0]
 8004eac:	2b02      	cmp	r3, #2
 8004eae:	d032      	beq.n	8004f16 <get_fat.isra.0+0x7c>
 8004eb0:	2b03      	cmp	r3, #3
 8004eb2:	d048      	beq.n	8004f46 <get_fat.isra.0+0xac>
 8004eb4:	2b01      	cmp	r3, #1
 8004eb6:	d15e      	bne.n	8004f76 <get_fat.isra.0+0xdc>
 8004eb8:	eb01 0551 	add.w	r5, r1, r1, lsr #1
 8004ebc:	6a41      	ldr	r1, [r0, #36]	; 0x24
 8004ebe:	8983      	ldrh	r3, [r0, #12]
 8004ec0:	fbb5 f3f3 	udiv	r3, r5, r3
 8004ec4:	4419      	add	r1, r3
 8004ec6:	f7ff fd78 	bl	80049ba <move_window>
 8004eca:	b110      	cbz	r0, 8004ed2 <get_fat.isra.0+0x38>
 8004ecc:	f04f 30ff 	mov.w	r0, #4294967295
 8004ed0:	bdf8      	pop	{r3, r4, r5, r6, r7, pc}
 8004ed2:	89a1      	ldrh	r1, [r4, #12]
 8004ed4:	fbb5 f3f1 	udiv	r3, r5, r1
 8004ed8:	fb01 5313 	mls	r3, r1, r3, r5
 8004edc:	4423      	add	r3, r4
 8004ede:	1c6f      	adds	r7, r5, #1
 8004ee0:	f893 5034 	ldrb.w	r5, [r3, #52]	; 0x34
 8004ee4:	6a63      	ldr	r3, [r4, #36]	; 0x24
 8004ee6:	fbb7 f1f1 	udiv	r1, r7, r1
 8004eea:	4620      	mov	r0, r4
 8004eec:	4419      	add	r1, r3
 8004eee:	f7ff fd64 	bl	80049ba <move_window>
 8004ef2:	2800      	cmp	r0, #0
 8004ef4:	d1ea      	bne.n	8004ecc <get_fat.isra.0+0x32>
 8004ef6:	89a3      	ldrh	r3, [r4, #12]
 8004ef8:	fbb7 f0f3 	udiv	r0, r7, r3
 8004efc:	fb03 7010 	mls	r0, r3, r0, r7
 8004f00:	4404      	add	r4, r0
 8004f02:	07f3      	lsls	r3, r6, #31
 8004f04:	f894 0034 	ldrb.w	r0, [r4, #52]	; 0x34
 8004f08:	ea45 2000 	orr.w	r0, r5, r0, lsl #8
 8004f0c:	bf4c      	ite	mi
 8004f0e:	0900      	lsrmi	r0, r0, #4
 8004f10:	f3c0 000b 	ubfxpl	r0, r0, #0, #12
 8004f14:	e7dc      	b.n	8004ed0 <get_fat.isra.0+0x36>
 8004f16:	8983      	ldrh	r3, [r0, #12]
 8004f18:	085b      	lsrs	r3, r3, #1
 8004f1a:	fbb1 f3f3 	udiv	r3, r1, r3
 8004f1e:	6a41      	ldr	r1, [r0, #36]	; 0x24
 8004f20:	4419      	add	r1, r3
 8004f22:	f7ff fd4a 	bl	80049ba <move_window>
 8004f26:	2800      	cmp	r0, #0
 8004f28:	d1d0      	bne.n	8004ecc <get_fat.isra.0+0x32>
 8004f2a:	f104 0234 	add.w	r2, r4, #52	; 0x34
 8004f2e:	89a4      	ldrh	r4, [r4, #12]
 8004f30:	0076      	lsls	r6, r6, #1
 8004f32:	fbb6 f3f4 	udiv	r3, r6, r4
 8004f36:	fb04 6613 	mls	r6, r4, r3, r6
 8004f3a:	1993      	adds	r3, r2, r6
 8004f3c:	5d90      	ldrb	r0, [r2, r6]
 8004f3e:	785b      	ldrb	r3, [r3, #1]
 8004f40:	ea40 2003 	orr.w	r0, r0, r3, lsl #8
 8004f44:	e7c4      	b.n	8004ed0 <get_fat.isra.0+0x36>
 8004f46:	8983      	ldrh	r3, [r0, #12]
 8004f48:	089b      	lsrs	r3, r3, #2
 8004f4a:	fbb1 f3f3 	udiv	r3, r1, r3
 8004f4e:	6a41      	ldr	r1, [r0, #36]	; 0x24
 8004f50:	4419      	add	r1, r3
 8004f52:	f7ff fd32 	bl	80049ba <move_window>
 8004f56:	2800      	cmp	r0, #0
 8004f58:	d1b8      	bne.n	8004ecc <get_fat.isra.0+0x32>
 8004f5a:	89a3      	ldrh	r3, [r4, #12]
 8004f5c:	00b6      	lsls	r6, r6, #2
 8004f5e:	f104 0034 	add.w	r0, r4, #52	; 0x34
 8004f62:	fbb6 f1f3 	udiv	r1, r6, r3
 8004f66:	fb03 6611 	mls	r6, r3, r1, r6
 8004f6a:	4430      	add	r0, r6
 8004f6c:	f7ff fbd6 	bl	800471c <ld_dword>
 8004f70:	f020 4070 	bic.w	r0, r0, #4026531840	; 0xf0000000
 8004f74:	e7ac      	b.n	8004ed0 <get_fat.isra.0+0x36>
 8004f76:	2001      	movs	r0, #1
 8004f78:	e7aa      	b.n	8004ed0 <get_fat.isra.0+0x36>

08004f7a <create_chain>:
 8004f7a:	e92d 41f0 	stmdb	sp!, {r4, r5, r6, r7, r8, lr}
 8004f7e:	6805      	ldr	r5, [r0, #0]
 8004f80:	4680      	mov	r8, r0
 8004f82:	460f      	mov	r7, r1
 8004f84:	b971      	cbnz	r1, 8004fa4 <create_chain+0x2a>
 8004f86:	692e      	ldr	r6, [r5, #16]
 8004f88:	b1ee      	cbz	r6, 8004fc6 <create_chain+0x4c>
 8004f8a:	69ab      	ldr	r3, [r5, #24]
 8004f8c:	42b3      	cmp	r3, r6
 8004f8e:	bf98      	it	ls
 8004f90:	2601      	movls	r6, #1
 8004f92:	4634      	mov	r4, r6
 8004f94:	69ab      	ldr	r3, [r5, #24]
 8004f96:	3401      	adds	r4, #1
 8004f98:	42a3      	cmp	r3, r4
 8004f9a:	d817      	bhi.n	8004fcc <create_chain+0x52>
 8004f9c:	2e01      	cmp	r6, #1
 8004f9e:	d814      	bhi.n	8004fca <create_chain+0x50>
 8004fa0:	2400      	movs	r4, #0
 8004fa2:	e006      	b.n	8004fb2 <create_chain+0x38>
 8004fa4:	4628      	mov	r0, r5
 8004fa6:	f7ff ff78 	bl	8004e9a <get_fat.isra.0>
 8004faa:	2801      	cmp	r0, #1
 8004fac:	4604      	mov	r4, r0
 8004fae:	d803      	bhi.n	8004fb8 <create_chain+0x3e>
 8004fb0:	2401      	movs	r4, #1
 8004fb2:	4620      	mov	r0, r4
 8004fb4:	e8bd 81f0 	ldmia.w	sp!, {r4, r5, r6, r7, r8, pc}
 8004fb8:	1c43      	adds	r3, r0, #1
 8004fba:	d030      	beq.n	800501e <create_chain+0xa4>
 8004fbc:	69ab      	ldr	r3, [r5, #24]
 8004fbe:	4283      	cmp	r3, r0
 8004fc0:	d8f7      	bhi.n	8004fb2 <create_chain+0x38>
 8004fc2:	463e      	mov	r6, r7
 8004fc4:	e7e5      	b.n	8004f92 <create_chain+0x18>
 8004fc6:	2601      	movs	r6, #1
 8004fc8:	e7e3      	b.n	8004f92 <create_chain+0x18>
 8004fca:	2402      	movs	r4, #2
 8004fcc:	f8d8 0000 	ldr.w	r0, [r8]
 8004fd0:	4621      	mov	r1, r4
 8004fd2:	f7ff ff62 	bl	8004e9a <get_fat.isra.0>
 8004fd6:	b130      	cbz	r0, 8004fe6 <create_chain+0x6c>
 8004fd8:	2801      	cmp	r0, #1
 8004fda:	d0e9      	beq.n	8004fb0 <create_chain+0x36>
 8004fdc:	3001      	adds	r0, #1
 8004fde:	d01e      	beq.n	800501e <create_chain+0xa4>
 8004fe0:	42b4      	cmp	r4, r6
 8004fe2:	d1d7      	bne.n	8004f94 <create_chain+0x1a>
 8004fe4:	e7dc      	b.n	8004fa0 <create_chain+0x26>
 8004fe6:	f04f 32ff 	mov.w	r2, #4294967295
 8004fea:	4621      	mov	r1, r4
 8004fec:	4628      	mov	r0, r5
 8004fee:	f7ff febf 	bl	8004d70 <put_fat>
 8004ff2:	b990      	cbnz	r0, 800501a <create_chain+0xa0>
 8004ff4:	b957      	cbnz	r7, 800500c <create_chain+0x92>
 8004ff6:	e9d5 3205 	ldrd	r3, r2, [r5, #20]
 8004ffa:	3a02      	subs	r2, #2
 8004ffc:	4293      	cmp	r3, r2
 8004ffe:	612c      	str	r4, [r5, #16]
 8005000:	d910      	bls.n	8005024 <create_chain+0xaa>
 8005002:	792b      	ldrb	r3, [r5, #4]
 8005004:	f043 0301 	orr.w	r3, r3, #1
 8005008:	712b      	strb	r3, [r5, #4]
 800500a:	e7d2      	b.n	8004fb2 <create_chain+0x38>
 800500c:	4622      	mov	r2, r4
 800500e:	4639      	mov	r1, r7
 8005010:	4628      	mov	r0, r5
 8005012:	f7ff fead 	bl	8004d70 <put_fat>
 8005016:	2800      	cmp	r0, #0
 8005018:	d0ed      	beq.n	8004ff6 <create_chain+0x7c>
 800501a:	2801      	cmp	r0, #1
 800501c:	d1c8      	bne.n	8004fb0 <create_chain+0x36>
 800501e:	f04f 34ff 	mov.w	r4, #4294967295
 8005022:	e7c6      	b.n	8004fb2 <create_chain+0x38>
 8005024:	3b01      	subs	r3, #1
 8005026:	616b      	str	r3, [r5, #20]
 8005028:	e7eb      	b.n	8005002 <create_chain+0x88>

0800502a <remove_chain>:
 800502a:	b573      	push	{r0, r1, r4, r5, r6, lr}
 800502c:	460c      	mov	r4, r1
 800502e:	2c01      	cmp	r4, #1
 8005030:	6805      	ldr	r5, [r0, #0]
 8005032:	4606      	mov	r6, r0
 8005034:	4611      	mov	r1, r2
 8005036:	d92c      	bls.n	8005092 <remove_chain+0x68>
 8005038:	69ab      	ldr	r3, [r5, #24]
 800503a:	42a3      	cmp	r3, r4
 800503c:	d929      	bls.n	8005092 <remove_chain+0x68>
 800503e:	b12a      	cbz	r2, 800504c <remove_chain+0x22>
 8005040:	f04f 32ff 	mov.w	r2, #4294967295
 8005044:	4628      	mov	r0, r5
 8005046:	f7ff fe93 	bl	8004d70 <put_fat>
 800504a:	b940      	cbnz	r0, 800505e <remove_chain+0x34>
 800504c:	4621      	mov	r1, r4
 800504e:	6830      	ldr	r0, [r6, #0]
 8005050:	9401      	str	r4, [sp, #4]
 8005052:	f7ff ff22 	bl	8004e9a <get_fat.isra.0>
 8005056:	9901      	ldr	r1, [sp, #4]
 8005058:	4604      	mov	r4, r0
 800505a:	b910      	cbnz	r0, 8005062 <remove_chain+0x38>
 800505c:	2000      	movs	r0, #0
 800505e:	b002      	add	sp, #8
 8005060:	bd70      	pop	{r4, r5, r6, pc}
 8005062:	2801      	cmp	r0, #1
 8005064:	d015      	beq.n	8005092 <remove_chain+0x68>
 8005066:	1c43      	adds	r3, r0, #1
 8005068:	d015      	beq.n	8005096 <remove_chain+0x6c>
 800506a:	2200      	movs	r2, #0
 800506c:	4628      	mov	r0, r5
 800506e:	f7ff fe7f 	bl	8004d70 <put_fat>
 8005072:	2800      	cmp	r0, #0
 8005074:	d1f3      	bne.n	800505e <remove_chain+0x34>
 8005076:	e9d5 3205 	ldrd	r3, r2, [r5, #20]
 800507a:	1e91      	subs	r1, r2, #2
 800507c:	428b      	cmp	r3, r1
 800507e:	d205      	bcs.n	800508c <remove_chain+0x62>
 8005080:	3301      	adds	r3, #1
 8005082:	616b      	str	r3, [r5, #20]
 8005084:	792b      	ldrb	r3, [r5, #4]
 8005086:	f043 0301 	orr.w	r3, r3, #1
 800508a:	712b      	strb	r3, [r5, #4]
 800508c:	42a2      	cmp	r2, r4
 800508e:	d8dd      	bhi.n	800504c <remove_chain+0x22>
 8005090:	e7e4      	b.n	800505c <remove_chain+0x32>
 8005092:	2002      	movs	r0, #2
 8005094:	e7e3      	b.n	800505e <remove_chain+0x34>
 8005096:	2001      	movs	r0, #1
 8005098:	e7e1      	b.n	800505e <remove_chain+0x34>

0800509a <sync_fs>:
 800509a:	b5f8      	push	{r3, r4, r5, r6, r7, lr}
 800509c:	4604      	mov	r4, r0
 800509e:	f7ff fc86 	bl	80049ae <sync_window>
 80050a2:	4605      	mov	r5, r0
 80050a4:	2800      	cmp	r0, #0
 80050a6:	d141      	bne.n	800512c <sync_fs+0x92>
 80050a8:	7823      	ldrb	r3, [r4, #0]
 80050aa:	2b03      	cmp	r3, #3
 80050ac:	d136      	bne.n	800511c <sync_fs+0x82>
 80050ae:	7927      	ldrb	r7, [r4, #4]
 80050b0:	2f01      	cmp	r7, #1
 80050b2:	d133      	bne.n	800511c <sync_fs+0x82>
 80050b4:	f104 0634 	add.w	r6, r4, #52	; 0x34
 80050b8:	4601      	mov	r1, r0
 80050ba:	89a2      	ldrh	r2, [r4, #12]
 80050bc:	4630      	mov	r0, r6
 80050be:	f7ff fb3d 	bl	800473c <mem_set>
 80050c2:	2355      	movs	r3, #85	; 0x55
 80050c4:	f884 3232 	strb.w	r3, [r4, #562]	; 0x232
 80050c8:	23aa      	movs	r3, #170	; 0xaa
 80050ca:	f884 3233 	strb.w	r3, [r4, #563]	; 0x233
 80050ce:	2352      	movs	r3, #82	; 0x52
 80050d0:	2241      	movs	r2, #65	; 0x41
 80050d2:	2172      	movs	r1, #114	; 0x72
 80050d4:	f884 3034 	strb.w	r3, [r4, #52]	; 0x34
 80050d8:	f884 3035 	strb.w	r3, [r4, #53]	; 0x35
 80050dc:	2361      	movs	r3, #97	; 0x61
 80050de:	f884 3036 	strb.w	r3, [r4, #54]	; 0x36
 80050e2:	f884 2037 	strb.w	r2, [r4, #55]	; 0x37
 80050e6:	f884 221a 	strb.w	r2, [r4, #538]	; 0x21a
 80050ea:	f884 321b 	strb.w	r3, [r4, #539]	; 0x21b
 80050ee:	f884 1218 	strb.w	r1, [r4, #536]	; 0x218
 80050f2:	f884 1219 	strb.w	r1, [r4, #537]	; 0x219
 80050f6:	f504 7007 	add.w	r0, r4, #540	; 0x21c
 80050fa:	6961      	ldr	r1, [r4, #20]
 80050fc:	f7ff fb16 	bl	800472c <st_dword>
 8005100:	6921      	ldr	r1, [r4, #16]
 8005102:	f504 7008 	add.w	r0, r4, #544	; 0x220
 8005106:	f7ff fb11 	bl	800472c <st_dword>
 800510a:	6a22      	ldr	r2, [r4, #32]
 800510c:	7860      	ldrb	r0, [r4, #1]
 800510e:	3201      	adds	r2, #1
 8005110:	6322      	str	r2, [r4, #48]	; 0x30
 8005112:	463b      	mov	r3, r7
 8005114:	4631      	mov	r1, r6
 8005116:	f7ff fae5 	bl	80046e4 <disk_write>
 800511a:	7125      	strb	r5, [r4, #4]
 800511c:	2200      	movs	r2, #0
 800511e:	7860      	ldrb	r0, [r4, #1]
 8005120:	4611      	mov	r1, r2
 8005122:	f7ff faed 	bl	8004700 <disk_ioctl>
 8005126:	3800      	subs	r0, #0
 8005128:	bf18      	it	ne
 800512a:	2001      	movne	r0, #1
 800512c:	bdf8      	pop	{r3, r4, r5, r6, r7, pc}

0800512e <dir_sdi.constprop.0>:
 800512e:	6882      	ldr	r2, [r0, #8]
 8005130:	b538      	push	{r3, r4, r5, lr}
 8005132:	2300      	movs	r3, #0
 8005134:	6805      	ldr	r5, [r0, #0]
 8005136:	6143      	str	r3, [r0, #20]
 8005138:	4604      	mov	r4, r0
 800513a:	b99a      	cbnz	r2, 8005164 <dir_sdi.constprop.0+0x36>
 800513c:	782b      	ldrb	r3, [r5, #0]
 800513e:	2b02      	cmp	r3, #2
 8005140:	d901      	bls.n	8005146 <dir_sdi.constprop.0+0x18>
 8005142:	6aab      	ldr	r3, [r5, #40]	; 0x28
 8005144:	b96b      	cbnz	r3, 8005162 <dir_sdi.constprop.0+0x34>
 8005146:	892b      	ldrh	r3, [r5, #8]
 8005148:	b90b      	cbnz	r3, 800514e <dir_sdi.constprop.0+0x20>
 800514a:	2002      	movs	r0, #2
 800514c:	bd38      	pop	{r3, r4, r5, pc}
 800514e:	6aab      	ldr	r3, [r5, #40]	; 0x28
 8005150:	61e3      	str	r3, [r4, #28]
 8005152:	69e3      	ldr	r3, [r4, #28]
 8005154:	61a2      	str	r2, [r4, #24]
 8005156:	2b00      	cmp	r3, #0
 8005158:	d0f7      	beq.n	800514a <dir_sdi.constprop.0+0x1c>
 800515a:	3534      	adds	r5, #52	; 0x34
 800515c:	6225      	str	r5, [r4, #32]
 800515e:	2000      	movs	r0, #0
 8005160:	e7f4      	b.n	800514c <dir_sdi.constprop.0+0x1e>
 8005162:	461a      	mov	r2, r3
 8005164:	896b      	ldrh	r3, [r5, #10]
 8005166:	89a9      	ldrh	r1, [r5, #12]
 8005168:	4359      	muls	r1, r3
 800516a:	d10c      	bne.n	8005186 <dir_sdi.constprop.0+0x58>
 800516c:	4611      	mov	r1, r2
 800516e:	6820      	ldr	r0, [r4, #0]
 8005170:	f7ff fe93 	bl	8004e9a <get_fat.isra.0>
 8005174:	1c43      	adds	r3, r0, #1
 8005176:	4602      	mov	r2, r0
 8005178:	d00b      	beq.n	8005192 <dir_sdi.constprop.0+0x64>
 800517a:	2801      	cmp	r0, #1
 800517c:	d9e5      	bls.n	800514a <dir_sdi.constprop.0+0x1c>
 800517e:	69ab      	ldr	r3, [r5, #24]
 8005180:	4298      	cmp	r0, r3
 8005182:	d3f3      	bcc.n	800516c <dir_sdi.constprop.0+0x3e>
 8005184:	e7e1      	b.n	800514a <dir_sdi.constprop.0+0x1c>
 8005186:	4611      	mov	r1, r2
 8005188:	4628      	mov	r0, r5
 800518a:	f7ff fb77 	bl	800487c <clust2sect>
 800518e:	61e0      	str	r0, [r4, #28]
 8005190:	e7df      	b.n	8005152 <dir_sdi.constprop.0+0x24>
 8005192:	2001      	movs	r0, #1
 8005194:	e7da      	b.n	800514c <dir_sdi.constprop.0+0x1e>

08005196 <dir_next>:
 8005196:	e92d 43f8 	stmdb	sp!, {r3, r4, r5, r6, r7, r8, r9, lr}
 800519a:	6947      	ldr	r7, [r0, #20]
 800519c:	69c3      	ldr	r3, [r0, #28]
 800519e:	4605      	mov	r5, r0
 80051a0:	4689      	mov	r9, r1
 80051a2:	3720      	adds	r7, #32
 80051a4:	b1a3      	cbz	r3, 80051d0 <dir_next+0x3a>
 80051a6:	f5b7 1f00 	cmp.w	r7, #2097152	; 0x200000
 80051aa:	d211      	bcs.n	80051d0 <dir_next+0x3a>
 80051ac:	6804      	ldr	r4, [r0, #0]
 80051ae:	89a2      	ldrh	r2, [r4, #12]
 80051b0:	fbb7 f0f2 	udiv	r0, r7, r2
 80051b4:	fb02 7210 	mls	r2, r2, r0, r7
 80051b8:	2a00      	cmp	r2, #0
 80051ba:	d14f      	bne.n	800525c <dir_next+0xc6>
 80051bc:	69a9      	ldr	r1, [r5, #24]
 80051be:	3301      	adds	r3, #1
 80051c0:	61eb      	str	r3, [r5, #28]
 80051c2:	b939      	cbnz	r1, 80051d4 <dir_next+0x3e>
 80051c4:	8923      	ldrh	r3, [r4, #8]
 80051c6:	ebb3 1f57 	cmp.w	r3, r7, lsr #5
 80051ca:	d847      	bhi.n	800525c <dir_next+0xc6>
 80051cc:	2300      	movs	r3, #0
 80051ce:	61eb      	str	r3, [r5, #28]
 80051d0:	2004      	movs	r0, #4
 80051d2:	e00d      	b.n	80051f0 <dir_next+0x5a>
 80051d4:	f8b4 800a 	ldrh.w	r8, [r4, #10]
 80051d8:	f108 38ff 	add.w	r8, r8, #4294967295
 80051dc:	ea18 0800 	ands.w	r8, r8, r0
 80051e0:	d13c      	bne.n	800525c <dir_next+0xc6>
 80051e2:	4620      	mov	r0, r4
 80051e4:	f7ff fe59 	bl	8004e9a <get_fat.isra.0>
 80051e8:	2801      	cmp	r0, #1
 80051ea:	4606      	mov	r6, r0
 80051ec:	d802      	bhi.n	80051f4 <dir_next+0x5e>
 80051ee:	2002      	movs	r0, #2
 80051f0:	e8bd 83f8 	ldmia.w	sp!, {r3, r4, r5, r6, r7, r8, r9, pc}
 80051f4:	1c42      	adds	r2, r0, #1
 80051f6:	d101      	bne.n	80051fc <dir_next+0x66>
 80051f8:	2001      	movs	r0, #1
 80051fa:	e7f9      	b.n	80051f0 <dir_next+0x5a>
 80051fc:	69a3      	ldr	r3, [r4, #24]
 80051fe:	4283      	cmp	r3, r0
 8005200:	d826      	bhi.n	8005250 <dir_next+0xba>
 8005202:	f1b9 0f00 	cmp.w	r9, #0
 8005206:	d0e1      	beq.n	80051cc <dir_next+0x36>
 8005208:	69a9      	ldr	r1, [r5, #24]
 800520a:	4628      	mov	r0, r5
 800520c:	f7ff feb5 	bl	8004f7a <create_chain>
 8005210:	4606      	mov	r6, r0
 8005212:	2800      	cmp	r0, #0
 8005214:	d03b      	beq.n	800528e <dir_next+0xf8>
 8005216:	2801      	cmp	r0, #1
 8005218:	d0e9      	beq.n	80051ee <dir_next+0x58>
 800521a:	1c43      	adds	r3, r0, #1
 800521c:	d0ec      	beq.n	80051f8 <dir_next+0x62>
 800521e:	4620      	mov	r0, r4
 8005220:	f7ff fbc5 	bl	80049ae <sync_window>
 8005224:	4601      	mov	r1, r0
 8005226:	2800      	cmp	r0, #0
 8005228:	d1e6      	bne.n	80051f8 <dir_next+0x62>
 800522a:	89a2      	ldrh	r2, [r4, #12]
 800522c:	f104 0034 	add.w	r0, r4, #52	; 0x34
 8005230:	f7ff fa84 	bl	800473c <mem_set>
 8005234:	4631      	mov	r1, r6
 8005236:	4620      	mov	r0, r4
 8005238:	f7ff fb20 	bl	800487c <clust2sect>
 800523c:	f04f 0901 	mov.w	r9, #1
 8005240:	6320      	str	r0, [r4, #48]	; 0x30
 8005242:	8963      	ldrh	r3, [r4, #10]
 8005244:	4598      	cmp	r8, r3
 8005246:	d315      	bcc.n	8005274 <dir_next+0xde>
 8005248:	6b23      	ldr	r3, [r4, #48]	; 0x30
 800524a:	eba3 0308 	sub.w	r3, r3, r8
 800524e:	6323      	str	r3, [r4, #48]	; 0x30
 8005250:	61ae      	str	r6, [r5, #24]
 8005252:	4631      	mov	r1, r6
 8005254:	4620      	mov	r0, r4
 8005256:	f7ff fb11 	bl	800487c <clust2sect>
 800525a:	61e8      	str	r0, [r5, #28]
 800525c:	89a1      	ldrh	r1, [r4, #12]
 800525e:	616f      	str	r7, [r5, #20]
 8005260:	f104 0334 	add.w	r3, r4, #52	; 0x34
 8005264:	fbb7 f2f1 	udiv	r2, r7, r1
 8005268:	fb01 7712 	mls	r7, r1, r2, r7
 800526c:	441f      	add	r7, r3
 800526e:	622f      	str	r7, [r5, #32]
 8005270:	2000      	movs	r0, #0
 8005272:	e7bd      	b.n	80051f0 <dir_next+0x5a>
 8005274:	f884 9003 	strb.w	r9, [r4, #3]
 8005278:	4620      	mov	r0, r4
 800527a:	f7ff fb72 	bl	8004962 <sync_window.part.0>
 800527e:	2800      	cmp	r0, #0
 8005280:	d1ba      	bne.n	80051f8 <dir_next+0x62>
 8005282:	6b23      	ldr	r3, [r4, #48]	; 0x30
 8005284:	3301      	adds	r3, #1
 8005286:	f108 0801 	add.w	r8, r8, #1
 800528a:	6323      	str	r3, [r4, #48]	; 0x30
 800528c:	e7d9      	b.n	8005242 <dir_next+0xac>
 800528e:	2007      	movs	r0, #7
 8005290:	e7ae      	b.n	80051f0 <dir_next+0x5a>
	...

08005294 <follow_path>:
 8005294:	e92d 43f8 	stmdb	sp!, {r3, r4, r5, r6, r7, r8, r9, lr}
 8005298:	6805      	ldr	r5, [r0, #0]
 800529a:	4681      	mov	r9, r0
 800529c:	460c      	mov	r4, r1
 800529e:	f811 3b01 	ldrb.w	r3, [r1], #1
 80052a2:	2b2f      	cmp	r3, #47	; 0x2f
 80052a4:	d0fa      	beq.n	800529c <follow_path+0x8>
 80052a6:	2b5c      	cmp	r3, #92	; 0x5c
 80052a8:	d0f8      	beq.n	800529c <follow_path+0x8>
 80052aa:	2300      	movs	r3, #0
 80052ac:	f8c9 3008 	str.w	r3, [r9, #8]
 80052b0:	7823      	ldrb	r3, [r4, #0]
 80052b2:	2b1f      	cmp	r3, #31
 80052b4:	d95a      	bls.n	800536c <follow_path+0xd8>
 80052b6:	4f56      	ldr	r7, [pc, #344]	; (8005410 <follow_path+0x17c>)
 80052b8:	f109 0624 	add.w	r6, r9, #36	; 0x24
 80052bc:	220b      	movs	r2, #11
 80052be:	4630      	mov	r0, r6
 80052c0:	2120      	movs	r1, #32
 80052c2:	f7ff fa3b 	bl	800473c <mem_set>
 80052c6:	f1c4 0802 	rsb	r8, r4, #2
 80052ca:	f104 3cff 	add.w	ip, r4, #4294967295
 80052ce:	2200      	movs	r2, #0
 80052d0:	2008      	movs	r0, #8
 80052d2:	eb08 010c 	add.w	r1, r8, ip
 80052d6:	f81c 3f01 	ldrb.w	r3, [ip, #1]!
 80052da:	2b20      	cmp	r3, #32
 80052dc:	d908      	bls.n	80052f0 <follow_path+0x5c>
 80052de:	2b2f      	cmp	r3, #47	; 0x2f
 80052e0:	d001      	beq.n	80052e6 <follow_path+0x52>
 80052e2:	2b5c      	cmp	r3, #92	; 0x5c
 80052e4:	d14c      	bne.n	8005380 <follow_path+0xec>
 80052e6:	5c60      	ldrb	r0, [r4, r1]
 80052e8:	282f      	cmp	r0, #47	; 0x2f
 80052ea:	d047      	beq.n	800537c <follow_path+0xe8>
 80052ec:	285c      	cmp	r0, #92	; 0x5c
 80052ee:	d045      	beq.n	800537c <follow_path+0xe8>
 80052f0:	440c      	add	r4, r1
 80052f2:	2a00      	cmp	r2, #0
 80052f4:	d054      	beq.n	80053a0 <follow_path+0x10c>
 80052f6:	f899 2024 	ldrb.w	r2, [r9, #36]	; 0x24
 80052fa:	f8d9 8000 	ldr.w	r8, [r9]
 80052fe:	2ae5      	cmp	r2, #229	; 0xe5
 8005300:	bf04      	itt	eq
 8005302:	2205      	moveq	r2, #5
 8005304:	f889 2024 	strbeq.w	r2, [r9, #36]	; 0x24
 8005308:	2b21      	cmp	r3, #33	; 0x21
 800530a:	bf34      	ite	cc
 800530c:	2304      	movcc	r3, #4
 800530e:	2300      	movcs	r3, #0
 8005310:	f889 302f 	strb.w	r3, [r9, #47]	; 0x2f
 8005314:	4648      	mov	r0, r9
 8005316:	f7ff ff0a 	bl	800512e <dir_sdi.constprop.0>
 800531a:	2800      	cmp	r0, #0
 800531c:	d14d      	bne.n	80053ba <follow_path+0x126>
 800531e:	f8d9 101c 	ldr.w	r1, [r9, #28]
 8005322:	4640      	mov	r0, r8
 8005324:	f7ff fb49 	bl	80049ba <move_window>
 8005328:	2800      	cmp	r0, #0
 800532a:	d146      	bne.n	80053ba <follow_path+0x126>
 800532c:	f8d9 2020 	ldr.w	r2, [r9, #32]
 8005330:	7813      	ldrb	r3, [r2, #0]
 8005332:	2b00      	cmp	r3, #0
 8005334:	d04c      	beq.n	80053d0 <follow_path+0x13c>
 8005336:	7ad3      	ldrb	r3, [r2, #11]
 8005338:	f003 033f 	and.w	r3, r3, #63	; 0x3f
 800533c:	f889 3006 	strb.w	r3, [r9, #6]
 8005340:	7ad3      	ldrb	r3, [r2, #11]
 8005342:	f013 0008 	ands.w	r0, r3, #8
 8005346:	d10c      	bne.n	8005362 <follow_path+0xce>
 8005348:	f102 0c0b 	add.w	ip, r2, #11
 800534c:	4631      	mov	r1, r6
 800534e:	f812 3b01 	ldrb.w	r3, [r2], #1
 8005352:	f811 eb01 	ldrb.w	lr, [r1], #1
 8005356:	4562      	cmp	r2, ip
 8005358:	eba3 030e 	sub.w	r3, r3, lr
 800535c:	d02b      	beq.n	80053b6 <follow_path+0x122>
 800535e:	2b00      	cmp	r3, #0
 8005360:	d0f5      	beq.n	800534e <follow_path+0xba>
 8005362:	2100      	movs	r1, #0
 8005364:	4648      	mov	r0, r9
 8005366:	f7ff ff16 	bl	8005196 <dir_next>
 800536a:	e7d6      	b.n	800531a <follow_path+0x86>
 800536c:	2380      	movs	r3, #128	; 0x80
 800536e:	f889 302f 	strb.w	r3, [r9, #47]	; 0x2f
 8005372:	4648      	mov	r0, r9
 8005374:	e8bd 43f8 	ldmia.w	sp!, {r3, r4, r5, r6, r7, r8, r9, lr}
 8005378:	f7ff bed9 	b.w	800512e <dir_sdi.constprop.0>
 800537c:	3101      	adds	r1, #1
 800537e:	e7b2      	b.n	80052e6 <follow_path+0x52>
 8005380:	2b2e      	cmp	r3, #46	; 0x2e
 8005382:	d03f      	beq.n	8005404 <follow_path+0x170>
 8005384:	4290      	cmp	r0, r2
 8005386:	d90b      	bls.n	80053a0 <follow_path+0x10c>
 8005388:	0619      	lsls	r1, r3, #24
 800538a:	bf48      	it	mi
 800538c:	3b80      	submi	r3, #128	; 0x80
 800538e:	f8df e084 	ldr.w	lr, [pc, #132]	; 8005414 <follow_path+0x180>
 8005392:	bf48      	it	mi
 8005394:	5cfb      	ldrbmi	r3, [r7, r3]
 8005396:	f81e 1b01 	ldrb.w	r1, [lr], #1
 800539a:	b119      	cbz	r1, 80053a4 <follow_path+0x110>
 800539c:	428b      	cmp	r3, r1
 800539e:	d1fa      	bne.n	8005396 <follow_path+0x102>
 80053a0:	2006      	movs	r0, #6
 80053a2:	e013      	b.n	80053cc <follow_path+0x138>
 80053a4:	f1a3 0161 	sub.w	r1, r3, #97	; 0x61
 80053a8:	2919      	cmp	r1, #25
 80053aa:	bf9c      	itt	ls
 80053ac:	3b20      	subls	r3, #32
 80053ae:	b2db      	uxtbls	r3, r3
 80053b0:	54b3      	strb	r3, [r6, r2]
 80053b2:	3201      	adds	r2, #1
 80053b4:	e78d      	b.n	80052d2 <follow_path+0x3e>
 80053b6:	2b00      	cmp	r3, #0
 80053b8:	d1d3      	bne.n	8005362 <follow_path+0xce>
 80053ba:	f899 302f 	ldrb.w	r3, [r9, #47]	; 0x2f
 80053be:	b148      	cbz	r0, 80053d4 <follow_path+0x140>
 80053c0:	2804      	cmp	r0, #4
 80053c2:	d103      	bne.n	80053cc <follow_path+0x138>
 80053c4:	f013 0f04 	tst.w	r3, #4
 80053c8:	bf08      	it	eq
 80053ca:	2005      	moveq	r0, #5
 80053cc:	e8bd 83f8 	ldmia.w	sp!, {r3, r4, r5, r6, r7, r8, r9, pc}
 80053d0:	2004      	movs	r0, #4
 80053d2:	e7f2      	b.n	80053ba <follow_path+0x126>
 80053d4:	075a      	lsls	r2, r3, #29
 80053d6:	d4f9      	bmi.n	80053cc <follow_path+0x138>
 80053d8:	f899 3006 	ldrb.w	r3, [r9, #6]
 80053dc:	06db      	lsls	r3, r3, #27
 80053de:	d50f      	bpl.n	8005400 <follow_path+0x16c>
 80053e0:	89aa      	ldrh	r2, [r5, #12]
 80053e2:	f8d9 0014 	ldr.w	r0, [r9, #20]
 80053e6:	fbb0 f3f2 	udiv	r3, r0, r2
 80053ea:	f105 0134 	add.w	r1, r5, #52	; 0x34
 80053ee:	fb02 0313 	mls	r3, r2, r3, r0
 80053f2:	4419      	add	r1, r3
 80053f4:	7828      	ldrb	r0, [r5, #0]
 80053f6:	f7ff fa9a 	bl	800492e <ld_clust.isra.0>
 80053fa:	f8c9 0008 	str.w	r0, [r9, #8]
 80053fe:	e75b      	b.n	80052b8 <follow_path+0x24>
 8005400:	2005      	movs	r0, #5
 8005402:	e7e3      	b.n	80053cc <follow_path+0x138>
 8005404:	280b      	cmp	r0, #11
 8005406:	d0cb      	beq.n	80053a0 <follow_path+0x10c>
 8005408:	2208      	movs	r2, #8
 800540a:	200b      	movs	r0, #11
 800540c:	e761      	b.n	80052d2 <follow_path+0x3e>
 800540e:	bf00      	nop
 8005410:	08007c13 	.word	0x08007c13
 8005414:	08007c04 	.word	0x08007c04

08005418 <dir_register>:
 8005418:	b570      	push	{r4, r5, r6, lr}
 800541a:	6806      	ldr	r6, [r0, #0]
 800541c:	4605      	mov	r5, r0
 800541e:	f7ff fe86 	bl	800512e <dir_sdi.constprop.0>
 8005422:	4604      	mov	r4, r0
 8005424:	bb28      	cbnz	r0, 8005472 <dir_register+0x5a>
 8005426:	69e9      	ldr	r1, [r5, #28]
 8005428:	4630      	mov	r0, r6
 800542a:	f7ff fac6 	bl	80049ba <move_window>
 800542e:	4604      	mov	r4, r0
 8005430:	b9f8      	cbnz	r0, 8005472 <dir_register+0x5a>
 8005432:	6a2b      	ldr	r3, [r5, #32]
 8005434:	781b      	ldrb	r3, [r3, #0]
 8005436:	2be5      	cmp	r3, #229	; 0xe5
 8005438:	d114      	bne.n	8005464 <dir_register+0x4c>
 800543a:	69e9      	ldr	r1, [r5, #28]
 800543c:	4630      	mov	r0, r6
 800543e:	f7ff fabc 	bl	80049ba <move_window>
 8005442:	4604      	mov	r4, r0
 8005444:	b960      	cbnz	r0, 8005460 <dir_register+0x48>
 8005446:	4601      	mov	r1, r0
 8005448:	2220      	movs	r2, #32
 800544a:	6a28      	ldr	r0, [r5, #32]
 800544c:	f7ff f976 	bl	800473c <mem_set>
 8005450:	6a28      	ldr	r0, [r5, #32]
 8005452:	220b      	movs	r2, #11
 8005454:	f105 0124 	add.w	r1, r5, #36	; 0x24
 8005458:	f7ff fa60 	bl	800491c <mem_cpy.part.0>
 800545c:	2301      	movs	r3, #1
 800545e:	70f3      	strb	r3, [r6, #3]
 8005460:	4620      	mov	r0, r4
 8005462:	bd70      	pop	{r4, r5, r6, pc}
 8005464:	2b00      	cmp	r3, #0
 8005466:	d0e8      	beq.n	800543a <dir_register+0x22>
 8005468:	2101      	movs	r1, #1
 800546a:	4628      	mov	r0, r5
 800546c:	f7ff fe93 	bl	8005196 <dir_next>
 8005470:	e7d7      	b.n	8005422 <dir_register+0xa>
 8005472:	2c04      	cmp	r4, #4
 8005474:	bf08      	it	eq
 8005476:	2407      	moveq	r4, #7
 8005478:	e7f2      	b.n	8005460 <dir_register+0x48>
	...

0800547c <f_mount>:
 800547c:	b530      	push	{r4, r5, lr}
 800547e:	b085      	sub	sp, #20
 8005480:	e9cd 1000 	strd	r1, r0, [sp]
 8005484:	a803      	add	r0, sp, #12
 8005486:	9103      	str	r1, [sp, #12]
 8005488:	4615      	mov	r5, r2
 800548a:	f7ff fa15 	bl	80048b8 <get_ldnumber>
 800548e:	1e01      	subs	r1, r0, #0
 8005490:	db20      	blt.n	80054d4 <f_mount+0x58>
 8005492:	4c12      	ldr	r4, [pc, #72]	; (80054dc <f_mount+0x60>)
 8005494:	f854 0021 	ldr.w	r0, [r4, r1, lsl #2]
 8005498:	b160      	cbz	r0, 80054b4 <f_mount+0x38>
 800549a:	4b11      	ldr	r3, [pc, #68]	; (80054e0 <f_mount+0x64>)
 800549c:	681a      	ldr	r2, [r3, #0]
 800549e:	4290      	cmp	r0, r2
 80054a0:	bf04      	itt	eq
 80054a2:	2200      	moveq	r2, #0
 80054a4:	601a      	streq	r2, [r3, #0]
 80054a6:	691a      	ldr	r2, [r3, #16]
 80054a8:	4290      	cmp	r0, r2
 80054aa:	f04f 0200 	mov.w	r2, #0
 80054ae:	bf08      	it	eq
 80054b0:	611a      	streq	r2, [r3, #16]
 80054b2:	7002      	strb	r2, [r0, #0]
 80054b4:	9801      	ldr	r0, [sp, #4]
 80054b6:	b108      	cbz	r0, 80054bc <f_mount+0x40>
 80054b8:	2300      	movs	r3, #0
 80054ba:	7003      	strb	r3, [r0, #0]
 80054bc:	f844 0021 	str.w	r0, [r4, r1, lsl #2]
 80054c0:	b130      	cbz	r0, 80054d0 <f_mount+0x54>
 80054c2:	2d01      	cmp	r5, #1
 80054c4:	d108      	bne.n	80054d8 <f_mount+0x5c>
 80054c6:	2200      	movs	r2, #0
 80054c8:	a901      	add	r1, sp, #4
 80054ca:	4668      	mov	r0, sp
 80054cc:	f7ff facc 	bl	8004a68 <find_volume>
 80054d0:	b005      	add	sp, #20
 80054d2:	bd30      	pop	{r4, r5, pc}
 80054d4:	200b      	movs	r0, #11
 80054d6:	e7fb      	b.n	80054d0 <f_mount+0x54>
 80054d8:	2000      	movs	r0, #0
 80054da:	e7f9      	b.n	80054d0 <f_mount+0x54>
 80054dc:	200007a4 	.word	0x200007a4
 80054e0:	200007a8 	.word	0x200007a8

080054e4 <f_open>:
 80054e4:	e92d 43f0 	stmdb	sp!, {r4, r5, r6, r7, r8, r9, lr}
 80054e8:	b091      	sub	sp, #68	; 0x44
 80054ea:	4617      	mov	r7, r2
 80054ec:	9101      	str	r1, [sp, #4]
 80054ee:	4604      	mov	r4, r0
 80054f0:	2800      	cmp	r0, #0
 80054f2:	f000 80f7 	beq.w	80056e4 <f_open+0x200>
 80054f6:	f002 053f 	and.w	r5, r2, #63	; 0x3f
 80054fa:	462a      	mov	r2, r5
 80054fc:	a903      	add	r1, sp, #12
 80054fe:	a801      	add	r0, sp, #4
 8005500:	f7ff fab2 	bl	8004a68 <find_volume>
 8005504:	4606      	mov	r6, r0
 8005506:	2800      	cmp	r0, #0
 8005508:	d15c      	bne.n	80055c4 <f_open+0xe0>
 800550a:	9b03      	ldr	r3, [sp, #12]
 800550c:	9901      	ldr	r1, [sp, #4]
 800550e:	9304      	str	r3, [sp, #16]
 8005510:	a804      	add	r0, sp, #16
 8005512:	f7ff febf 	bl	8005294 <follow_path>
 8005516:	b958      	cbnz	r0, 8005530 <f_open+0x4c>
 8005518:	f99d 303f 	ldrsb.w	r3, [sp, #63]	; 0x3f
 800551c:	2b00      	cmp	r3, #0
 800551e:	db58      	blt.n	80055d2 <f_open+0xee>
 8005520:	f015 0f3e 	tst.w	r5, #62	; 0x3e
 8005524:	bf14      	ite	ne
 8005526:	2101      	movne	r1, #1
 8005528:	2100      	moveq	r1, #0
 800552a:	a804      	add	r0, sp, #16
 800552c:	f7ff f90c 	bl	8004748 <chk_lock>
 8005530:	f017 0f1c 	tst.w	r7, #28
 8005534:	d06d      	beq.n	8005612 <f_open+0x12e>
 8005536:	2800      	cmp	r0, #0
 8005538:	d04d      	beq.n	80055d6 <f_open+0xf2>
 800553a:	2804      	cmp	r0, #4
 800553c:	d142      	bne.n	80055c4 <f_open+0xe0>
 800553e:	4b6a      	ldr	r3, [pc, #424]	; (80056e8 <f_open+0x204>)
 8005540:	681a      	ldr	r2, [r3, #0]
 8005542:	b11a      	cbz	r2, 800554c <f_open+0x68>
 8005544:	691b      	ldr	r3, [r3, #16]
 8005546:	2b00      	cmp	r3, #0
 8005548:	f040 80c6 	bne.w	80056d8 <f_open+0x1f4>
 800554c:	a804      	add	r0, sp, #16
 800554e:	f7ff ff63 	bl	8005418 <dir_register>
 8005552:	2800      	cmp	r0, #0
 8005554:	d136      	bne.n	80055c4 <f_open+0xe0>
 8005556:	f045 0508 	orr.w	r5, r5, #8
 800555a:	f7fd fda9 	bl	80030b0 <get_fattime>
 800555e:	4601      	mov	r1, r0
 8005560:	9000      	str	r0, [sp, #0]
 8005562:	980c      	ldr	r0, [sp, #48]	; 0x30
 8005564:	300e      	adds	r0, #14
 8005566:	f7ff f8e1 	bl	800472c <st_dword>
 800556a:	980c      	ldr	r0, [sp, #48]	; 0x30
 800556c:	9900      	ldr	r1, [sp, #0]
 800556e:	3016      	adds	r0, #22
 8005570:	f7ff f8dc 	bl	800472c <st_dword>
 8005574:	9b0c      	ldr	r3, [sp, #48]	; 0x30
 8005576:	f8dd 800c 	ldr.w	r8, [sp, #12]
 800557a:	2220      	movs	r2, #32
 800557c:	72da      	strb	r2, [r3, #11]
 800557e:	990c      	ldr	r1, [sp, #48]	; 0x30
 8005580:	f898 0000 	ldrb.w	r0, [r8]
 8005584:	f7ff f9d3 	bl	800492e <ld_clust.isra.0>
 8005588:	2200      	movs	r2, #0
 800558a:	4607      	mov	r7, r0
 800558c:	4640      	mov	r0, r8
 800558e:	f7ff f9dc 	bl	800494a <st_clust.isra.0>
 8005592:	9b0c      	ldr	r3, [sp, #48]	; 0x30
 8005594:	2200      	movs	r2, #0
 8005596:	771a      	strb	r2, [r3, #28]
 8005598:	775a      	strb	r2, [r3, #29]
 800559a:	779a      	strb	r2, [r3, #30]
 800559c:	77da      	strb	r2, [r3, #31]
 800559e:	9b03      	ldr	r3, [sp, #12]
 80055a0:	2101      	movs	r1, #1
 80055a2:	70d9      	strb	r1, [r3, #3]
 80055a4:	b307      	cbz	r7, 80055e8 <f_open+0x104>
 80055a6:	4639      	mov	r1, r7
 80055a8:	a804      	add	r0, sp, #16
 80055aa:	f8d3 8030 	ldr.w	r8, [r3, #48]	; 0x30
 80055ae:	f7ff fd3c 	bl	800502a <remove_chain>
 80055b2:	b938      	cbnz	r0, 80055c4 <f_open+0xe0>
 80055b4:	9803      	ldr	r0, [sp, #12]
 80055b6:	4641      	mov	r1, r8
 80055b8:	f7ff f9ff 	bl	80049ba <move_window>
 80055bc:	9b03      	ldr	r3, [sp, #12]
 80055be:	3f01      	subs	r7, #1
 80055c0:	611f      	str	r7, [r3, #16]
 80055c2:	b188      	cbz	r0, 80055e8 <f_open+0x104>
 80055c4:	2300      	movs	r3, #0
 80055c6:	6023      	str	r3, [r4, #0]
 80055c8:	4606      	mov	r6, r0
 80055ca:	4630      	mov	r0, r6
 80055cc:	b011      	add	sp, #68	; 0x44
 80055ce:	e8bd 83f0 	ldmia.w	sp!, {r4, r5, r6, r7, r8, r9, pc}
 80055d2:	2006      	movs	r0, #6
 80055d4:	e7ac      	b.n	8005530 <f_open+0x4c>
 80055d6:	f89d 3016 	ldrb.w	r3, [sp, #22]
 80055da:	f013 0f11 	tst.w	r3, #17
 80055de:	d122      	bne.n	8005626 <f_open+0x142>
 80055e0:	077b      	lsls	r3, r7, #29
 80055e2:	d47b      	bmi.n	80056dc <f_open+0x1f8>
 80055e4:	073f      	lsls	r7, r7, #28
 80055e6:	d4b8      	bmi.n	800555a <f_open+0x76>
 80055e8:	9b03      	ldr	r3, [sp, #12]
 80055ea:	0728      	lsls	r0, r5, #28
 80055ec:	6b1b      	ldr	r3, [r3, #48]	; 0x30
 80055ee:	6263      	str	r3, [r4, #36]	; 0x24
 80055f0:	bf48      	it	mi
 80055f2:	f045 0540 	orrmi.w	r5, r5, #64	; 0x40
 80055f6:	f015 0ffe 	tst.w	r5, #254	; 0xfe
 80055fa:	9b0c      	ldr	r3, [sp, #48]	; 0x30
 80055fc:	62a3      	str	r3, [r4, #40]	; 0x28
 80055fe:	bf14      	ite	ne
 8005600:	2101      	movne	r1, #1
 8005602:	2100      	moveq	r1, #0
 8005604:	a804      	add	r0, sp, #16
 8005606:	f7ff f8d9 	bl	80047bc <inc_lock>
 800560a:	6120      	str	r0, [r4, #16]
 800560c:	b968      	cbnz	r0, 800562a <f_open+0x146>
 800560e:	2002      	movs	r0, #2
 8005610:	e7d8      	b.n	80055c4 <f_open+0xe0>
 8005612:	2800      	cmp	r0, #0
 8005614:	d1d6      	bne.n	80055c4 <f_open+0xe0>
 8005616:	f89d 3016 	ldrb.w	r3, [sp, #22]
 800561a:	06d8      	lsls	r0, r3, #27
 800561c:	d460      	bmi.n	80056e0 <f_open+0x1fc>
 800561e:	07ba      	lsls	r2, r7, #30
 8005620:	d5e2      	bpl.n	80055e8 <f_open+0x104>
 8005622:	07df      	lsls	r7, r3, #31
 8005624:	d5e0      	bpl.n	80055e8 <f_open+0x104>
 8005626:	2007      	movs	r0, #7
 8005628:	e7cc      	b.n	80055c4 <f_open+0xe0>
 800562a:	9f03      	ldr	r7, [sp, #12]
 800562c:	990c      	ldr	r1, [sp, #48]	; 0x30
 800562e:	7838      	ldrb	r0, [r7, #0]
 8005630:	f7ff f97d 	bl	800492e <ld_clust.isra.0>
 8005634:	60a0      	str	r0, [r4, #8]
 8005636:	f101 001c 	add.w	r0, r1, #28
 800563a:	f7ff f86f 	bl	800471c <ld_dword>
 800563e:	88fb      	ldrh	r3, [r7, #6]
 8005640:	6027      	str	r7, [r4, #0]
 8005642:	2100      	movs	r1, #0
 8005644:	f104 0730 	add.w	r7, r4, #48	; 0x30
 8005648:	60e0      	str	r0, [r4, #12]
 800564a:	f44f 5280 	mov.w	r2, #4096	; 0x1000
 800564e:	62e1      	str	r1, [r4, #44]	; 0x2c
 8005650:	80a3      	strh	r3, [r4, #4]
 8005652:	7525      	strb	r5, [r4, #20]
 8005654:	7561      	strb	r1, [r4, #21]
 8005656:	6221      	str	r1, [r4, #32]
 8005658:	61a1      	str	r1, [r4, #24]
 800565a:	4638      	mov	r0, r7
 800565c:	f7ff f86e 	bl	800473c <mem_set>
 8005660:	06aa      	lsls	r2, r5, #26
 8005662:	d5b2      	bpl.n	80055ca <f_open+0xe6>
 8005664:	68e5      	ldr	r5, [r4, #12]
 8005666:	2d00      	cmp	r5, #0
 8005668:	d0af      	beq.n	80055ca <f_open+0xe6>
 800566a:	9b03      	ldr	r3, [sp, #12]
 800566c:	68a1      	ldr	r1, [r4, #8]
 800566e:	895a      	ldrh	r2, [r3, #10]
 8005670:	f8b3 800c 	ldrh.w	r8, [r3, #12]
 8005674:	61a5      	str	r5, [r4, #24]
 8005676:	fb08 f802 	mul.w	r8, r8, r2
 800567a:	45a8      	cmp	r8, r5
 800567c:	d31e      	bcc.n	80056bc <f_open+0x1d8>
 800567e:	2000      	movs	r0, #0
 8005680:	61e1      	str	r1, [r4, #28]
 8005682:	2800      	cmp	r0, #0
 8005684:	d19e      	bne.n	80055c4 <f_open+0xe0>
 8005686:	f8dd 900c 	ldr.w	r9, [sp, #12]
 800568a:	f8b9 300c 	ldrh.w	r3, [r9, #12]
 800568e:	fbb5 f2f3 	udiv	r2, r5, r3
 8005692:	fb03 5512 	mls	r5, r3, r2, r5
 8005696:	2d00      	cmp	r5, #0
 8005698:	d097      	beq.n	80055ca <f_open+0xe6>
 800569a:	4648      	mov	r0, r9
 800569c:	f7ff f8ee 	bl	800487c <clust2sect>
 80056a0:	2800      	cmp	r0, #0
 80056a2:	d0b4      	beq.n	800560e <f_open+0x12a>
 80056a4:	4402      	add	r2, r0
 80056a6:	6222      	str	r2, [r4, #32]
 80056a8:	f899 0001 	ldrb.w	r0, [r9, #1]
 80056ac:	2301      	movs	r3, #1
 80056ae:	4639      	mov	r1, r7
 80056b0:	f7ff f80a 	bl	80046c8 <disk_read>
 80056b4:	2800      	cmp	r0, #0
 80056b6:	d088      	beq.n	80055ca <f_open+0xe6>
 80056b8:	2001      	movs	r0, #1
 80056ba:	e783      	b.n	80055c4 <f_open+0xe0>
 80056bc:	6820      	ldr	r0, [r4, #0]
 80056be:	f7ff fbec 	bl	8004e9a <get_fat.isra.0>
 80056c2:	2801      	cmp	r0, #1
 80056c4:	4601      	mov	r1, r0
 80056c6:	eba5 0508 	sub.w	r5, r5, r8
 80056ca:	d903      	bls.n	80056d4 <f_open+0x1f0>
 80056cc:	1c43      	adds	r3, r0, #1
 80056ce:	d1d4      	bne.n	800567a <f_open+0x196>
 80056d0:	2001      	movs	r0, #1
 80056d2:	e7d5      	b.n	8005680 <f_open+0x19c>
 80056d4:	2002      	movs	r0, #2
 80056d6:	e7d3      	b.n	8005680 <f_open+0x19c>
 80056d8:	2012      	movs	r0, #18
 80056da:	e773      	b.n	80055c4 <f_open+0xe0>
 80056dc:	2008      	movs	r0, #8
 80056de:	e771      	b.n	80055c4 <f_open+0xe0>
 80056e0:	2004      	movs	r0, #4
 80056e2:	e76f      	b.n	80055c4 <f_open+0xe0>
 80056e4:	2609      	movs	r6, #9
 80056e6:	e770      	b.n	80055ca <f_open+0xe6>
 80056e8:	200007a8 	.word	0x200007a8

080056ec <f_read>:
 80056ec:	e92d 4ff0 	stmdb	sp!, {r4, r5, r6, r7, r8, r9, sl, fp, lr}
 80056f0:	b087      	sub	sp, #28
 80056f2:	4616      	mov	r6, r2
 80056f4:	9301      	str	r3, [sp, #4]
 80056f6:	9a01      	ldr	r2, [sp, #4]
 80056f8:	2300      	movs	r3, #0
 80056fa:	4689      	mov	r9, r1
 80056fc:	6013      	str	r3, [r2, #0]
 80056fe:	a905      	add	r1, sp, #20
 8005700:	4604      	mov	r4, r0
 8005702:	f7ff f8f1 	bl	80048e8 <validate>
 8005706:	4605      	mov	r5, r0
 8005708:	bb38      	cbnz	r0, 800575a <f_read+0x6e>
 800570a:	7d65      	ldrb	r5, [r4, #21]
 800570c:	bb2d      	cbnz	r5, 800575a <f_read+0x6e>
 800570e:	7d23      	ldrb	r3, [r4, #20]
 8005710:	f013 0301 	ands.w	r3, r3, #1
 8005714:	9302      	str	r3, [sp, #8]
 8005716:	f000 80a7 	beq.w	8005868 <f_read+0x17c>
 800571a:	68e2      	ldr	r2, [r4, #12]
 800571c:	69a3      	ldr	r3, [r4, #24]
 800571e:	1ad2      	subs	r2, r2, r3
 8005720:	4296      	cmp	r6, r2
 8005722:	bf28      	it	cs
 8005724:	4616      	movcs	r6, r2
 8005726:	f104 0b30 	add.w	fp, r4, #48	; 0x30
 800572a:	b1b6      	cbz	r6, 800575a <f_read+0x6e>
 800572c:	9805      	ldr	r0, [sp, #20]
 800572e:	69a1      	ldr	r1, [r4, #24]
 8005730:	8983      	ldrh	r3, [r0, #12]
 8005732:	fbb1 f2f3 	udiv	r2, r1, r3
 8005736:	fb03 1312 	mls	r3, r3, r2, r1
 800573a:	2b00      	cmp	r3, #0
 800573c:	f040 8081 	bne.w	8005842 <f_read+0x156>
 8005740:	f8b0 800a 	ldrh.w	r8, [r0, #10]
 8005744:	f108 38ff 	add.w	r8, r8, #4294967295
 8005748:	ea18 0802 	ands.w	r8, r8, r2
 800574c:	d11b      	bne.n	8005786 <f_read+0x9a>
 800574e:	b941      	cbnz	r1, 8005762 <f_read+0x76>
 8005750:	68a0      	ldr	r0, [r4, #8]
 8005752:	2801      	cmp	r0, #1
 8005754:	d810      	bhi.n	8005778 <f_read+0x8c>
 8005756:	2502      	movs	r5, #2
 8005758:	7565      	strb	r5, [r4, #21]
 800575a:	4628      	mov	r0, r5
 800575c:	b007      	add	sp, #28
 800575e:	e8bd 8ff0 	ldmia.w	sp!, {r4, r5, r6, r7, r8, r9, sl, fp, pc}
 8005762:	6ae3      	ldr	r3, [r4, #44]	; 0x2c
 8005764:	b11b      	cbz	r3, 800576e <f_read+0x82>
 8005766:	4620      	mov	r0, r4
 8005768:	f7ff f893 	bl	8004892 <clmt_clust>
 800576c:	e7f1      	b.n	8005752 <f_read+0x66>
 800576e:	69e1      	ldr	r1, [r4, #28]
 8005770:	6820      	ldr	r0, [r4, #0]
 8005772:	f7ff fb92 	bl	8004e9a <get_fat.isra.0>
 8005776:	e7ec      	b.n	8005752 <f_read+0x66>
 8005778:	1c43      	adds	r3, r0, #1
 800577a:	d103      	bne.n	8005784 <f_read+0x98>
 800577c:	2301      	movs	r3, #1
 800577e:	9d02      	ldr	r5, [sp, #8]
 8005780:	7563      	strb	r3, [r4, #21]
 8005782:	e7ea      	b.n	800575a <f_read+0x6e>
 8005784:	61e0      	str	r0, [r4, #28]
 8005786:	f8dd a014 	ldr.w	sl, [sp, #20]
 800578a:	69e1      	ldr	r1, [r4, #28]
 800578c:	4650      	mov	r0, sl
 800578e:	f7ff f875 	bl	800487c <clust2sect>
 8005792:	2800      	cmp	r0, #0
 8005794:	d0df      	beq.n	8005756 <f_read+0x6a>
 8005796:	f8ba 300c 	ldrh.w	r3, [sl, #12]
 800579a:	42b3      	cmp	r3, r6
 800579c:	eb08 0700 	add.w	r7, r8, r0
 80057a0:	d832      	bhi.n	8005808 <f_read+0x11c>
 80057a2:	fbb6 f3f3 	udiv	r3, r6, r3
 80057a6:	f8ba 200a 	ldrh.w	r2, [sl, #10]
 80057aa:	f89a 0001 	ldrb.w	r0, [sl, #1]
 80057ae:	eb08 0103 	add.w	r1, r8, r3
 80057b2:	4291      	cmp	r1, r2
 80057b4:	bf88      	it	hi
 80057b6:	eba2 0308 	subhi.w	r3, r2, r8
 80057ba:	4649      	mov	r1, r9
 80057bc:	463a      	mov	r2, r7
 80057be:	9303      	str	r3, [sp, #12]
 80057c0:	f7fe ff82 	bl	80046c8 <disk_read>
 80057c4:	2800      	cmp	r0, #0
 80057c6:	d1d9      	bne.n	800577c <f_read+0x90>
 80057c8:	f994 2014 	ldrsb.w	r2, [r4, #20]
 80057cc:	9b03      	ldr	r3, [sp, #12]
 80057ce:	2a00      	cmp	r2, #0
 80057d0:	da0c      	bge.n	80057ec <f_read+0x100>
 80057d2:	6a20      	ldr	r0, [r4, #32]
 80057d4:	1bc0      	subs	r0, r0, r7
 80057d6:	4298      	cmp	r0, r3
 80057d8:	d208      	bcs.n	80057ec <f_read+0x100>
 80057da:	9a05      	ldr	r2, [sp, #20]
 80057dc:	8992      	ldrh	r2, [r2, #12]
 80057de:	b12a      	cbz	r2, 80057ec <f_read+0x100>
 80057e0:	4659      	mov	r1, fp
 80057e2:	fb02 9000 	mla	r0, r2, r0, r9
 80057e6:	f7ff f899 	bl	800491c <mem_cpy.part.0>
 80057ea:	9b03      	ldr	r3, [sp, #12]
 80057ec:	9a05      	ldr	r2, [sp, #20]
 80057ee:	8997      	ldrh	r7, [r2, #12]
 80057f0:	435f      	muls	r7, r3
 80057f2:	69a3      	ldr	r3, [r4, #24]
 80057f4:	9a01      	ldr	r2, [sp, #4]
 80057f6:	443b      	add	r3, r7
 80057f8:	61a3      	str	r3, [r4, #24]
 80057fa:	9b01      	ldr	r3, [sp, #4]
 80057fc:	681b      	ldr	r3, [r3, #0]
 80057fe:	443b      	add	r3, r7
 8005800:	44b9      	add	r9, r7
 8005802:	6013      	str	r3, [r2, #0]
 8005804:	1bf6      	subs	r6, r6, r7
 8005806:	e790      	b.n	800572a <f_read+0x3e>
 8005808:	6a22      	ldr	r2, [r4, #32]
 800580a:	42ba      	cmp	r2, r7
 800580c:	d018      	beq.n	8005840 <f_read+0x154>
 800580e:	f994 3014 	ldrsb.w	r3, [r4, #20]
 8005812:	2b00      	cmp	r3, #0
 8005814:	da0b      	bge.n	800582e <f_read+0x142>
 8005816:	f89a 0001 	ldrb.w	r0, [sl, #1]
 800581a:	2301      	movs	r3, #1
 800581c:	4659      	mov	r1, fp
 800581e:	f7fe ff61 	bl	80046e4 <disk_write>
 8005822:	2800      	cmp	r0, #0
 8005824:	d1aa      	bne.n	800577c <f_read+0x90>
 8005826:	7d23      	ldrb	r3, [r4, #20]
 8005828:	f003 037f 	and.w	r3, r3, #127	; 0x7f
 800582c:	7523      	strb	r3, [r4, #20]
 800582e:	9805      	ldr	r0, [sp, #20]
 8005830:	2301      	movs	r3, #1
 8005832:	7840      	ldrb	r0, [r0, #1]
 8005834:	463a      	mov	r2, r7
 8005836:	4659      	mov	r1, fp
 8005838:	f7fe ff46 	bl	80046c8 <disk_read>
 800583c:	2800      	cmp	r0, #0
 800583e:	d19d      	bne.n	800577c <f_read+0x90>
 8005840:	6227      	str	r7, [r4, #32]
 8005842:	9b05      	ldr	r3, [sp, #20]
 8005844:	899f      	ldrh	r7, [r3, #12]
 8005846:	69a3      	ldr	r3, [r4, #24]
 8005848:	fbb3 f1f7 	udiv	r1, r3, r7
 800584c:	fb07 3111 	mls	r1, r7, r1, r3
 8005850:	1a7f      	subs	r7, r7, r1
 8005852:	42b7      	cmp	r7, r6
 8005854:	bf28      	it	cs
 8005856:	4637      	movcs	r7, r6
 8005858:	2f00      	cmp	r7, #0
 800585a:	d0ca      	beq.n	80057f2 <f_read+0x106>
 800585c:	463a      	mov	r2, r7
 800585e:	4459      	add	r1, fp
 8005860:	4648      	mov	r0, r9
 8005862:	f7ff f85b 	bl	800491c <mem_cpy.part.0>
 8005866:	e7c4      	b.n	80057f2 <f_read+0x106>
 8005868:	2507      	movs	r5, #7
 800586a:	e776      	b.n	800575a <f_read+0x6e>

0800586c <f_write>:
 800586c:	e92d 4ff0 	stmdb	sp!, {r4, r5, r6, r7, r8, r9, sl, fp, lr}
 8005870:	4699      	mov	r9, r3
 8005872:	b085      	sub	sp, #20
 8005874:	2300      	movs	r3, #0
 8005876:	4688      	mov	r8, r1
 8005878:	f8c9 3000 	str.w	r3, [r9]
 800587c:	a903      	add	r1, sp, #12
 800587e:	4604      	mov	r4, r0
 8005880:	4616      	mov	r6, r2
 8005882:	f7ff f831 	bl	80048e8 <validate>
 8005886:	4605      	mov	r5, r0
 8005888:	bb60      	cbnz	r0, 80058e4 <f_write+0x78>
 800588a:	7d65      	ldrb	r5, [r4, #21]
 800588c:	bb55      	cbnz	r5, 80058e4 <f_write+0x78>
 800588e:	7d23      	ldrb	r3, [r4, #20]
 8005890:	079a      	lsls	r2, r3, #30
 8005892:	f140 80b9 	bpl.w	8005a08 <f_write+0x19c>
 8005896:	69a3      	ldr	r3, [r4, #24]
 8005898:	42f3      	cmn	r3, r6
 800589a:	bf28      	it	cs
 800589c:	43de      	mvncs	r6, r3
 800589e:	f104 0a30 	add.w	sl, r4, #48	; 0x30
 80058a2:	b1de      	cbz	r6, 80058dc <f_write+0x70>
 80058a4:	9803      	ldr	r0, [sp, #12]
 80058a6:	69a1      	ldr	r1, [r4, #24]
 80058a8:	8983      	ldrh	r3, [r0, #12]
 80058aa:	fbb1 f2f3 	udiv	r2, r1, r3
 80058ae:	fb03 1312 	mls	r3, r3, r2, r1
 80058b2:	2b00      	cmp	r3, #0
 80058b4:	f040 8092 	bne.w	80059dc <f_write+0x170>
 80058b8:	8947      	ldrh	r7, [r0, #10]
 80058ba:	3f01      	subs	r7, #1
 80058bc:	4017      	ands	r7, r2
 80058be:	d124      	bne.n	800590a <f_write+0x9e>
 80058c0:	b931      	cbnz	r1, 80058d0 <f_write+0x64>
 80058c2:	68a0      	ldr	r0, [r4, #8]
 80058c4:	b9a0      	cbnz	r0, 80058f0 <f_write+0x84>
 80058c6:	4601      	mov	r1, r0
 80058c8:	4620      	mov	r0, r4
 80058ca:	f7ff fb56 	bl	8004f7a <create_chain>
 80058ce:	e004      	b.n	80058da <f_write+0x6e>
 80058d0:	6ae3      	ldr	r3, [r4, #44]	; 0x2c
 80058d2:	b15b      	cbz	r3, 80058ec <f_write+0x80>
 80058d4:	4620      	mov	r0, r4
 80058d6:	f7fe ffdc 	bl	8004892 <clmt_clust>
 80058da:	b948      	cbnz	r0, 80058f0 <f_write+0x84>
 80058dc:	7d23      	ldrb	r3, [r4, #20]
 80058de:	f043 0340 	orr.w	r3, r3, #64	; 0x40
 80058e2:	7523      	strb	r3, [r4, #20]
 80058e4:	4628      	mov	r0, r5
 80058e6:	b005      	add	sp, #20
 80058e8:	e8bd 8ff0 	ldmia.w	sp!, {r4, r5, r6, r7, r8, r9, sl, fp, pc}
 80058ec:	69e1      	ldr	r1, [r4, #28]
 80058ee:	e7eb      	b.n	80058c8 <f_write+0x5c>
 80058f0:	2801      	cmp	r0, #1
 80058f2:	d102      	bne.n	80058fa <f_write+0x8e>
 80058f4:	2502      	movs	r5, #2
 80058f6:	7565      	strb	r5, [r4, #21]
 80058f8:	e7f4      	b.n	80058e4 <f_write+0x78>
 80058fa:	1c43      	adds	r3, r0, #1
 80058fc:	d101      	bne.n	8005902 <f_write+0x96>
 80058fe:	2501      	movs	r5, #1
 8005900:	e7f9      	b.n	80058f6 <f_write+0x8a>
 8005902:	68a3      	ldr	r3, [r4, #8]
 8005904:	61e0      	str	r0, [r4, #28]
 8005906:	b903      	cbnz	r3, 800590a <f_write+0x9e>
 8005908:	60a0      	str	r0, [r4, #8]
 800590a:	f994 3014 	ldrsb.w	r3, [r4, #20]
 800590e:	2b00      	cmp	r3, #0
 8005910:	da0c      	bge.n	800592c <f_write+0xc0>
 8005912:	9803      	ldr	r0, [sp, #12]
 8005914:	6a22      	ldr	r2, [r4, #32]
 8005916:	7840      	ldrb	r0, [r0, #1]
 8005918:	2301      	movs	r3, #1
 800591a:	4651      	mov	r1, sl
 800591c:	f7fe fee2 	bl	80046e4 <disk_write>
 8005920:	2800      	cmp	r0, #0
 8005922:	d1ec      	bne.n	80058fe <f_write+0x92>
 8005924:	7d23      	ldrb	r3, [r4, #20]
 8005926:	f003 037f 	and.w	r3, r3, #127	; 0x7f
 800592a:	7523      	strb	r3, [r4, #20]
 800592c:	f8dd b00c 	ldr.w	fp, [sp, #12]
 8005930:	69e1      	ldr	r1, [r4, #28]
 8005932:	4658      	mov	r0, fp
 8005934:	f7fe ffa2 	bl	800487c <clust2sect>
 8005938:	2800      	cmp	r0, #0
 800593a:	d0db      	beq.n	80058f4 <f_write+0x88>
 800593c:	f8bb 300c 	ldrh.w	r3, [fp, #12]
 8005940:	42b3      	cmp	r3, r6
 8005942:	eb07 0200 	add.w	r2, r7, r0
 8005946:	d837      	bhi.n	80059b8 <f_write+0x14c>
 8005948:	fbb6 f3f3 	udiv	r3, r6, r3
 800594c:	f8bb 100a 	ldrh.w	r1, [fp, #10]
 8005950:	18f8      	adds	r0, r7, r3
 8005952:	4288      	cmp	r0, r1
 8005954:	bf88      	it	hi
 8005956:	1bcb      	subhi	r3, r1, r7
 8005958:	f89b 0001 	ldrb.w	r0, [fp, #1]
 800595c:	4641      	mov	r1, r8
 800595e:	e9cd 2300 	strd	r2, r3, [sp]
 8005962:	f7fe febf 	bl	80046e4 <disk_write>
 8005966:	2800      	cmp	r0, #0
 8005968:	d1c9      	bne.n	80058fe <f_write+0x92>
 800596a:	6a21      	ldr	r1, [r4, #32]
 800596c:	9a00      	ldr	r2, [sp, #0]
 800596e:	9b01      	ldr	r3, [sp, #4]
 8005970:	1a89      	subs	r1, r1, r2
 8005972:	4299      	cmp	r1, r3
 8005974:	d20d      	bcs.n	8005992 <f_write+0x126>
 8005976:	9a03      	ldr	r2, [sp, #12]
 8005978:	8992      	ldrh	r2, [r2, #12]
 800597a:	b132      	cbz	r2, 800598a <f_write+0x11e>
 800597c:	fb02 8101 	mla	r1, r2, r1, r8
 8005980:	4650      	mov	r0, sl
 8005982:	9300      	str	r3, [sp, #0]
 8005984:	f7fe ffca 	bl	800491c <mem_cpy.part.0>
 8005988:	9b00      	ldr	r3, [sp, #0]
 800598a:	7d22      	ldrb	r2, [r4, #20]
 800598c:	f002 027f 	and.w	r2, r2, #127	; 0x7f
 8005990:	7522      	strb	r2, [r4, #20]
 8005992:	9a03      	ldr	r2, [sp, #12]
 8005994:	8997      	ldrh	r7, [r2, #12]
 8005996:	435f      	muls	r7, r3
 8005998:	69a3      	ldr	r3, [r4, #24]
 800599a:	68e2      	ldr	r2, [r4, #12]
 800599c:	443b      	add	r3, r7
 800599e:	61a3      	str	r3, [r4, #24]
 80059a0:	429a      	cmp	r2, r3
 80059a2:	bf2c      	ite	cs
 80059a4:	60e2      	strcs	r2, [r4, #12]
 80059a6:	60e3      	strcc	r3, [r4, #12]
 80059a8:	f8d9 3000 	ldr.w	r3, [r9]
 80059ac:	443b      	add	r3, r7
 80059ae:	44b8      	add	r8, r7
 80059b0:	f8c9 3000 	str.w	r3, [r9]
 80059b4:	1bf6      	subs	r6, r6, r7
 80059b6:	e774      	b.n	80058a2 <f_write+0x36>
 80059b8:	6a23      	ldr	r3, [r4, #32]
 80059ba:	4293      	cmp	r3, r2
 80059bc:	d00d      	beq.n	80059da <f_write+0x16e>
 80059be:	68e1      	ldr	r1, [r4, #12]
 80059c0:	69a3      	ldr	r3, [r4, #24]
 80059c2:	4299      	cmp	r1, r3
 80059c4:	d909      	bls.n	80059da <f_write+0x16e>
 80059c6:	f89b 0001 	ldrb.w	r0, [fp, #1]
 80059ca:	9200      	str	r2, [sp, #0]
 80059cc:	2301      	movs	r3, #1
 80059ce:	4651      	mov	r1, sl
 80059d0:	f7fe fe7a 	bl	80046c8 <disk_read>
 80059d4:	9a00      	ldr	r2, [sp, #0]
 80059d6:	2800      	cmp	r0, #0
 80059d8:	d191      	bne.n	80058fe <f_write+0x92>
 80059da:	6222      	str	r2, [r4, #32]
 80059dc:	9b03      	ldr	r3, [sp, #12]
 80059de:	899f      	ldrh	r7, [r3, #12]
 80059e0:	69a3      	ldr	r3, [r4, #24]
 80059e2:	fbb3 f0f7 	udiv	r0, r3, r7
 80059e6:	fb07 3010 	mls	r0, r7, r0, r3
 80059ea:	1a3f      	subs	r7, r7, r0
 80059ec:	42b7      	cmp	r7, r6
 80059ee:	bf28      	it	cs
 80059f0:	4637      	movcs	r7, r6
 80059f2:	b127      	cbz	r7, 80059fe <f_write+0x192>
 80059f4:	463a      	mov	r2, r7
 80059f6:	4641      	mov	r1, r8
 80059f8:	4450      	add	r0, sl
 80059fa:	f7fe ff8f 	bl	800491c <mem_cpy.part.0>
 80059fe:	7d23      	ldrb	r3, [r4, #20]
 8005a00:	f063 037f 	orn	r3, r3, #127	; 0x7f
 8005a04:	7523      	strb	r3, [r4, #20]
 8005a06:	e7c7      	b.n	8005998 <f_write+0x12c>
 8005a08:	2507      	movs	r5, #7
 8005a0a:	e76b      	b.n	80058e4 <f_write+0x78>

08005a0c <f_sync>:
 8005a0c:	b5f7      	push	{r0, r1, r2, r4, r5, r6, r7, lr}
 8005a0e:	a901      	add	r1, sp, #4
 8005a10:	4605      	mov	r5, r0
 8005a12:	f7fe ff69 	bl	80048e8 <validate>
 8005a16:	4604      	mov	r4, r0
 8005a18:	2800      	cmp	r0, #0
 8005a1a:	d13b      	bne.n	8005a94 <f_sync+0x88>
 8005a1c:	7d2b      	ldrb	r3, [r5, #20]
 8005a1e:	f013 0440 	ands.w	r4, r3, #64	; 0x40
 8005a22:	d037      	beq.n	8005a94 <f_sync+0x88>
 8005a24:	061b      	lsls	r3, r3, #24
 8005a26:	d50c      	bpl.n	8005a42 <f_sync+0x36>
 8005a28:	9801      	ldr	r0, [sp, #4]
 8005a2a:	6a2a      	ldr	r2, [r5, #32]
 8005a2c:	7840      	ldrb	r0, [r0, #1]
 8005a2e:	2301      	movs	r3, #1
 8005a30:	f105 0130 	add.w	r1, r5, #48	; 0x30
 8005a34:	f7fe fe56 	bl	80046e4 <disk_write>
 8005a38:	bb78      	cbnz	r0, 8005a9a <f_sync+0x8e>
 8005a3a:	7d2b      	ldrb	r3, [r5, #20]
 8005a3c:	f003 037f 	and.w	r3, r3, #127	; 0x7f
 8005a40:	752b      	strb	r3, [r5, #20]
 8005a42:	f7fd fb35 	bl	80030b0 <get_fattime>
 8005a46:	6a69      	ldr	r1, [r5, #36]	; 0x24
 8005a48:	4607      	mov	r7, r0
 8005a4a:	9801      	ldr	r0, [sp, #4]
 8005a4c:	f7fe ffb5 	bl	80049ba <move_window>
 8005a50:	4604      	mov	r4, r0
 8005a52:	b9f8      	cbnz	r0, 8005a94 <f_sync+0x88>
 8005a54:	6aae      	ldr	r6, [r5, #40]	; 0x28
 8005a56:	7af3      	ldrb	r3, [r6, #11]
 8005a58:	f043 0320 	orr.w	r3, r3, #32
 8005a5c:	72f3      	strb	r3, [r6, #11]
 8005a5e:	68aa      	ldr	r2, [r5, #8]
 8005a60:	6828      	ldr	r0, [r5, #0]
 8005a62:	4631      	mov	r1, r6
 8005a64:	f7fe ff71 	bl	800494a <st_clust.isra.0>
 8005a68:	68e9      	ldr	r1, [r5, #12]
 8005a6a:	f106 001c 	add.w	r0, r6, #28
 8005a6e:	f7fe fe5d 	bl	800472c <st_dword>
 8005a72:	4639      	mov	r1, r7
 8005a74:	f106 0016 	add.w	r0, r6, #22
 8005a78:	f7fe fe58 	bl	800472c <st_dword>
 8005a7c:	9801      	ldr	r0, [sp, #4]
 8005a7e:	74b4      	strb	r4, [r6, #18]
 8005a80:	2301      	movs	r3, #1
 8005a82:	74f4      	strb	r4, [r6, #19]
 8005a84:	70c3      	strb	r3, [r0, #3]
 8005a86:	f7ff fb08 	bl	800509a <sync_fs>
 8005a8a:	7d2b      	ldrb	r3, [r5, #20]
 8005a8c:	f023 0340 	bic.w	r3, r3, #64	; 0x40
 8005a90:	4604      	mov	r4, r0
 8005a92:	752b      	strb	r3, [r5, #20]
 8005a94:	4620      	mov	r0, r4
 8005a96:	b003      	add	sp, #12
 8005a98:	bdf0      	pop	{r4, r5, r6, r7, pc}
 8005a9a:	2401      	movs	r4, #1
 8005a9c:	e7fa      	b.n	8005a94 <f_sync+0x88>

08005a9e <f_close>:
 8005a9e:	b513      	push	{r0, r1, r4, lr}
 8005aa0:	4604      	mov	r4, r0
 8005aa2:	f7ff ffb3 	bl	8005a0c <f_sync>
 8005aa6:	b948      	cbnz	r0, 8005abc <f_close+0x1e>
 8005aa8:	a901      	add	r1, sp, #4
 8005aaa:	4620      	mov	r0, r4
 8005aac:	f7fe ff1c 	bl	80048e8 <validate>
 8005ab0:	b920      	cbnz	r0, 8005abc <f_close+0x1e>
 8005ab2:	6920      	ldr	r0, [r4, #16]
 8005ab4:	f7fe fec4 	bl	8004840 <dec_lock>
 8005ab8:	b900      	cbnz	r0, 8005abc <f_close+0x1e>
 8005aba:	6020      	str	r0, [r4, #0]
 8005abc:	b002      	add	sp, #8
 8005abe:	bd10      	pop	{r4, pc}

08005ac0 <FATFS_LinkDriverEx>:
 8005ac0:	b530      	push	{r4, r5, lr}
 8005ac2:	4b0e      	ldr	r3, [pc, #56]	; (8005afc <FATFS_LinkDriverEx+0x3c>)
 8005ac4:	7a5c      	ldrb	r4, [r3, #9]
 8005ac6:	4605      	mov	r5, r0
 8005ac8:	f004 00ff 	and.w	r0, r4, #255	; 0xff
 8005acc:	b9a4      	cbnz	r4, 8005af8 <FATFS_LinkDriverEx+0x38>
 8005ace:	7a5c      	ldrb	r4, [r3, #9]
 8005ad0:	5518      	strb	r0, [r3, r4]
 8005ad2:	7a5c      	ldrb	r4, [r3, #9]
 8005ad4:	eb03 0484 	add.w	r4, r3, r4, lsl #2
 8005ad8:	6065      	str	r5, [r4, #4]
 8005ada:	7a5c      	ldrb	r4, [r3, #9]
 8005adc:	441c      	add	r4, r3
 8005ade:	7222      	strb	r2, [r4, #8]
 8005ae0:	7a5a      	ldrb	r2, [r3, #9]
 8005ae2:	1c54      	adds	r4, r2, #1
 8005ae4:	b2e4      	uxtb	r4, r4
 8005ae6:	725c      	strb	r4, [r3, #9]
 8005ae8:	233a      	movs	r3, #58	; 0x3a
 8005aea:	3230      	adds	r2, #48	; 0x30
 8005aec:	704b      	strb	r3, [r1, #1]
 8005aee:	232f      	movs	r3, #47	; 0x2f
 8005af0:	700a      	strb	r2, [r1, #0]
 8005af2:	708b      	strb	r3, [r1, #2]
 8005af4:	70c8      	strb	r0, [r1, #3]
 8005af6:	bd30      	pop	{r4, r5, pc}
 8005af8:	2001      	movs	r0, #1
 8005afa:	e7fc      	b.n	8005af6 <FATFS_LinkDriverEx+0x36>
 8005afc:	200007cc 	.word	0x200007cc

08005b00 <FATFS_LinkDriver>:
 8005b00:	2200      	movs	r2, #0
 8005b02:	f7ff bfdd 	b.w	8005ac0 <FATFS_LinkDriverEx>
	...

08005b08 <USBH_UserProcess>:
 8005b08:	2904      	cmp	r1, #4
 8005b0a:	d00a      	beq.n	8005b22 <USBH_UserProcess+0x1a>
 8005b0c:	2905      	cmp	r1, #5
 8005b0e:	d004      	beq.n	8005b1a <USBH_UserProcess+0x12>
 8005b10:	2902      	cmp	r1, #2
 8005b12:	d105      	bne.n	8005b20 <USBH_UserProcess+0x18>
 8005b14:	4b04      	ldr	r3, [pc, #16]	; (8005b28 <USBH_UserProcess+0x20>)
 8005b16:	7019      	strb	r1, [r3, #0]
 8005b18:	4770      	bx	lr
 8005b1a:	4b03      	ldr	r3, [pc, #12]	; (8005b28 <USBH_UserProcess+0x20>)
 8005b1c:	2203      	movs	r2, #3
 8005b1e:	701a      	strb	r2, [r3, #0]
 8005b20:	4770      	bx	lr
 8005b22:	4b01      	ldr	r3, [pc, #4]	; (8005b28 <USBH_UserProcess+0x20>)
 8005b24:	2201      	movs	r2, #1
 8005b26:	e7fa      	b.n	8005b1e <USBH_UserProcess+0x16>
 8005b28:	200007d8 	.word	0x200007d8

08005b2c <MX_USB_HOST_Init>:
 8005b2c:	b508      	push	{r3, lr}
 8005b2e:	490c      	ldr	r1, [pc, #48]	; (8005b60 <MX_USB_HOST_Init+0x34>)
 8005b30:	480c      	ldr	r0, [pc, #48]	; (8005b64 <MX_USB_HOST_Init+0x38>)
 8005b32:	2201      	movs	r2, #1
 8005b34:	f7fe f894 	bl	8003c60 <USBH_Init>
 8005b38:	b108      	cbz	r0, 8005b3e <MX_USB_HOST_Init+0x12>
 8005b3a:	f7fb fa21 	bl	8000f80 <Error_Handler>
 8005b3e:	490a      	ldr	r1, [pc, #40]	; (8005b68 <MX_USB_HOST_Init+0x3c>)
 8005b40:	4808      	ldr	r0, [pc, #32]	; (8005b64 <MX_USB_HOST_Init+0x38>)
 8005b42:	f7fe f8aa 	bl	8003c9a <USBH_RegisterClass>
 8005b46:	b108      	cbz	r0, 8005b4c <MX_USB_HOST_Init+0x20>
 8005b48:	f7fb fa1a 	bl	8000f80 <Error_Handler>
 8005b4c:	4805      	ldr	r0, [pc, #20]	; (8005b64 <MX_USB_HOST_Init+0x38>)
 8005b4e:	f7fe f8d6 	bl	8003cfe <USBH_Start>
 8005b52:	b118      	cbz	r0, 8005b5c <MX_USB_HOST_Init+0x30>
 8005b54:	e8bd 4008 	ldmia.w	sp!, {r3, lr}
 8005b58:	f7fb ba12 	b.w	8000f80 <Error_Handler>
 8005b5c:	bd08      	pop	{r3, pc}
 8005b5e:	bf00      	nop
 8005b60:	08005b09 	.word	0x08005b09
 8005b64:	20003888 	.word	0x20003888
 8005b68:	2000000c 	.word	0x2000000c

08005b6c <MX_USB_HOST_Process>:
 8005b6c:	4801      	ldr	r0, [pc, #4]	; (8005b74 <MX_USB_HOST_Process+0x8>)
 8005b6e:	f7fe b8d0 	b.w	8003d12 <USBH_Process>
 8005b72:	bf00      	nop
 8005b74:	20003888 	.word	0x20003888

08005b78 <HAL_HCD_MspInit>:
 8005b78:	b530      	push	{r4, r5, lr}
 8005b7a:	4604      	mov	r4, r0
 8005b7c:	b089      	sub	sp, #36	; 0x24
 8005b7e:	2214      	movs	r2, #20
 8005b80:	2100      	movs	r1, #0
 8005b82:	a803      	add	r0, sp, #12
 8005b84:	f000 f978 	bl	8005e78 <memset>
 8005b88:	6823      	ldr	r3, [r4, #0]
 8005b8a:	f1b3 4fa0 	cmp.w	r3, #1342177280	; 0x50000000
 8005b8e:	d137      	bne.n	8005c00 <HAL_HCD_MspInit+0x88>
 8005b90:	4c1c      	ldr	r4, [pc, #112]	; (8005c04 <HAL_HCD_MspInit+0x8c>)
 8005b92:	481d      	ldr	r0, [pc, #116]	; (8005c08 <HAL_HCD_MspInit+0x90>)
 8005b94:	2500      	movs	r5, #0
 8005b96:	9501      	str	r5, [sp, #4]
 8005b98:	6b23      	ldr	r3, [r4, #48]	; 0x30
 8005b9a:	f043 0301 	orr.w	r3, r3, #1
 8005b9e:	6323      	str	r3, [r4, #48]	; 0x30
 8005ba0:	6b23      	ldr	r3, [r4, #48]	; 0x30
 8005ba2:	9505      	str	r5, [sp, #20]
 8005ba4:	f003 0301 	and.w	r3, r3, #1
 8005ba8:	9301      	str	r3, [sp, #4]
 8005baa:	9b01      	ldr	r3, [sp, #4]
 8005bac:	a903      	add	r1, sp, #12
 8005bae:	f44f 7300 	mov.w	r3, #512	; 0x200
 8005bb2:	e9cd 3503 	strd	r3, r5, [sp, #12]
 8005bb6:	f7fb fee5 	bl	8001984 <HAL_GPIO_Init>
 8005bba:	f44f 52c0 	mov.w	r2, #6144	; 0x1800
 8005bbe:	2302      	movs	r3, #2
 8005bc0:	e9cd 2303 	strd	r2, r3, [sp, #12]
 8005bc4:	4810      	ldr	r0, [pc, #64]	; (8005c08 <HAL_HCD_MspInit+0x90>)
 8005bc6:	230a      	movs	r3, #10
 8005bc8:	a903      	add	r1, sp, #12
 8005bca:	9307      	str	r3, [sp, #28]
 8005bcc:	e9cd 5505 	strd	r5, r5, [sp, #20]
 8005bd0:	f7fb fed8 	bl	8001984 <HAL_GPIO_Init>
 8005bd4:	6b63      	ldr	r3, [r4, #52]	; 0x34
 8005bd6:	f043 0380 	orr.w	r3, r3, #128	; 0x80
 8005bda:	6363      	str	r3, [r4, #52]	; 0x34
 8005bdc:	9502      	str	r5, [sp, #8]
 8005bde:	6c63      	ldr	r3, [r4, #68]	; 0x44
 8005be0:	f443 4380 	orr.w	r3, r3, #16384	; 0x4000
 8005be4:	6463      	str	r3, [r4, #68]	; 0x44
 8005be6:	6c63      	ldr	r3, [r4, #68]	; 0x44
 8005be8:	f403 4380 	and.w	r3, r3, #16384	; 0x4000
 8005bec:	9302      	str	r3, [sp, #8]
 8005bee:	2043      	movs	r0, #67	; 0x43
 8005bf0:	462a      	mov	r2, r5
 8005bf2:	4629      	mov	r1, r5
 8005bf4:	9b02      	ldr	r3, [sp, #8]
 8005bf6:	f7fb fe6f 	bl	80018d8 <HAL_NVIC_SetPriority>
 8005bfa:	2043      	movs	r0, #67	; 0x43
 8005bfc:	f7fb fe9e 	bl	800193c <HAL_NVIC_EnableIRQ>
 8005c00:	b009      	add	sp, #36	; 0x24
 8005c02:	bd30      	pop	{r4, r5, pc}
 8005c04:	40023800 	.word	0x40023800
 8005c08:	40020000 	.word	0x40020000

08005c0c <HAL_HCD_SOF_Callback>:
 8005c0c:	f8d0 0300 	ldr.w	r0, [r0, #768]	; 0x300
 8005c10:	f7fe ba6a 	b.w	80040e8 <USBH_LL_IncTimer>

08005c14 <HAL_HCD_Connect_Callback>:
 8005c14:	f8d0 0300 	ldr.w	r0, [r0, #768]	; 0x300
 8005c18:	f7fe ba7c 	b.w	8004114 <USBH_LL_Connect>

08005c1c <HAL_HCD_Disconnect_Callback>:
 8005c1c:	f8d0 0300 	ldr.w	r0, [r0, #768]	; 0x300
 8005c20:	f7fe ba82 	b.w	8004128 <USBH_LL_Disconnect>

08005c24 <HAL_HCD_HC_NotifyURBChange_Callback>:
 8005c24:	4770      	bx	lr

08005c26 <HAL_HCD_PortEnabled_Callback>:
 8005c26:	f8d0 0300 	ldr.w	r0, [r0, #768]	; 0x300
 8005c2a:	f7fe ba6b 	b.w	8004104 <USBH_LL_PortEnabled>

08005c2e <HAL_HCD_PortDisabled_Callback>:
 8005c2e:	f8d0 0300 	ldr.w	r0, [r0, #768]	; 0x300
 8005c32:	f7fe ba6b 	b.w	800410c <USBH_LL_PortDisabled>
	...

08005c38 <USBH_LL_Init>:
 8005c38:	b510      	push	{r4, lr}
 8005c3a:	f890 33cc 	ldrb.w	r3, [r0, #972]	; 0x3cc
 8005c3e:	2b01      	cmp	r3, #1
 8005c40:	4604      	mov	r4, r0
 8005c42:	d11b      	bne.n	8005c7c <USBH_LL_Init+0x44>
 8005c44:	480e      	ldr	r0, [pc, #56]	; (8005c80 <USBH_LL_Init+0x48>)
 8005c46:	f8c4 03d0 	str.w	r0, [r4, #976]	; 0x3d0
 8005c4a:	f04f 42a0 	mov.w	r2, #1342177280	; 0x50000000
 8005c4e:	6002      	str	r2, [r0, #0]
 8005c50:	2208      	movs	r2, #8
 8005c52:	e9c0 2302 	strd	r2, r3, [r0, #8]
 8005c56:	2300      	movs	r3, #0
 8005c58:	2202      	movs	r2, #2
 8005c5a:	e9c0 2306 	strd	r2, r3, [r0, #24]
 8005c5e:	f8c0 4300 	str.w	r4, [r0, #768]	; 0x300
 8005c62:	6103      	str	r3, [r0, #16]
 8005c64:	f7fb ffbb 	bl	8001bde <HAL_HCD_Init>
 8005c68:	b108      	cbz	r0, 8005c6e <USBH_LL_Init+0x36>
 8005c6a:	f7fb f989 	bl	8000f80 <Error_Handler>
 8005c6e:	4804      	ldr	r0, [pc, #16]	; (8005c80 <USBH_LL_Init+0x48>)
 8005c70:	f7fc fbea 	bl	8002448 <HAL_HCD_GetCurrentFrame>
 8005c74:	4601      	mov	r1, r0
 8005c76:	4620      	mov	r0, r4
 8005c78:	f7fe fa33 	bl	80040e2 <USBH_LL_SetTimer>
 8005c7c:	2000      	movs	r0, #0
 8005c7e:	bd10      	pop	{r4, pc}
 8005c80:	20003c60 	.word	0x20003c60

08005c84 <USBH_LL_Start>:
 8005c84:	b508      	push	{r3, lr}
 8005c86:	f8d0 03d0 	ldr.w	r0, [r0, #976]	; 0x3d0
 8005c8a:	f7fc fba8 	bl	80023de <HAL_HCD_Start>
 8005c8e:	2803      	cmp	r0, #3
 8005c90:	bf96      	itet	ls
 8005c92:	4b02      	ldrls	r3, [pc, #8]	; (8005c9c <USBH_LL_Start+0x18>)
 8005c94:	2002      	movhi	r0, #2
 8005c96:	5c18      	ldrbls	r0, [r3, r0]
 8005c98:	bd08      	pop	{r3, pc}
 8005c9a:	bf00      	nop
 8005c9c:	08007c93 	.word	0x08007c93

08005ca0 <USBH_LL_Stop>:
 8005ca0:	b508      	push	{r3, lr}
 8005ca2:	f8d0 03d0 	ldr.w	r0, [r0, #976]	; 0x3d0
 8005ca6:	f7fc fbaf 	bl	8002408 <HAL_HCD_Stop>
 8005caa:	2803      	cmp	r0, #3
 8005cac:	bf96      	itet	ls
 8005cae:	4b02      	ldrls	r3, [pc, #8]	; (8005cb8 <USBH_LL_Stop+0x18>)
 8005cb0:	2002      	movhi	r0, #2
 8005cb2:	5c18      	ldrbls	r0, [r3, r0]
 8005cb4:	bd08      	pop	{r3, pc}
 8005cb6:	bf00      	nop
 8005cb8:	08007c93 	.word	0x08007c93

08005cbc <USBH_LL_GetSpeed>:
 8005cbc:	b508      	push	{r3, lr}
 8005cbe:	f8d0 03d0 	ldr.w	r0, [r0, #976]	; 0x3d0
 8005cc2:	f7fc fbc4 	bl	800244e <HAL_HCD_GetCurrentSpeed>
 8005cc6:	2802      	cmp	r0, #2
 8005cc8:	bf88      	it	hi
 8005cca:	2001      	movhi	r0, #1
 8005ccc:	b2c0      	uxtb	r0, r0
 8005cce:	bd08      	pop	{r3, pc}

08005cd0 <USBH_LL_ResetPort>:
 8005cd0:	b508      	push	{r3, lr}
 8005cd2:	f8d0 03d0 	ldr.w	r0, [r0, #976]	; 0x3d0
 8005cd6:	f7fc fba9 	bl	800242c <HAL_HCD_ResetPort>
 8005cda:	2803      	cmp	r0, #3
 8005cdc:	bf96      	itet	ls
 8005cde:	4b02      	ldrls	r3, [pc, #8]	; (8005ce8 <USBH_LL_ResetPort+0x18>)
 8005ce0:	2002      	movhi	r0, #2
 8005ce2:	5c18      	ldrbls	r0, [r3, r0]
 8005ce4:	bd08      	pop	{r3, pc}
 8005ce6:	bf00      	nop
 8005ce8:	08007c93 	.word	0x08007c93

08005cec <USBH_LL_GetLastXferSize>:
 8005cec:	f8d0 03d0 	ldr.w	r0, [r0, #976]	; 0x3d0
 8005cf0:	f7fc bba5 	b.w	800243e <HAL_HCD_HC_GetXferCount>

08005cf4 <USBH_LL_OpenPipe>:
 8005cf4:	b51f      	push	{r0, r1, r2, r3, r4, lr}
 8005cf6:	f8bd 4020 	ldrh.w	r4, [sp, #32]
 8005cfa:	9402      	str	r4, [sp, #8]
 8005cfc:	f89d 401c 	ldrb.w	r4, [sp, #28]
 8005d00:	9401      	str	r4, [sp, #4]
 8005d02:	f89d 4018 	ldrb.w	r4, [sp, #24]
 8005d06:	9400      	str	r4, [sp, #0]
 8005d08:	f8d0 03d0 	ldr.w	r0, [r0, #976]	; 0x3d0
 8005d0c:	f7fb ff1f 	bl	8001b4e <HAL_HCD_HC_Init>
 8005d10:	2803      	cmp	r0, #3
 8005d12:	bf9a      	itte	ls
 8005d14:	4b02      	ldrls	r3, [pc, #8]	; (8005d20 <USBH_LL_OpenPipe+0x2c>)
 8005d16:	5c18      	ldrbls	r0, [r3, r0]
 8005d18:	2002      	movhi	r0, #2
 8005d1a:	b004      	add	sp, #16
 8005d1c:	bd10      	pop	{r4, pc}
 8005d1e:	bf00      	nop
 8005d20:	08007c93 	.word	0x08007c93

08005d24 <USBH_LL_ClosePipe>:
 8005d24:	b508      	push	{r3, lr}
 8005d26:	f8d0 03d0 	ldr.w	r0, [r0, #976]	; 0x3d0
 8005d2a:	f7fb ff46 	bl	8001bba <HAL_HCD_HC_Halt>
 8005d2e:	2803      	cmp	r0, #3
 8005d30:	bf96      	itet	ls
 8005d32:	4b02      	ldrls	r3, [pc, #8]	; (8005d3c <USBH_LL_ClosePipe+0x18>)
 8005d34:	2002      	movhi	r0, #2
 8005d36:	5c18      	ldrbls	r0, [r3, r0]
 8005d38:	bd08      	pop	{r3, pc}
 8005d3a:	bf00      	nop
 8005d3c:	08007c93 	.word	0x08007c93

08005d40 <USBH_LL_SubmitURB>:
 8005d40:	b51f      	push	{r0, r1, r2, r3, r4, lr}
 8005d42:	f89d 4024 	ldrb.w	r4, [sp, #36]	; 0x24
 8005d46:	9403      	str	r4, [sp, #12]
 8005d48:	f8bd 4020 	ldrh.w	r4, [sp, #32]
 8005d4c:	9402      	str	r4, [sp, #8]
 8005d4e:	9c07      	ldr	r4, [sp, #28]
 8005d50:	9401      	str	r4, [sp, #4]
 8005d52:	f89d 4018 	ldrb.w	r4, [sp, #24]
 8005d56:	9400      	str	r4, [sp, #0]
 8005d58:	f8d0 03d0 	ldr.w	r0, [r0, #976]	; 0x3d0
 8005d5c:	f7fb ff8a 	bl	8001c74 <HAL_HCD_HC_SubmitRequest>
 8005d60:	2803      	cmp	r0, #3
 8005d62:	bf9a      	itte	ls
 8005d64:	4b02      	ldrls	r3, [pc, #8]	; (8005d70 <USBH_LL_SubmitURB+0x30>)
 8005d66:	5c18      	ldrbls	r0, [r3, r0]
 8005d68:	2002      	movhi	r0, #2
 8005d6a:	b004      	add	sp, #16
 8005d6c:	bd10      	pop	{r4, pc}
 8005d6e:	bf00      	nop
 8005d70:	08007c93 	.word	0x08007c93

08005d74 <USBH_LL_GetURBState>:
 8005d74:	f8d0 03d0 	ldr.w	r0, [r0, #976]	; 0x3d0
 8005d78:	f7fc bb5b 	b.w	8002432 <HAL_HCD_HC_GetURBState>

08005d7c <USBH_LL_DriverVBUS>:
 8005d7c:	b508      	push	{r3, lr}
 8005d7e:	f890 33cc 	ldrb.w	r3, [r0, #972]	; 0x3cc
 8005d82:	2b01      	cmp	r3, #1
 8005d84:	d102      	bne.n	8005d8c <USBH_LL_DriverVBUS+0x10>
 8005d86:	4608      	mov	r0, r1
 8005d88:	f000 f824 	bl	8005dd4 <MX_DriverVbusFS>
 8005d8c:	20c8      	movs	r0, #200	; 0xc8
 8005d8e:	f7fb fd7d 	bl	800188c <HAL_Delay>
 8005d92:	2000      	movs	r0, #0
 8005d94:	bd08      	pop	{r3, pc}

08005d96 <USBH_LL_SetToggle>:
 8005d96:	f8d0 33d0 	ldr.w	r3, [r0, #976]	; 0x3d0
 8005d9a:	202c      	movs	r0, #44	; 0x2c
 8005d9c:	fb00 3101 	mla	r1, r0, r1, r3
 8005da0:	f891 303b 	ldrb.w	r3, [r1, #59]	; 0x3b
 8005da4:	b11b      	cbz	r3, 8005dae <USBH_LL_SetToggle+0x18>
 8005da6:	f881 2054 	strb.w	r2, [r1, #84]	; 0x54
 8005daa:	2000      	movs	r0, #0
 8005dac:	4770      	bx	lr
 8005dae:	f881 2055 	strb.w	r2, [r1, #85]	; 0x55
 8005db2:	e7fa      	b.n	8005daa <USBH_LL_SetToggle+0x14>

08005db4 <USBH_LL_GetToggle>:
 8005db4:	f8d0 33d0 	ldr.w	r3, [r0, #976]	; 0x3d0
 8005db8:	222c      	movs	r2, #44	; 0x2c
 8005dba:	fb02 3101 	mla	r1, r2, r1, r3
 8005dbe:	f891 303b 	ldrb.w	r3, [r1, #59]	; 0x3b
 8005dc2:	b113      	cbz	r3, 8005dca <USBH_LL_GetToggle+0x16>
 8005dc4:	f891 0054 	ldrb.w	r0, [r1, #84]	; 0x54
 8005dc8:	4770      	bx	lr
 8005dca:	f891 0055 	ldrb.w	r0, [r1, #85]	; 0x55
 8005dce:	4770      	bx	lr

08005dd0 <USBH_Delay>:
 8005dd0:	f7fb bd5c 	b.w	800188c <HAL_Delay>

08005dd4 <MX_DriverVbusFS>:
 8005dd4:	1e02      	subs	r2, r0, #0
 8005dd6:	bf18      	it	ne
 8005dd8:	2201      	movne	r2, #1
 8005dda:	4802      	ldr	r0, [pc, #8]	; (8005de4 <MX_DriverVbusFS+0x10>)
 8005ddc:	2101      	movs	r1, #1
 8005dde:	f7fb beb1 	b.w	8001b44 <HAL_GPIO_WritePin>
 8005de2:	bf00      	nop
 8005de4:	40020800 	.word	0x40020800

08005de8 <__errno>:
 8005de8:	4b01      	ldr	r3, [pc, #4]	; (8005df0 <__errno+0x8>)
 8005dea:	6818      	ldr	r0, [r3, #0]
 8005dec:	4770      	bx	lr
 8005dee:	bf00      	nop
 8005df0:	2000002c 	.word	0x2000002c

08005df4 <__libc_init_array>:
 8005df4:	b570      	push	{r4, r5, r6, lr}
 8005df6:	4d0d      	ldr	r5, [pc, #52]	; (8005e2c <__libc_init_array+0x38>)
 8005df8:	4c0d      	ldr	r4, [pc, #52]	; (8005e30 <__libc_init_array+0x3c>)
 8005dfa:	1b64      	subs	r4, r4, r5
 8005dfc:	10a4      	asrs	r4, r4, #2
 8005dfe:	2600      	movs	r6, #0
 8005e00:	42a6      	cmp	r6, r4
 8005e02:	d109      	bne.n	8005e18 <__libc_init_array+0x24>
 8005e04:	4d0b      	ldr	r5, [pc, #44]	; (8005e34 <__libc_init_array+0x40>)
 8005e06:	4c0c      	ldr	r4, [pc, #48]	; (8005e38 <__libc_init_array+0x44>)
 8005e08:	f001 fa58 	bl	80072bc <_init>
 8005e0c:	1b64      	subs	r4, r4, r5
 8005e0e:	10a4      	asrs	r4, r4, #2
 8005e10:	2600      	movs	r6, #0
 8005e12:	42a6      	cmp	r6, r4
 8005e14:	d105      	bne.n	8005e22 <__libc_init_array+0x2e>
 8005e16:	bd70      	pop	{r4, r5, r6, pc}
 8005e18:	f855 3b04 	ldr.w	r3, [r5], #4
 8005e1c:	4798      	blx	r3
 8005e1e:	3601      	adds	r6, #1
 8005e20:	e7ee      	b.n	8005e00 <__libc_init_array+0xc>
 8005e22:	f855 3b04 	ldr.w	r3, [r5], #4
 8005e26:	4798      	blx	r3
 8005e28:	3601      	adds	r6, #1
 8005e2a:	e7f2      	b.n	8005e12 <__libc_init_array+0x1e>
 8005e2c:	08007e50 	.word	0x08007e50
 8005e30:	08007e50 	.word	0x08007e50
 8005e34:	08007e50 	.word	0x08007e50
 8005e38:	08007e54 	.word	0x08007e54

08005e3c <malloc>:
 8005e3c:	4b02      	ldr	r3, [pc, #8]	; (8005e48 <malloc+0xc>)
 8005e3e:	4601      	mov	r1, r0
 8005e40:	6818      	ldr	r0, [r3, #0]
 8005e42:	f000 b871 	b.w	8005f28 <_malloc_r>
 8005e46:	bf00      	nop
 8005e48:	2000002c 	.word	0x2000002c

08005e4c <free>:
 8005e4c:	4b02      	ldr	r3, [pc, #8]	; (8005e58 <free+0xc>)
 8005e4e:	4601      	mov	r1, r0
 8005e50:	6818      	ldr	r0, [r3, #0]
 8005e52:	f000 b819 	b.w	8005e88 <_free_r>
 8005e56:	bf00      	nop
 8005e58:	2000002c 	.word	0x2000002c

08005e5c <memcpy>:
 8005e5c:	440a      	add	r2, r1
 8005e5e:	4291      	cmp	r1, r2
 8005e60:	f100 33ff 	add.w	r3, r0, #4294967295
 8005e64:	d100      	bne.n	8005e68 <memcpy+0xc>
 8005e66:	4770      	bx	lr
 8005e68:	b510      	push	{r4, lr}
 8005e6a:	f811 4b01 	ldrb.w	r4, [r1], #1
 8005e6e:	f803 4f01 	strb.w	r4, [r3, #1]!
 8005e72:	4291      	cmp	r1, r2
 8005e74:	d1f9      	bne.n	8005e6a <memcpy+0xe>
 8005e76:	bd10      	pop	{r4, pc}

08005e78 <memset>:
 8005e78:	4402      	add	r2, r0
 8005e7a:	4603      	mov	r3, r0
 8005e7c:	4293      	cmp	r3, r2
 8005e7e:	d100      	bne.n	8005e82 <memset+0xa>
 8005e80:	4770      	bx	lr
 8005e82:	f803 1b01 	strb.w	r1, [r3], #1
 8005e86:	e7f9      	b.n	8005e7c <memset+0x4>

08005e88 <_free_r>:
 8005e88:	b537      	push	{r0, r1, r2, r4, r5, lr}
 8005e8a:	2900      	cmp	r1, #0
 8005e8c:	d048      	beq.n	8005f20 <_free_r+0x98>
 8005e8e:	f851 3c04 	ldr.w	r3, [r1, #-4]
 8005e92:	9001      	str	r0, [sp, #4]
 8005e94:	2b00      	cmp	r3, #0
 8005e96:	f1a1 0404 	sub.w	r4, r1, #4
 8005e9a:	bfb8      	it	lt
 8005e9c:	18e4      	addlt	r4, r4, r3
 8005e9e:	f000 f8fb 	bl	8006098 <__malloc_lock>
 8005ea2:	4a20      	ldr	r2, [pc, #128]	; (8005f24 <_free_r+0x9c>)
 8005ea4:	9801      	ldr	r0, [sp, #4]
 8005ea6:	6813      	ldr	r3, [r2, #0]
 8005ea8:	4615      	mov	r5, r2
 8005eaa:	b933      	cbnz	r3, 8005eba <_free_r+0x32>
 8005eac:	6063      	str	r3, [r4, #4]
 8005eae:	6014      	str	r4, [r2, #0]
 8005eb0:	b003      	add	sp, #12
 8005eb2:	e8bd 4030 	ldmia.w	sp!, {r4, r5, lr}
 8005eb6:	f000 b8f5 	b.w	80060a4 <__malloc_unlock>
 8005eba:	42a3      	cmp	r3, r4
 8005ebc:	d90b      	bls.n	8005ed6 <_free_r+0x4e>
 8005ebe:	6821      	ldr	r1, [r4, #0]
 8005ec0:	1862      	adds	r2, r4, r1
 8005ec2:	4293      	cmp	r3, r2
 8005ec4:	bf04      	itt	eq
 8005ec6:	681a      	ldreq	r2, [r3, #0]
 8005ec8:	685b      	ldreq	r3, [r3, #4]
 8005eca:	6063      	str	r3, [r4, #4]
 8005ecc:	bf04      	itt	eq
 8005ece:	1852      	addeq	r2, r2, r1
 8005ed0:	6022      	streq	r2, [r4, #0]
 8005ed2:	602c      	str	r4, [r5, #0]
 8005ed4:	e7ec      	b.n	8005eb0 <_free_r+0x28>
 8005ed6:	461a      	mov	r2, r3
 8005ed8:	685b      	ldr	r3, [r3, #4]
 8005eda:	b10b      	cbz	r3, 8005ee0 <_free_r+0x58>
 8005edc:	42a3      	cmp	r3, r4
 8005ede:	d9fa      	bls.n	8005ed6 <_free_r+0x4e>
 8005ee0:	6811      	ldr	r1, [r2, #0]
 8005ee2:	1855      	adds	r5, r2, r1
 8005ee4:	42a5      	cmp	r5, r4
 8005ee6:	d10b      	bne.n	8005f00 <_free_r+0x78>
 8005ee8:	6824      	ldr	r4, [r4, #0]
 8005eea:	4421      	add	r1, r4
 8005eec:	1854      	adds	r4, r2, r1
 8005eee:	42a3      	cmp	r3, r4
 8005ef0:	6011      	str	r1, [r2, #0]
 8005ef2:	d1dd      	bne.n	8005eb0 <_free_r+0x28>
 8005ef4:	681c      	ldr	r4, [r3, #0]
 8005ef6:	685b      	ldr	r3, [r3, #4]
 8005ef8:	6053      	str	r3, [r2, #4]
 8005efa:	4421      	add	r1, r4
 8005efc:	6011      	str	r1, [r2, #0]
 8005efe:	e7d7      	b.n	8005eb0 <_free_r+0x28>
 8005f00:	d902      	bls.n	8005f08 <_free_r+0x80>
 8005f02:	230c      	movs	r3, #12
 8005f04:	6003      	str	r3, [r0, #0]
 8005f06:	e7d3      	b.n	8005eb0 <_free_r+0x28>
 8005f08:	6825      	ldr	r5, [r4, #0]
 8005f0a:	1961      	adds	r1, r4, r5
 8005f0c:	428b      	cmp	r3, r1
 8005f0e:	bf04      	itt	eq
 8005f10:	6819      	ldreq	r1, [r3, #0]
 8005f12:	685b      	ldreq	r3, [r3, #4]
 8005f14:	6063      	str	r3, [r4, #4]
 8005f16:	bf04      	itt	eq
 8005f18:	1949      	addeq	r1, r1, r5
 8005f1a:	6021      	streq	r1, [r4, #0]
 8005f1c:	6054      	str	r4, [r2, #4]
 8005f1e:	e7c7      	b.n	8005eb0 <_free_r+0x28>
 8005f20:	b003      	add	sp, #12
 8005f22:	bd30      	pop	{r4, r5, pc}
 8005f24:	200007dc 	.word	0x200007dc

08005f28 <_malloc_r>:
 8005f28:	b5f8      	push	{r3, r4, r5, r6, r7, lr}
 8005f2a:	1ccd      	adds	r5, r1, #3
 8005f2c:	f025 0503 	bic.w	r5, r5, #3
 8005f30:	3508      	adds	r5, #8
 8005f32:	2d0c      	cmp	r5, #12
 8005f34:	bf38      	it	cc
 8005f36:	250c      	movcc	r5, #12
 8005f38:	2d00      	cmp	r5, #0
 8005f3a:	4606      	mov	r6, r0
 8005f3c:	db01      	blt.n	8005f42 <_malloc_r+0x1a>
 8005f3e:	42a9      	cmp	r1, r5
 8005f40:	d903      	bls.n	8005f4a <_malloc_r+0x22>
 8005f42:	230c      	movs	r3, #12
 8005f44:	6033      	str	r3, [r6, #0]
 8005f46:	2000      	movs	r0, #0
 8005f48:	bdf8      	pop	{r3, r4, r5, r6, r7, pc}
 8005f4a:	f000 f8a5 	bl	8006098 <__malloc_lock>
 8005f4e:	4921      	ldr	r1, [pc, #132]	; (8005fd4 <_malloc_r+0xac>)
 8005f50:	680a      	ldr	r2, [r1, #0]
 8005f52:	4614      	mov	r4, r2
 8005f54:	b99c      	cbnz	r4, 8005f7e <_malloc_r+0x56>
 8005f56:	4f20      	ldr	r7, [pc, #128]	; (8005fd8 <_malloc_r+0xb0>)
 8005f58:	683b      	ldr	r3, [r7, #0]
 8005f5a:	b923      	cbnz	r3, 8005f66 <_malloc_r+0x3e>
 8005f5c:	4621      	mov	r1, r4
 8005f5e:	4630      	mov	r0, r6
 8005f60:	f000 f83c 	bl	8005fdc <_sbrk_r>
 8005f64:	6038      	str	r0, [r7, #0]
 8005f66:	4629      	mov	r1, r5
 8005f68:	4630      	mov	r0, r6
 8005f6a:	f000 f837 	bl	8005fdc <_sbrk_r>
 8005f6e:	1c43      	adds	r3, r0, #1
 8005f70:	d123      	bne.n	8005fba <_malloc_r+0x92>
 8005f72:	230c      	movs	r3, #12
 8005f74:	6033      	str	r3, [r6, #0]
 8005f76:	4630      	mov	r0, r6
 8005f78:	f000 f894 	bl	80060a4 <__malloc_unlock>
 8005f7c:	e7e3      	b.n	8005f46 <_malloc_r+0x1e>
 8005f7e:	6823      	ldr	r3, [r4, #0]
 8005f80:	1b5b      	subs	r3, r3, r5
 8005f82:	d417      	bmi.n	8005fb4 <_malloc_r+0x8c>
 8005f84:	2b0b      	cmp	r3, #11
 8005f86:	d903      	bls.n	8005f90 <_malloc_r+0x68>
 8005f88:	6023      	str	r3, [r4, #0]
 8005f8a:	441c      	add	r4, r3
 8005f8c:	6025      	str	r5, [r4, #0]
 8005f8e:	e004      	b.n	8005f9a <_malloc_r+0x72>
 8005f90:	6863      	ldr	r3, [r4, #4]
 8005f92:	42a2      	cmp	r2, r4
 8005f94:	bf0c      	ite	eq
 8005f96:	600b      	streq	r3, [r1, #0]
 8005f98:	6053      	strne	r3, [r2, #4]
 8005f9a:	4630      	mov	r0, r6
 8005f9c:	f000 f882 	bl	80060a4 <__malloc_unlock>
 8005fa0:	f104 000b 	add.w	r0, r4, #11
 8005fa4:	1d23      	adds	r3, r4, #4
 8005fa6:	f020 0007 	bic.w	r0, r0, #7
 8005faa:	1ac2      	subs	r2, r0, r3
 8005fac:	d0cc      	beq.n	8005f48 <_malloc_r+0x20>
 8005fae:	1a1b      	subs	r3, r3, r0
 8005fb0:	50a3      	str	r3, [r4, r2]
 8005fb2:	e7c9      	b.n	8005f48 <_malloc_r+0x20>
 8005fb4:	4622      	mov	r2, r4
 8005fb6:	6864      	ldr	r4, [r4, #4]
 8005fb8:	e7cc      	b.n	8005f54 <_malloc_r+0x2c>
 8005fba:	1cc4      	adds	r4, r0, #3
 8005fbc:	f024 0403 	bic.w	r4, r4, #3
 8005fc0:	42a0      	cmp	r0, r4
 8005fc2:	d0e3      	beq.n	8005f8c <_malloc_r+0x64>
 8005fc4:	1a21      	subs	r1, r4, r0
 8005fc6:	4630      	mov	r0, r6
 8005fc8:	f000 f808 	bl	8005fdc <_sbrk_r>
 8005fcc:	3001      	adds	r0, #1
 8005fce:	d1dd      	bne.n	8005f8c <_malloc_r+0x64>
 8005fd0:	e7cf      	b.n	8005f72 <_malloc_r+0x4a>
 8005fd2:	bf00      	nop
 8005fd4:	200007dc 	.word	0x200007dc
 8005fd8:	200007e0 	.word	0x200007e0

08005fdc <_sbrk_r>:
 8005fdc:	b538      	push	{r3, r4, r5, lr}
 8005fde:	4d06      	ldr	r5, [pc, #24]	; (8005ff8 <_sbrk_r+0x1c>)
 8005fe0:	2300      	movs	r3, #0
 8005fe2:	4604      	mov	r4, r0
 8005fe4:	4608      	mov	r0, r1
 8005fe6:	602b      	str	r3, [r5, #0]
 8005fe8:	f7fb fbac 	bl	8001744 <_sbrk>
 8005fec:	1c43      	adds	r3, r0, #1
 8005fee:	d102      	bne.n	8005ff6 <_sbrk_r+0x1a>
 8005ff0:	682b      	ldr	r3, [r5, #0]
 8005ff2:	b103      	cbz	r3, 8005ff6 <_sbrk_r+0x1a>
 8005ff4:	6023      	str	r3, [r4, #0]
 8005ff6:	bd38      	pop	{r3, r4, r5, pc}
 8005ff8:	20003f64 	.word	0x20003f64

08005ffc <siprintf>:
 8005ffc:	b40e      	push	{r1, r2, r3}
 8005ffe:	b500      	push	{lr}
 8006000:	b09c      	sub	sp, #112	; 0x70
 8006002:	ab1d      	add	r3, sp, #116	; 0x74
 8006004:	9002      	str	r0, [sp, #8]
 8006006:	9006      	str	r0, [sp, #24]
 8006008:	f06f 4100 	mvn.w	r1, #2147483648	; 0x80000000
 800600c:	4809      	ldr	r0, [pc, #36]	; (8006034 <siprintf+0x38>)
 800600e:	9107      	str	r1, [sp, #28]
 8006010:	9104      	str	r1, [sp, #16]
 8006012:	4909      	ldr	r1, [pc, #36]	; (8006038 <siprintf+0x3c>)
 8006014:	f853 2b04 	ldr.w	r2, [r3], #4
 8006018:	9105      	str	r1, [sp, #20]
 800601a:	6800      	ldr	r0, [r0, #0]
 800601c:	9301      	str	r3, [sp, #4]
 800601e:	a902      	add	r1, sp, #8
 8006020:	f000 f8a2 	bl	8006168 <_svfiprintf_r>
 8006024:	9b02      	ldr	r3, [sp, #8]
 8006026:	2200      	movs	r2, #0
 8006028:	701a      	strb	r2, [r3, #0]
 800602a:	b01c      	add	sp, #112	; 0x70
 800602c:	f85d eb04 	ldr.w	lr, [sp], #4
 8006030:	b003      	add	sp, #12
 8006032:	4770      	bx	lr
 8006034:	2000002c 	.word	0x2000002c
 8006038:	ffff0208 	.word	0xffff0208

0800603c <siscanf>:
 800603c:	b40e      	push	{r1, r2, r3}
 800603e:	b510      	push	{r4, lr}
 8006040:	b09f      	sub	sp, #124	; 0x7c
 8006042:	ac21      	add	r4, sp, #132	; 0x84
 8006044:	f44f 7101 	mov.w	r1, #516	; 0x204
 8006048:	f854 2b04 	ldr.w	r2, [r4], #4
 800604c:	9201      	str	r2, [sp, #4]
 800604e:	f8ad 101c 	strh.w	r1, [sp, #28]
 8006052:	9004      	str	r0, [sp, #16]
 8006054:	9008      	str	r0, [sp, #32]
 8006056:	f7fa f8bb 	bl	80001d0 <strlen>
 800605a:	4b0c      	ldr	r3, [pc, #48]	; (800608c <siscanf+0x50>)
 800605c:	9005      	str	r0, [sp, #20]
 800605e:	9009      	str	r0, [sp, #36]	; 0x24
 8006060:	930d      	str	r3, [sp, #52]	; 0x34
 8006062:	480b      	ldr	r0, [pc, #44]	; (8006090 <siscanf+0x54>)
 8006064:	9a01      	ldr	r2, [sp, #4]
 8006066:	6800      	ldr	r0, [r0, #0]
 8006068:	9403      	str	r4, [sp, #12]
 800606a:	2300      	movs	r3, #0
 800606c:	9311      	str	r3, [sp, #68]	; 0x44
 800606e:	9316      	str	r3, [sp, #88]	; 0x58
 8006070:	f64f 73ff 	movw	r3, #65535	; 0xffff
 8006074:	f8ad 301e 	strh.w	r3, [sp, #30]
 8006078:	a904      	add	r1, sp, #16
 800607a:	4623      	mov	r3, r4
 800607c:	f000 f9ce 	bl	800641c <__ssvfiscanf_r>
 8006080:	b01f      	add	sp, #124	; 0x7c
 8006082:	e8bd 4010 	ldmia.w	sp!, {r4, lr}
 8006086:	b003      	add	sp, #12
 8006088:	4770      	bx	lr
 800608a:	bf00      	nop
 800608c:	08006095 	.word	0x08006095
 8006090:	2000002c 	.word	0x2000002c

08006094 <__seofread>:
 8006094:	2000      	movs	r0, #0
 8006096:	4770      	bx	lr

08006098 <__malloc_lock>:
 8006098:	4801      	ldr	r0, [pc, #4]	; (80060a0 <__malloc_lock+0x8>)
 800609a:	f000 bf8f 	b.w	8006fbc <__retarget_lock_acquire_recursive>
 800609e:	bf00      	nop
 80060a0:	20003f6c 	.word	0x20003f6c

080060a4 <__malloc_unlock>:
 80060a4:	4801      	ldr	r0, [pc, #4]	; (80060ac <__malloc_unlock+0x8>)
 80060a6:	f000 bf8a 	b.w	8006fbe <__retarget_lock_release_recursive>
 80060aa:	bf00      	nop
 80060ac:	20003f6c 	.word	0x20003f6c

080060b0 <__ssputs_r>:
 80060b0:	e92d 47f0 	stmdb	sp!, {r4, r5, r6, r7, r8, r9, sl, lr}
 80060b4:	688e      	ldr	r6, [r1, #8]
 80060b6:	429e      	cmp	r6, r3
 80060b8:	4682      	mov	sl, r0
 80060ba:	460c      	mov	r4, r1
 80060bc:	4690      	mov	r8, r2
 80060be:	461f      	mov	r7, r3
 80060c0:	d838      	bhi.n	8006134 <__ssputs_r+0x84>
 80060c2:	898a      	ldrh	r2, [r1, #12]
 80060c4:	f412 6f90 	tst.w	r2, #1152	; 0x480
 80060c8:	d032      	beq.n	8006130 <__ssputs_r+0x80>
 80060ca:	6825      	ldr	r5, [r4, #0]
 80060cc:	6909      	ldr	r1, [r1, #16]
 80060ce:	eba5 0901 	sub.w	r9, r5, r1
 80060d2:	6965      	ldr	r5, [r4, #20]
 80060d4:	eb05 0545 	add.w	r5, r5, r5, lsl #1
 80060d8:	eb05 75d5 	add.w	r5, r5, r5, lsr #31
 80060dc:	3301      	adds	r3, #1
 80060de:	444b      	add	r3, r9
 80060e0:	106d      	asrs	r5, r5, #1
 80060e2:	429d      	cmp	r5, r3
 80060e4:	bf38      	it	cc
 80060e6:	461d      	movcc	r5, r3
 80060e8:	0553      	lsls	r3, r2, #21
 80060ea:	d531      	bpl.n	8006150 <__ssputs_r+0xa0>
 80060ec:	4629      	mov	r1, r5
 80060ee:	f7ff ff1b 	bl	8005f28 <_malloc_r>
 80060f2:	4606      	mov	r6, r0
 80060f4:	b950      	cbnz	r0, 800610c <__ssputs_r+0x5c>
 80060f6:	230c      	movs	r3, #12
 80060f8:	f8ca 3000 	str.w	r3, [sl]
 80060fc:	89a3      	ldrh	r3, [r4, #12]
 80060fe:	f043 0340 	orr.w	r3, r3, #64	; 0x40
 8006102:	81a3      	strh	r3, [r4, #12]
 8006104:	f04f 30ff 	mov.w	r0, #4294967295
 8006108:	e8bd 87f0 	ldmia.w	sp!, {r4, r5, r6, r7, r8, r9, sl, pc}
 800610c:	6921      	ldr	r1, [r4, #16]
 800610e:	464a      	mov	r2, r9
 8006110:	f7ff fea4 	bl	8005e5c <memcpy>
 8006114:	89a3      	ldrh	r3, [r4, #12]
 8006116:	f423 6390 	bic.w	r3, r3, #1152	; 0x480
 800611a:	f043 0380 	orr.w	r3, r3, #128	; 0x80
 800611e:	81a3      	strh	r3, [r4, #12]
 8006120:	6126      	str	r6, [r4, #16]
 8006122:	6165      	str	r5, [r4, #20]
 8006124:	444e      	add	r6, r9
 8006126:	eba5 0509 	sub.w	r5, r5, r9
 800612a:	6026      	str	r6, [r4, #0]
 800612c:	60a5      	str	r5, [r4, #8]
 800612e:	463e      	mov	r6, r7
 8006130:	42be      	cmp	r6, r7
 8006132:	d900      	bls.n	8006136 <__ssputs_r+0x86>
 8006134:	463e      	mov	r6, r7
 8006136:	4632      	mov	r2, r6
 8006138:	6820      	ldr	r0, [r4, #0]
 800613a:	4641      	mov	r1, r8
 800613c:	f000 ff40 	bl	8006fc0 <memmove>
 8006140:	68a3      	ldr	r3, [r4, #8]
 8006142:	6822      	ldr	r2, [r4, #0]
 8006144:	1b9b      	subs	r3, r3, r6
 8006146:	4432      	add	r2, r6
 8006148:	60a3      	str	r3, [r4, #8]
 800614a:	6022      	str	r2, [r4, #0]
 800614c:	2000      	movs	r0, #0
 800614e:	e7db      	b.n	8006108 <__ssputs_r+0x58>
 8006150:	462a      	mov	r2, r5
 8006152:	f000 ff4f 	bl	8006ff4 <_realloc_r>
 8006156:	4606      	mov	r6, r0
 8006158:	2800      	cmp	r0, #0
 800615a:	d1e1      	bne.n	8006120 <__ssputs_r+0x70>
 800615c:	6921      	ldr	r1, [r4, #16]
 800615e:	4650      	mov	r0, sl
 8006160:	f7ff fe92 	bl	8005e88 <_free_r>
 8006164:	e7c7      	b.n	80060f6 <__ssputs_r+0x46>
	...

08006168 <_svfiprintf_r>:
 8006168:	e92d 4ff0 	stmdb	sp!, {r4, r5, r6, r7, r8, r9, sl, fp, lr}
 800616c:	4698      	mov	r8, r3
 800616e:	898b      	ldrh	r3, [r1, #12]
 8006170:	061b      	lsls	r3, r3, #24
 8006172:	b09d      	sub	sp, #116	; 0x74
 8006174:	4607      	mov	r7, r0
 8006176:	460d      	mov	r5, r1
 8006178:	4614      	mov	r4, r2
 800617a:	d50e      	bpl.n	800619a <_svfiprintf_r+0x32>
 800617c:	690b      	ldr	r3, [r1, #16]
 800617e:	b963      	cbnz	r3, 800619a <_svfiprintf_r+0x32>
 8006180:	2140      	movs	r1, #64	; 0x40
 8006182:	f7ff fed1 	bl	8005f28 <_malloc_r>
 8006186:	6028      	str	r0, [r5, #0]
 8006188:	6128      	str	r0, [r5, #16]
 800618a:	b920      	cbnz	r0, 8006196 <_svfiprintf_r+0x2e>
 800618c:	230c      	movs	r3, #12
 800618e:	603b      	str	r3, [r7, #0]
 8006190:	f04f 30ff 	mov.w	r0, #4294967295
 8006194:	e0d1      	b.n	800633a <_svfiprintf_r+0x1d2>
 8006196:	2340      	movs	r3, #64	; 0x40
 8006198:	616b      	str	r3, [r5, #20]
 800619a:	2300      	movs	r3, #0
 800619c:	9309      	str	r3, [sp, #36]	; 0x24
 800619e:	2320      	movs	r3, #32
 80061a0:	f88d 3029 	strb.w	r3, [sp, #41]	; 0x29
 80061a4:	f8cd 800c 	str.w	r8, [sp, #12]
 80061a8:	2330      	movs	r3, #48	; 0x30
 80061aa:	f8df 81a8 	ldr.w	r8, [pc, #424]	; 8006354 <_svfiprintf_r+0x1ec>
 80061ae:	f88d 302a 	strb.w	r3, [sp, #42]	; 0x2a
 80061b2:	f04f 0901 	mov.w	r9, #1
 80061b6:	4623      	mov	r3, r4
 80061b8:	469a      	mov	sl, r3
 80061ba:	f813 2b01 	ldrb.w	r2, [r3], #1
 80061be:	b10a      	cbz	r2, 80061c4 <_svfiprintf_r+0x5c>
 80061c0:	2a25      	cmp	r2, #37	; 0x25
 80061c2:	d1f9      	bne.n	80061b8 <_svfiprintf_r+0x50>
 80061c4:	ebba 0b04 	subs.w	fp, sl, r4
 80061c8:	d00b      	beq.n	80061e2 <_svfiprintf_r+0x7a>
 80061ca:	465b      	mov	r3, fp
 80061cc:	4622      	mov	r2, r4
 80061ce:	4629      	mov	r1, r5
 80061d0:	4638      	mov	r0, r7
 80061d2:	f7ff ff6d 	bl	80060b0 <__ssputs_r>
 80061d6:	3001      	adds	r0, #1
 80061d8:	f000 80aa 	beq.w	8006330 <_svfiprintf_r+0x1c8>
 80061dc:	9a09      	ldr	r2, [sp, #36]	; 0x24
 80061de:	445a      	add	r2, fp
 80061e0:	9209      	str	r2, [sp, #36]	; 0x24
 80061e2:	f89a 3000 	ldrb.w	r3, [sl]
 80061e6:	2b00      	cmp	r3, #0
 80061e8:	f000 80a2 	beq.w	8006330 <_svfiprintf_r+0x1c8>
 80061ec:	2300      	movs	r3, #0
 80061ee:	f04f 32ff 	mov.w	r2, #4294967295
 80061f2:	e9cd 2305 	strd	r2, r3, [sp, #20]
 80061f6:	f10a 0a01 	add.w	sl, sl, #1
 80061fa:	9304      	str	r3, [sp, #16]
 80061fc:	9307      	str	r3, [sp, #28]
 80061fe:	f88d 3053 	strb.w	r3, [sp, #83]	; 0x53
 8006202:	931a      	str	r3, [sp, #104]	; 0x68
 8006204:	4654      	mov	r4, sl
 8006206:	2205      	movs	r2, #5
 8006208:	f814 1b01 	ldrb.w	r1, [r4], #1
 800620c:	4851      	ldr	r0, [pc, #324]	; (8006354 <_svfiprintf_r+0x1ec>)
 800620e:	f7f9 ffe7 	bl	80001e0 <memchr>
 8006212:	9a04      	ldr	r2, [sp, #16]
 8006214:	b9d8      	cbnz	r0, 800624e <_svfiprintf_r+0xe6>
 8006216:	06d0      	lsls	r0, r2, #27
 8006218:	bf44      	itt	mi
 800621a:	2320      	movmi	r3, #32
 800621c:	f88d 3053 	strbmi.w	r3, [sp, #83]	; 0x53
 8006220:	0711      	lsls	r1, r2, #28
 8006222:	bf44      	itt	mi
 8006224:	232b      	movmi	r3, #43	; 0x2b
 8006226:	f88d 3053 	strbmi.w	r3, [sp, #83]	; 0x53
 800622a:	f89a 3000 	ldrb.w	r3, [sl]
 800622e:	2b2a      	cmp	r3, #42	; 0x2a
 8006230:	d015      	beq.n	800625e <_svfiprintf_r+0xf6>
 8006232:	9a07      	ldr	r2, [sp, #28]
 8006234:	4654      	mov	r4, sl
 8006236:	2000      	movs	r0, #0
 8006238:	f04f 0c0a 	mov.w	ip, #10
 800623c:	4621      	mov	r1, r4
 800623e:	f811 3b01 	ldrb.w	r3, [r1], #1
 8006242:	3b30      	subs	r3, #48	; 0x30
 8006244:	2b09      	cmp	r3, #9
 8006246:	d94e      	bls.n	80062e6 <_svfiprintf_r+0x17e>
 8006248:	b1b0      	cbz	r0, 8006278 <_svfiprintf_r+0x110>
 800624a:	9207      	str	r2, [sp, #28]
 800624c:	e014      	b.n	8006278 <_svfiprintf_r+0x110>
 800624e:	eba0 0308 	sub.w	r3, r0, r8
 8006252:	fa09 f303 	lsl.w	r3, r9, r3
 8006256:	4313      	orrs	r3, r2
 8006258:	9304      	str	r3, [sp, #16]
 800625a:	46a2      	mov	sl, r4
 800625c:	e7d2      	b.n	8006204 <_svfiprintf_r+0x9c>
 800625e:	9b03      	ldr	r3, [sp, #12]
 8006260:	1d19      	adds	r1, r3, #4
 8006262:	681b      	ldr	r3, [r3, #0]
 8006264:	9103      	str	r1, [sp, #12]
 8006266:	2b00      	cmp	r3, #0
 8006268:	bfbb      	ittet	lt
 800626a:	425b      	neglt	r3, r3
 800626c:	f042 0202 	orrlt.w	r2, r2, #2
 8006270:	9307      	strge	r3, [sp, #28]
 8006272:	9307      	strlt	r3, [sp, #28]
 8006274:	bfb8      	it	lt
 8006276:	9204      	strlt	r2, [sp, #16]
 8006278:	7823      	ldrb	r3, [r4, #0]
 800627a:	2b2e      	cmp	r3, #46	; 0x2e
 800627c:	d10c      	bne.n	8006298 <_svfiprintf_r+0x130>
 800627e:	7863      	ldrb	r3, [r4, #1]
 8006280:	2b2a      	cmp	r3, #42	; 0x2a
 8006282:	d135      	bne.n	80062f0 <_svfiprintf_r+0x188>
 8006284:	9b03      	ldr	r3, [sp, #12]
 8006286:	1d1a      	adds	r2, r3, #4
 8006288:	681b      	ldr	r3, [r3, #0]
 800628a:	9203      	str	r2, [sp, #12]
 800628c:	2b00      	cmp	r3, #0
 800628e:	bfb8      	it	lt
 8006290:	f04f 33ff 	movlt.w	r3, #4294967295
 8006294:	3402      	adds	r4, #2
 8006296:	9305      	str	r3, [sp, #20]
 8006298:	f8df a0c8 	ldr.w	sl, [pc, #200]	; 8006364 <_svfiprintf_r+0x1fc>
 800629c:	7821      	ldrb	r1, [r4, #0]
 800629e:	2203      	movs	r2, #3
 80062a0:	4650      	mov	r0, sl
 80062a2:	f7f9 ff9d 	bl	80001e0 <memchr>
 80062a6:	b140      	cbz	r0, 80062ba <_svfiprintf_r+0x152>
 80062a8:	2340      	movs	r3, #64	; 0x40
 80062aa:	eba0 000a 	sub.w	r0, r0, sl
 80062ae:	fa03 f000 	lsl.w	r0, r3, r0
 80062b2:	9b04      	ldr	r3, [sp, #16]
 80062b4:	4303      	orrs	r3, r0
 80062b6:	3401      	adds	r4, #1
 80062b8:	9304      	str	r3, [sp, #16]
 80062ba:	f814 1b01 	ldrb.w	r1, [r4], #1
 80062be:	4826      	ldr	r0, [pc, #152]	; (8006358 <_svfiprintf_r+0x1f0>)
 80062c0:	f88d 1028 	strb.w	r1, [sp, #40]	; 0x28
 80062c4:	2206      	movs	r2, #6
 80062c6:	f7f9 ff8b 	bl	80001e0 <memchr>
 80062ca:	2800      	cmp	r0, #0
 80062cc:	d038      	beq.n	8006340 <_svfiprintf_r+0x1d8>
 80062ce:	4b23      	ldr	r3, [pc, #140]	; (800635c <_svfiprintf_r+0x1f4>)
 80062d0:	bb1b      	cbnz	r3, 800631a <_svfiprintf_r+0x1b2>
 80062d2:	9b03      	ldr	r3, [sp, #12]
 80062d4:	3307      	adds	r3, #7
 80062d6:	f023 0307 	bic.w	r3, r3, #7
 80062da:	3308      	adds	r3, #8
 80062dc:	9303      	str	r3, [sp, #12]
 80062de:	9b09      	ldr	r3, [sp, #36]	; 0x24
 80062e0:	4433      	add	r3, r6
 80062e2:	9309      	str	r3, [sp, #36]	; 0x24
 80062e4:	e767      	b.n	80061b6 <_svfiprintf_r+0x4e>
 80062e6:	fb0c 3202 	mla	r2, ip, r2, r3
 80062ea:	460c      	mov	r4, r1
 80062ec:	2001      	movs	r0, #1
 80062ee:	e7a5      	b.n	800623c <_svfiprintf_r+0xd4>
 80062f0:	2300      	movs	r3, #0
 80062f2:	3401      	adds	r4, #1
 80062f4:	9305      	str	r3, [sp, #20]
 80062f6:	4619      	mov	r1, r3
 80062f8:	f04f 0c0a 	mov.w	ip, #10
 80062fc:	4620      	mov	r0, r4
 80062fe:	f810 2b01 	ldrb.w	r2, [r0], #1
 8006302:	3a30      	subs	r2, #48	; 0x30
 8006304:	2a09      	cmp	r2, #9
 8006306:	d903      	bls.n	8006310 <_svfiprintf_r+0x1a8>
 8006308:	2b00      	cmp	r3, #0
 800630a:	d0c5      	beq.n	8006298 <_svfiprintf_r+0x130>
 800630c:	9105      	str	r1, [sp, #20]
 800630e:	e7c3      	b.n	8006298 <_svfiprintf_r+0x130>
 8006310:	fb0c 2101 	mla	r1, ip, r1, r2
 8006314:	4604      	mov	r4, r0
 8006316:	2301      	movs	r3, #1
 8006318:	e7f0      	b.n	80062fc <_svfiprintf_r+0x194>
 800631a:	ab03      	add	r3, sp, #12
 800631c:	9300      	str	r3, [sp, #0]
 800631e:	462a      	mov	r2, r5
 8006320:	4b0f      	ldr	r3, [pc, #60]	; (8006360 <_svfiprintf_r+0x1f8>)
 8006322:	a904      	add	r1, sp, #16
 8006324:	4638      	mov	r0, r7
 8006326:	f3af 8000 	nop.w
 800632a:	1c42      	adds	r2, r0, #1
 800632c:	4606      	mov	r6, r0
 800632e:	d1d6      	bne.n	80062de <_svfiprintf_r+0x176>
 8006330:	89ab      	ldrh	r3, [r5, #12]
 8006332:	065b      	lsls	r3, r3, #25
 8006334:	f53f af2c 	bmi.w	8006190 <_svfiprintf_r+0x28>
 8006338:	9809      	ldr	r0, [sp, #36]	; 0x24
 800633a:	b01d      	add	sp, #116	; 0x74
 800633c:	e8bd 8ff0 	ldmia.w	sp!, {r4, r5, r6, r7, r8, r9, sl, fp, pc}
 8006340:	ab03      	add	r3, sp, #12
 8006342:	9300      	str	r3, [sp, #0]
 8006344:	462a      	mov	r2, r5
 8006346:	4b06      	ldr	r3, [pc, #24]	; (8006360 <_svfiprintf_r+0x1f8>)
 8006348:	a904      	add	r1, sp, #16
 800634a:	4638      	mov	r0, r7
 800634c:	f000 fa4c 	bl	80067e8 <_printf_i>
 8006350:	e7eb      	b.n	800632a <_svfiprintf_r+0x1c2>
 8006352:	bf00      	nop
 8006354:	08007c97 	.word	0x08007c97
 8006358:	08007ca1 	.word	0x08007ca1
 800635c:	00000000 	.word	0x00000000
 8006360:	080060b1 	.word	0x080060b1
 8006364:	08007c9d 	.word	0x08007c9d

08006368 <_sungetc_r>:
 8006368:	b538      	push	{r3, r4, r5, lr}
 800636a:	1c4b      	adds	r3, r1, #1
 800636c:	4614      	mov	r4, r2
 800636e:	d103      	bne.n	8006378 <_sungetc_r+0x10>
 8006370:	f04f 35ff 	mov.w	r5, #4294967295
 8006374:	4628      	mov	r0, r5
 8006376:	bd38      	pop	{r3, r4, r5, pc}
 8006378:	8993      	ldrh	r3, [r2, #12]
 800637a:	f023 0320 	bic.w	r3, r3, #32
 800637e:	8193      	strh	r3, [r2, #12]
 8006380:	6b63      	ldr	r3, [r4, #52]	; 0x34
 8006382:	6852      	ldr	r2, [r2, #4]
 8006384:	b2cd      	uxtb	r5, r1
 8006386:	b18b      	cbz	r3, 80063ac <_sungetc_r+0x44>
 8006388:	6ba3      	ldr	r3, [r4, #56]	; 0x38
 800638a:	4293      	cmp	r3, r2
 800638c:	dd08      	ble.n	80063a0 <_sungetc_r+0x38>
 800638e:	6823      	ldr	r3, [r4, #0]
 8006390:	1e5a      	subs	r2, r3, #1
 8006392:	6022      	str	r2, [r4, #0]
 8006394:	f803 5c01 	strb.w	r5, [r3, #-1]
 8006398:	6863      	ldr	r3, [r4, #4]
 800639a:	3301      	adds	r3, #1
 800639c:	6063      	str	r3, [r4, #4]
 800639e:	e7e9      	b.n	8006374 <_sungetc_r+0xc>
 80063a0:	4621      	mov	r1, r4
 80063a2:	f000 fdd1 	bl	8006f48 <__submore>
 80063a6:	2800      	cmp	r0, #0
 80063a8:	d0f1      	beq.n	800638e <_sungetc_r+0x26>
 80063aa:	e7e1      	b.n	8006370 <_sungetc_r+0x8>
 80063ac:	6921      	ldr	r1, [r4, #16]
 80063ae:	6823      	ldr	r3, [r4, #0]
 80063b0:	b151      	cbz	r1, 80063c8 <_sungetc_r+0x60>
 80063b2:	4299      	cmp	r1, r3
 80063b4:	d208      	bcs.n	80063c8 <_sungetc_r+0x60>
 80063b6:	f813 1c01 	ldrb.w	r1, [r3, #-1]
 80063ba:	42a9      	cmp	r1, r5
 80063bc:	d104      	bne.n	80063c8 <_sungetc_r+0x60>
 80063be:	3b01      	subs	r3, #1
 80063c0:	3201      	adds	r2, #1
 80063c2:	6023      	str	r3, [r4, #0]
 80063c4:	6062      	str	r2, [r4, #4]
 80063c6:	e7d5      	b.n	8006374 <_sungetc_r+0xc>
 80063c8:	e9c4 320f 	strd	r3, r2, [r4, #60]	; 0x3c
 80063cc:	f104 0344 	add.w	r3, r4, #68	; 0x44
 80063d0:	6363      	str	r3, [r4, #52]	; 0x34
 80063d2:	2303      	movs	r3, #3
 80063d4:	63a3      	str	r3, [r4, #56]	; 0x38
 80063d6:	4623      	mov	r3, r4
 80063d8:	f803 5f46 	strb.w	r5, [r3, #70]!
 80063dc:	6023      	str	r3, [r4, #0]
 80063de:	2301      	movs	r3, #1
 80063e0:	e7dc      	b.n	800639c <_sungetc_r+0x34>

080063e2 <__ssrefill_r>:
 80063e2:	b510      	push	{r4, lr}
 80063e4:	460c      	mov	r4, r1
 80063e6:	6b49      	ldr	r1, [r1, #52]	; 0x34
 80063e8:	b169      	cbz	r1, 8006406 <__ssrefill_r+0x24>
 80063ea:	f104 0344 	add.w	r3, r4, #68	; 0x44
 80063ee:	4299      	cmp	r1, r3
 80063f0:	d001      	beq.n	80063f6 <__ssrefill_r+0x14>
 80063f2:	f7ff fd49 	bl	8005e88 <_free_r>
 80063f6:	6c23      	ldr	r3, [r4, #64]	; 0x40
 80063f8:	6063      	str	r3, [r4, #4]
 80063fa:	2000      	movs	r0, #0
 80063fc:	6360      	str	r0, [r4, #52]	; 0x34
 80063fe:	b113      	cbz	r3, 8006406 <__ssrefill_r+0x24>
 8006400:	6be3      	ldr	r3, [r4, #60]	; 0x3c
 8006402:	6023      	str	r3, [r4, #0]
 8006404:	bd10      	pop	{r4, pc}
 8006406:	6923      	ldr	r3, [r4, #16]
 8006408:	6023      	str	r3, [r4, #0]
 800640a:	2300      	movs	r3, #0
 800640c:	6063      	str	r3, [r4, #4]
 800640e:	89a3      	ldrh	r3, [r4, #12]
 8006410:	f043 0320 	orr.w	r3, r3, #32
 8006414:	81a3      	strh	r3, [r4, #12]
 8006416:	f04f 30ff 	mov.w	r0, #4294967295
 800641a:	e7f3      	b.n	8006404 <__ssrefill_r+0x22>

0800641c <__ssvfiscanf_r>:
 800641c:	e92d 4ff0 	stmdb	sp!, {r4, r5, r6, r7, r8, r9, sl, fp, lr}
 8006420:	460c      	mov	r4, r1
 8006422:	f5ad 7d23 	sub.w	sp, sp, #652	; 0x28c
 8006426:	2100      	movs	r1, #0
 8006428:	e9cd 1144 	strd	r1, r1, [sp, #272]	; 0x110
 800642c:	49b2      	ldr	r1, [pc, #712]	; (80066f8 <__ssvfiscanf_r+0x2dc>)
 800642e:	91a0      	str	r1, [sp, #640]	; 0x280
 8006430:	f10d 0804 	add.w	r8, sp, #4
 8006434:	49b1      	ldr	r1, [pc, #708]	; (80066fc <__ssvfiscanf_r+0x2e0>)
 8006436:	4fb2      	ldr	r7, [pc, #712]	; (8006700 <__ssvfiscanf_r+0x2e4>)
 8006438:	f8df 92c8 	ldr.w	r9, [pc, #712]	; 8006704 <__ssvfiscanf_r+0x2e8>
 800643c:	f8cd 8118 	str.w	r8, [sp, #280]	; 0x118
 8006440:	4606      	mov	r6, r0
 8006442:	91a1      	str	r1, [sp, #644]	; 0x284
 8006444:	9300      	str	r3, [sp, #0]
 8006446:	f892 a000 	ldrb.w	sl, [r2]
 800644a:	f1ba 0f00 	cmp.w	sl, #0
 800644e:	f000 8151 	beq.w	80066f4 <__ssvfiscanf_r+0x2d8>
 8006452:	f81a 3007 	ldrb.w	r3, [sl, r7]
 8006456:	f013 0308 	ands.w	r3, r3, #8
 800645a:	f102 0501 	add.w	r5, r2, #1
 800645e:	d019      	beq.n	8006494 <__ssvfiscanf_r+0x78>
 8006460:	6863      	ldr	r3, [r4, #4]
 8006462:	2b00      	cmp	r3, #0
 8006464:	dd0f      	ble.n	8006486 <__ssvfiscanf_r+0x6a>
 8006466:	6823      	ldr	r3, [r4, #0]
 8006468:	781a      	ldrb	r2, [r3, #0]
 800646a:	5cba      	ldrb	r2, [r7, r2]
 800646c:	0712      	lsls	r2, r2, #28
 800646e:	d401      	bmi.n	8006474 <__ssvfiscanf_r+0x58>
 8006470:	462a      	mov	r2, r5
 8006472:	e7e8      	b.n	8006446 <__ssvfiscanf_r+0x2a>
 8006474:	9a45      	ldr	r2, [sp, #276]	; 0x114
 8006476:	3201      	adds	r2, #1
 8006478:	9245      	str	r2, [sp, #276]	; 0x114
 800647a:	6862      	ldr	r2, [r4, #4]
 800647c:	3301      	adds	r3, #1
 800647e:	3a01      	subs	r2, #1
 8006480:	6062      	str	r2, [r4, #4]
 8006482:	6023      	str	r3, [r4, #0]
 8006484:	e7ec      	b.n	8006460 <__ssvfiscanf_r+0x44>
 8006486:	9ba1      	ldr	r3, [sp, #644]	; 0x284
 8006488:	4621      	mov	r1, r4
 800648a:	4630      	mov	r0, r6
 800648c:	4798      	blx	r3
 800648e:	2800      	cmp	r0, #0
 8006490:	d0e9      	beq.n	8006466 <__ssvfiscanf_r+0x4a>
 8006492:	e7ed      	b.n	8006470 <__ssvfiscanf_r+0x54>
 8006494:	f1ba 0f25 	cmp.w	sl, #37	; 0x25
 8006498:	f040 8083 	bne.w	80065a2 <__ssvfiscanf_r+0x186>
 800649c:	9341      	str	r3, [sp, #260]	; 0x104
 800649e:	9343      	str	r3, [sp, #268]	; 0x10c
 80064a0:	7853      	ldrb	r3, [r2, #1]
 80064a2:	2b2a      	cmp	r3, #42	; 0x2a
 80064a4:	bf02      	ittt	eq
 80064a6:	2310      	moveq	r3, #16
 80064a8:	1c95      	addeq	r5, r2, #2
 80064aa:	9341      	streq	r3, [sp, #260]	; 0x104
 80064ac:	220a      	movs	r2, #10
 80064ae:	46ab      	mov	fp, r5
 80064b0:	f81b 1b01 	ldrb.w	r1, [fp], #1
 80064b4:	f1a1 0330 	sub.w	r3, r1, #48	; 0x30
 80064b8:	2b09      	cmp	r3, #9
 80064ba:	d91d      	bls.n	80064f8 <__ssvfiscanf_r+0xdc>
 80064bc:	4891      	ldr	r0, [pc, #580]	; (8006704 <__ssvfiscanf_r+0x2e8>)
 80064be:	2203      	movs	r2, #3
 80064c0:	f7f9 fe8e 	bl	80001e0 <memchr>
 80064c4:	b140      	cbz	r0, 80064d8 <__ssvfiscanf_r+0xbc>
 80064c6:	2301      	movs	r3, #1
 80064c8:	eba0 0009 	sub.w	r0, r0, r9
 80064cc:	fa03 f000 	lsl.w	r0, r3, r0
 80064d0:	9b41      	ldr	r3, [sp, #260]	; 0x104
 80064d2:	4318      	orrs	r0, r3
 80064d4:	9041      	str	r0, [sp, #260]	; 0x104
 80064d6:	465d      	mov	r5, fp
 80064d8:	f815 3b01 	ldrb.w	r3, [r5], #1
 80064dc:	2b78      	cmp	r3, #120	; 0x78
 80064de:	d806      	bhi.n	80064ee <__ssvfiscanf_r+0xd2>
 80064e0:	2b57      	cmp	r3, #87	; 0x57
 80064e2:	d810      	bhi.n	8006506 <__ssvfiscanf_r+0xea>
 80064e4:	2b25      	cmp	r3, #37	; 0x25
 80064e6:	d05c      	beq.n	80065a2 <__ssvfiscanf_r+0x186>
 80064e8:	d856      	bhi.n	8006598 <__ssvfiscanf_r+0x17c>
 80064ea:	2b00      	cmp	r3, #0
 80064ec:	d074      	beq.n	80065d8 <__ssvfiscanf_r+0x1bc>
 80064ee:	2303      	movs	r3, #3
 80064f0:	9347      	str	r3, [sp, #284]	; 0x11c
 80064f2:	230a      	movs	r3, #10
 80064f4:	9342      	str	r3, [sp, #264]	; 0x108
 80064f6:	e081      	b.n	80065fc <__ssvfiscanf_r+0x1e0>
 80064f8:	9b43      	ldr	r3, [sp, #268]	; 0x10c
 80064fa:	fb02 1303 	mla	r3, r2, r3, r1
 80064fe:	3b30      	subs	r3, #48	; 0x30
 8006500:	9343      	str	r3, [sp, #268]	; 0x10c
 8006502:	465d      	mov	r5, fp
 8006504:	e7d3      	b.n	80064ae <__ssvfiscanf_r+0x92>
 8006506:	f1a3 0258 	sub.w	r2, r3, #88	; 0x58
 800650a:	2a20      	cmp	r2, #32
 800650c:	d8ef      	bhi.n	80064ee <__ssvfiscanf_r+0xd2>
 800650e:	a101      	add	r1, pc, #4	; (adr r1, 8006514 <__ssvfiscanf_r+0xf8>)
 8006510:	f851 f022 	ldr.w	pc, [r1, r2, lsl #2]
 8006514:	080065e7 	.word	0x080065e7
 8006518:	080064ef 	.word	0x080064ef
 800651c:	080064ef 	.word	0x080064ef
 8006520:	08006645 	.word	0x08006645
 8006524:	080064ef 	.word	0x080064ef
 8006528:	080064ef 	.word	0x080064ef
 800652c:	080064ef 	.word	0x080064ef
 8006530:	080064ef 	.word	0x080064ef
 8006534:	080064ef 	.word	0x080064ef
 8006538:	080064ef 	.word	0x080064ef
 800653c:	080064ef 	.word	0x080064ef
 8006540:	0800665b 	.word	0x0800665b
 8006544:	08006631 	.word	0x08006631
 8006548:	0800659f 	.word	0x0800659f
 800654c:	0800659f 	.word	0x0800659f
 8006550:	0800659f 	.word	0x0800659f
 8006554:	080064ef 	.word	0x080064ef
 8006558:	08006635 	.word	0x08006635
 800655c:	080064ef 	.word	0x080064ef
 8006560:	080064ef 	.word	0x080064ef
 8006564:	080064ef 	.word	0x080064ef
 8006568:	080064ef 	.word	0x080064ef
 800656c:	0800666b 	.word	0x0800666b
 8006570:	0800663d 	.word	0x0800663d
 8006574:	080065df 	.word	0x080065df
 8006578:	080064ef 	.word	0x080064ef
 800657c:	080064ef 	.word	0x080064ef
 8006580:	08006667 	.word	0x08006667
 8006584:	080064ef 	.word	0x080064ef
 8006588:	08006631 	.word	0x08006631
 800658c:	080064ef 	.word	0x080064ef
 8006590:	080064ef 	.word	0x080064ef
 8006594:	080065e7 	.word	0x080065e7
 8006598:	3b45      	subs	r3, #69	; 0x45
 800659a:	2b02      	cmp	r3, #2
 800659c:	d8a7      	bhi.n	80064ee <__ssvfiscanf_r+0xd2>
 800659e:	2305      	movs	r3, #5
 80065a0:	e02b      	b.n	80065fa <__ssvfiscanf_r+0x1de>
 80065a2:	6863      	ldr	r3, [r4, #4]
 80065a4:	2b00      	cmp	r3, #0
 80065a6:	dd0d      	ble.n	80065c4 <__ssvfiscanf_r+0x1a8>
 80065a8:	6823      	ldr	r3, [r4, #0]
 80065aa:	781a      	ldrb	r2, [r3, #0]
 80065ac:	4552      	cmp	r2, sl
 80065ae:	f040 80a1 	bne.w	80066f4 <__ssvfiscanf_r+0x2d8>
 80065b2:	3301      	adds	r3, #1
 80065b4:	6862      	ldr	r2, [r4, #4]
 80065b6:	6023      	str	r3, [r4, #0]
 80065b8:	9b45      	ldr	r3, [sp, #276]	; 0x114
 80065ba:	3a01      	subs	r2, #1
 80065bc:	3301      	adds	r3, #1
 80065be:	6062      	str	r2, [r4, #4]
 80065c0:	9345      	str	r3, [sp, #276]	; 0x114
 80065c2:	e755      	b.n	8006470 <__ssvfiscanf_r+0x54>
 80065c4:	9ba1      	ldr	r3, [sp, #644]	; 0x284
 80065c6:	4621      	mov	r1, r4
 80065c8:	4630      	mov	r0, r6
 80065ca:	4798      	blx	r3
 80065cc:	2800      	cmp	r0, #0
 80065ce:	d0eb      	beq.n	80065a8 <__ssvfiscanf_r+0x18c>
 80065d0:	9844      	ldr	r0, [sp, #272]	; 0x110
 80065d2:	2800      	cmp	r0, #0
 80065d4:	f040 8084 	bne.w	80066e0 <__ssvfiscanf_r+0x2c4>
 80065d8:	f04f 30ff 	mov.w	r0, #4294967295
 80065dc:	e086      	b.n	80066ec <__ssvfiscanf_r+0x2d0>
 80065de:	9a41      	ldr	r2, [sp, #260]	; 0x104
 80065e0:	f042 0220 	orr.w	r2, r2, #32
 80065e4:	9241      	str	r2, [sp, #260]	; 0x104
 80065e6:	9a41      	ldr	r2, [sp, #260]	; 0x104
 80065e8:	f442 7200 	orr.w	r2, r2, #512	; 0x200
 80065ec:	9241      	str	r2, [sp, #260]	; 0x104
 80065ee:	2210      	movs	r2, #16
 80065f0:	2b6f      	cmp	r3, #111	; 0x6f
 80065f2:	9242      	str	r2, [sp, #264]	; 0x108
 80065f4:	bf34      	ite	cc
 80065f6:	2303      	movcc	r3, #3
 80065f8:	2304      	movcs	r3, #4
 80065fa:	9347      	str	r3, [sp, #284]	; 0x11c
 80065fc:	6863      	ldr	r3, [r4, #4]
 80065fe:	2b00      	cmp	r3, #0
 8006600:	dd41      	ble.n	8006686 <__ssvfiscanf_r+0x26a>
 8006602:	9b41      	ldr	r3, [sp, #260]	; 0x104
 8006604:	0659      	lsls	r1, r3, #25
 8006606:	d404      	bmi.n	8006612 <__ssvfiscanf_r+0x1f6>
 8006608:	6823      	ldr	r3, [r4, #0]
 800660a:	781a      	ldrb	r2, [r3, #0]
 800660c:	5cba      	ldrb	r2, [r7, r2]
 800660e:	0712      	lsls	r2, r2, #28
 8006610:	d440      	bmi.n	8006694 <__ssvfiscanf_r+0x278>
 8006612:	9b47      	ldr	r3, [sp, #284]	; 0x11c
 8006614:	2b02      	cmp	r3, #2
 8006616:	dc4f      	bgt.n	80066b8 <__ssvfiscanf_r+0x29c>
 8006618:	466b      	mov	r3, sp
 800661a:	4622      	mov	r2, r4
 800661c:	a941      	add	r1, sp, #260	; 0x104
 800661e:	4630      	mov	r0, r6
 8006620:	f000 fa08 	bl	8006a34 <_scanf_chars>
 8006624:	2801      	cmp	r0, #1
 8006626:	d065      	beq.n	80066f4 <__ssvfiscanf_r+0x2d8>
 8006628:	2802      	cmp	r0, #2
 800662a:	f47f af21 	bne.w	8006470 <__ssvfiscanf_r+0x54>
 800662e:	e7cf      	b.n	80065d0 <__ssvfiscanf_r+0x1b4>
 8006630:	220a      	movs	r2, #10
 8006632:	e7dd      	b.n	80065f0 <__ssvfiscanf_r+0x1d4>
 8006634:	2300      	movs	r3, #0
 8006636:	9342      	str	r3, [sp, #264]	; 0x108
 8006638:	2303      	movs	r3, #3
 800663a:	e7de      	b.n	80065fa <__ssvfiscanf_r+0x1de>
 800663c:	2308      	movs	r3, #8
 800663e:	9342      	str	r3, [sp, #264]	; 0x108
 8006640:	2304      	movs	r3, #4
 8006642:	e7da      	b.n	80065fa <__ssvfiscanf_r+0x1de>
 8006644:	4629      	mov	r1, r5
 8006646:	4640      	mov	r0, r8
 8006648:	f000 fb40 	bl	8006ccc <__sccl>
 800664c:	9b41      	ldr	r3, [sp, #260]	; 0x104
 800664e:	f043 0340 	orr.w	r3, r3, #64	; 0x40
 8006652:	9341      	str	r3, [sp, #260]	; 0x104
 8006654:	4605      	mov	r5, r0
 8006656:	2301      	movs	r3, #1
 8006658:	e7cf      	b.n	80065fa <__ssvfiscanf_r+0x1de>
 800665a:	9b41      	ldr	r3, [sp, #260]	; 0x104
 800665c:	f043 0340 	orr.w	r3, r3, #64	; 0x40
 8006660:	9341      	str	r3, [sp, #260]	; 0x104
 8006662:	2300      	movs	r3, #0
 8006664:	e7c9      	b.n	80065fa <__ssvfiscanf_r+0x1de>
 8006666:	2302      	movs	r3, #2
 8006668:	e7c7      	b.n	80065fa <__ssvfiscanf_r+0x1de>
 800666a:	9841      	ldr	r0, [sp, #260]	; 0x104
 800666c:	06c3      	lsls	r3, r0, #27
 800666e:	f53f aeff 	bmi.w	8006470 <__ssvfiscanf_r+0x54>
 8006672:	9b00      	ldr	r3, [sp, #0]
 8006674:	9a45      	ldr	r2, [sp, #276]	; 0x114
 8006676:	1d19      	adds	r1, r3, #4
 8006678:	9100      	str	r1, [sp, #0]
 800667a:	681b      	ldr	r3, [r3, #0]
 800667c:	07c0      	lsls	r0, r0, #31
 800667e:	bf4c      	ite	mi
 8006680:	801a      	strhmi	r2, [r3, #0]
 8006682:	601a      	strpl	r2, [r3, #0]
 8006684:	e6f4      	b.n	8006470 <__ssvfiscanf_r+0x54>
 8006686:	9ba1      	ldr	r3, [sp, #644]	; 0x284
 8006688:	4621      	mov	r1, r4
 800668a:	4630      	mov	r0, r6
 800668c:	4798      	blx	r3
 800668e:	2800      	cmp	r0, #0
 8006690:	d0b7      	beq.n	8006602 <__ssvfiscanf_r+0x1e6>
 8006692:	e79d      	b.n	80065d0 <__ssvfiscanf_r+0x1b4>
 8006694:	9a45      	ldr	r2, [sp, #276]	; 0x114
 8006696:	3201      	adds	r2, #1
 8006698:	9245      	str	r2, [sp, #276]	; 0x114
 800669a:	6862      	ldr	r2, [r4, #4]
 800669c:	3a01      	subs	r2, #1
 800669e:	2a00      	cmp	r2, #0
 80066a0:	6062      	str	r2, [r4, #4]
 80066a2:	dd02      	ble.n	80066aa <__ssvfiscanf_r+0x28e>
 80066a4:	3301      	adds	r3, #1
 80066a6:	6023      	str	r3, [r4, #0]
 80066a8:	e7ae      	b.n	8006608 <__ssvfiscanf_r+0x1ec>
 80066aa:	9ba1      	ldr	r3, [sp, #644]	; 0x284
 80066ac:	4621      	mov	r1, r4
 80066ae:	4630      	mov	r0, r6
 80066b0:	4798      	blx	r3
 80066b2:	2800      	cmp	r0, #0
 80066b4:	d0a8      	beq.n	8006608 <__ssvfiscanf_r+0x1ec>
 80066b6:	e78b      	b.n	80065d0 <__ssvfiscanf_r+0x1b4>
 80066b8:	2b04      	cmp	r3, #4
 80066ba:	dc06      	bgt.n	80066ca <__ssvfiscanf_r+0x2ae>
 80066bc:	466b      	mov	r3, sp
 80066be:	4622      	mov	r2, r4
 80066c0:	a941      	add	r1, sp, #260	; 0x104
 80066c2:	4630      	mov	r0, r6
 80066c4:	f000 fa0e 	bl	8006ae4 <_scanf_i>
 80066c8:	e7ac      	b.n	8006624 <__ssvfiscanf_r+0x208>
 80066ca:	4b0f      	ldr	r3, [pc, #60]	; (8006708 <__ssvfiscanf_r+0x2ec>)
 80066cc:	2b00      	cmp	r3, #0
 80066ce:	f43f aecf 	beq.w	8006470 <__ssvfiscanf_r+0x54>
 80066d2:	466b      	mov	r3, sp
 80066d4:	4622      	mov	r2, r4
 80066d6:	a941      	add	r1, sp, #260	; 0x104
 80066d8:	4630      	mov	r0, r6
 80066da:	f3af 8000 	nop.w
 80066de:	e7a1      	b.n	8006624 <__ssvfiscanf_r+0x208>
 80066e0:	89a3      	ldrh	r3, [r4, #12]
 80066e2:	f013 0f40 	tst.w	r3, #64	; 0x40
 80066e6:	bf18      	it	ne
 80066e8:	f04f 30ff 	movne.w	r0, #4294967295
 80066ec:	f50d 7d23 	add.w	sp, sp, #652	; 0x28c
 80066f0:	e8bd 8ff0 	ldmia.w	sp!, {r4, r5, r6, r7, r8, r9, sl, fp, pc}
 80066f4:	9844      	ldr	r0, [sp, #272]	; 0x110
 80066f6:	e7f9      	b.n	80066ec <__ssvfiscanf_r+0x2d0>
 80066f8:	08006369 	.word	0x08006369
 80066fc:	080063e3 	.word	0x080063e3
 8006700:	08007ce6 	.word	0x08007ce6
 8006704:	08007c9d 	.word	0x08007c9d
 8006708:	00000000 	.word	0x00000000

0800670c <_printf_common>:
 800670c:	e92d 47f0 	stmdb	sp!, {r4, r5, r6, r7, r8, r9, sl, lr}
 8006710:	4616      	mov	r6, r2
 8006712:	4699      	mov	r9, r3
 8006714:	688a      	ldr	r2, [r1, #8]
 8006716:	690b      	ldr	r3, [r1, #16]
 8006718:	f8dd 8020 	ldr.w	r8, [sp, #32]
 800671c:	4293      	cmp	r3, r2
 800671e:	bfb8      	it	lt
 8006720:	4613      	movlt	r3, r2
 8006722:	6033      	str	r3, [r6, #0]
 8006724:	f891 2043 	ldrb.w	r2, [r1, #67]	; 0x43
 8006728:	4607      	mov	r7, r0
 800672a:	460c      	mov	r4, r1
 800672c:	b10a      	cbz	r2, 8006732 <_printf_common+0x26>
 800672e:	3301      	adds	r3, #1
 8006730:	6033      	str	r3, [r6, #0]
 8006732:	6823      	ldr	r3, [r4, #0]
 8006734:	0699      	lsls	r1, r3, #26
 8006736:	bf42      	ittt	mi
 8006738:	6833      	ldrmi	r3, [r6, #0]
 800673a:	3302      	addmi	r3, #2
 800673c:	6033      	strmi	r3, [r6, #0]
 800673e:	6825      	ldr	r5, [r4, #0]
 8006740:	f015 0506 	ands.w	r5, r5, #6
 8006744:	d106      	bne.n	8006754 <_printf_common+0x48>
 8006746:	f104 0a19 	add.w	sl, r4, #25
 800674a:	68e3      	ldr	r3, [r4, #12]
 800674c:	6832      	ldr	r2, [r6, #0]
 800674e:	1a9b      	subs	r3, r3, r2
 8006750:	42ab      	cmp	r3, r5
 8006752:	dc26      	bgt.n	80067a2 <_printf_common+0x96>
 8006754:	f894 2043 	ldrb.w	r2, [r4, #67]	; 0x43
 8006758:	1e13      	subs	r3, r2, #0
 800675a:	6822      	ldr	r2, [r4, #0]
 800675c:	bf18      	it	ne
 800675e:	2301      	movne	r3, #1
 8006760:	0692      	lsls	r2, r2, #26
 8006762:	d42b      	bmi.n	80067bc <_printf_common+0xb0>
 8006764:	f104 0243 	add.w	r2, r4, #67	; 0x43
 8006768:	4649      	mov	r1, r9
 800676a:	4638      	mov	r0, r7
 800676c:	47c0      	blx	r8
 800676e:	3001      	adds	r0, #1
 8006770:	d01e      	beq.n	80067b0 <_printf_common+0xa4>
 8006772:	6823      	ldr	r3, [r4, #0]
 8006774:	68e5      	ldr	r5, [r4, #12]
 8006776:	6832      	ldr	r2, [r6, #0]
 8006778:	f003 0306 	and.w	r3, r3, #6
 800677c:	2b04      	cmp	r3, #4
 800677e:	bf08      	it	eq
 8006780:	1aad      	subeq	r5, r5, r2
 8006782:	68a3      	ldr	r3, [r4, #8]
 8006784:	6922      	ldr	r2, [r4, #16]
 8006786:	bf0c      	ite	eq
 8006788:	ea25 75e5 	biceq.w	r5, r5, r5, asr #31
 800678c:	2500      	movne	r5, #0
 800678e:	4293      	cmp	r3, r2
 8006790:	bfc4      	itt	gt
 8006792:	1a9b      	subgt	r3, r3, r2
 8006794:	18ed      	addgt	r5, r5, r3
 8006796:	2600      	movs	r6, #0
 8006798:	341a      	adds	r4, #26
 800679a:	42b5      	cmp	r5, r6
 800679c:	d11a      	bne.n	80067d4 <_printf_common+0xc8>
 800679e:	2000      	movs	r0, #0
 80067a0:	e008      	b.n	80067b4 <_printf_common+0xa8>
 80067a2:	2301      	movs	r3, #1
 80067a4:	4652      	mov	r2, sl
 80067a6:	4649      	mov	r1, r9
 80067a8:	4638      	mov	r0, r7
 80067aa:	47c0      	blx	r8
 80067ac:	3001      	adds	r0, #1
 80067ae:	d103      	bne.n	80067b8 <_printf_common+0xac>
 80067b0:	f04f 30ff 	mov.w	r0, #4294967295
 80067b4:	e8bd 87f0 	ldmia.w	sp!, {r4, r5, r6, r7, r8, r9, sl, pc}
 80067b8:	3501      	adds	r5, #1
 80067ba:	e7c6      	b.n	800674a <_printf_common+0x3e>
 80067bc:	18e1      	adds	r1, r4, r3
 80067be:	1c5a      	adds	r2, r3, #1
 80067c0:	2030      	movs	r0, #48	; 0x30
 80067c2:	f881 0043 	strb.w	r0, [r1, #67]	; 0x43
 80067c6:	4422      	add	r2, r4
 80067c8:	f894 1045 	ldrb.w	r1, [r4, #69]	; 0x45
 80067cc:	f882 1043 	strb.w	r1, [r2, #67]	; 0x43
 80067d0:	3302      	adds	r3, #2
 80067d2:	e7c7      	b.n	8006764 <_printf_common+0x58>
 80067d4:	2301      	movs	r3, #1
 80067d6:	4622      	mov	r2, r4
 80067d8:	4649      	mov	r1, r9
 80067da:	4638      	mov	r0, r7
 80067dc:	47c0      	blx	r8
 80067de:	3001      	adds	r0, #1
 80067e0:	d0e6      	beq.n	80067b0 <_printf_common+0xa4>
 80067e2:	3601      	adds	r6, #1
 80067e4:	e7d9      	b.n	800679a <_printf_common+0x8e>
	...

080067e8 <_printf_i>:
 80067e8:	e92d 47ff 	stmdb	sp!, {r0, r1, r2, r3, r4, r5, r6, r7, r8, r9, sl, lr}
 80067ec:	460c      	mov	r4, r1
 80067ee:	4691      	mov	r9, r2
 80067f0:	7e27      	ldrb	r7, [r4, #24]
 80067f2:	990c      	ldr	r1, [sp, #48]	; 0x30
 80067f4:	2f78      	cmp	r7, #120	; 0x78
 80067f6:	4680      	mov	r8, r0
 80067f8:	469a      	mov	sl, r3
 80067fa:	f104 0243 	add.w	r2, r4, #67	; 0x43
 80067fe:	d807      	bhi.n	8006810 <_printf_i+0x28>
 8006800:	2f62      	cmp	r7, #98	; 0x62
 8006802:	d80a      	bhi.n	800681a <_printf_i+0x32>
 8006804:	2f00      	cmp	r7, #0
 8006806:	f000 80d8 	beq.w	80069ba <_printf_i+0x1d2>
 800680a:	2f58      	cmp	r7, #88	; 0x58
 800680c:	f000 80a3 	beq.w	8006956 <_printf_i+0x16e>
 8006810:	f104 0642 	add.w	r6, r4, #66	; 0x42
 8006814:	f884 7042 	strb.w	r7, [r4, #66]	; 0x42
 8006818:	e03a      	b.n	8006890 <_printf_i+0xa8>
 800681a:	f1a7 0363 	sub.w	r3, r7, #99	; 0x63
 800681e:	2b15      	cmp	r3, #21
 8006820:	d8f6      	bhi.n	8006810 <_printf_i+0x28>
 8006822:	a001      	add	r0, pc, #4	; (adr r0, 8006828 <_printf_i+0x40>)
 8006824:	f850 f023 	ldr.w	pc, [r0, r3, lsl #2]
 8006828:	08006881 	.word	0x08006881
 800682c:	08006895 	.word	0x08006895
 8006830:	08006811 	.word	0x08006811
 8006834:	08006811 	.word	0x08006811
 8006838:	08006811 	.word	0x08006811
 800683c:	08006811 	.word	0x08006811
 8006840:	08006895 	.word	0x08006895
 8006844:	08006811 	.word	0x08006811
 8006848:	08006811 	.word	0x08006811
 800684c:	08006811 	.word	0x08006811
 8006850:	08006811 	.word	0x08006811
 8006854:	080069a1 	.word	0x080069a1
 8006858:	080068c5 	.word	0x080068c5
 800685c:	08006983 	.word	0x08006983
 8006860:	08006811 	.word	0x08006811
 8006864:	08006811 	.word	0x08006811
 8006868:	080069c3 	.word	0x080069c3
 800686c:	08006811 	.word	0x08006811
 8006870:	080068c5 	.word	0x080068c5
 8006874:	08006811 	.word	0x08006811
 8006878:	08006811 	.word	0x08006811
 800687c:	0800698b 	.word	0x0800698b
 8006880:	680b      	ldr	r3, [r1, #0]
 8006882:	1d1a      	adds	r2, r3, #4
 8006884:	681b      	ldr	r3, [r3, #0]
 8006886:	600a      	str	r2, [r1, #0]
 8006888:	f104 0642 	add.w	r6, r4, #66	; 0x42
 800688c:	f884 3042 	strb.w	r3, [r4, #66]	; 0x42
 8006890:	2301      	movs	r3, #1
 8006892:	e0a3      	b.n	80069dc <_printf_i+0x1f4>
 8006894:	6825      	ldr	r5, [r4, #0]
 8006896:	6808      	ldr	r0, [r1, #0]
 8006898:	062e      	lsls	r6, r5, #24
 800689a:	f100 0304 	add.w	r3, r0, #4
 800689e:	d50a      	bpl.n	80068b6 <_printf_i+0xce>
 80068a0:	6805      	ldr	r5, [r0, #0]
 80068a2:	600b      	str	r3, [r1, #0]
 80068a4:	2d00      	cmp	r5, #0
 80068a6:	da03      	bge.n	80068b0 <_printf_i+0xc8>
 80068a8:	232d      	movs	r3, #45	; 0x2d
 80068aa:	426d      	negs	r5, r5
 80068ac:	f884 3043 	strb.w	r3, [r4, #67]	; 0x43
 80068b0:	485e      	ldr	r0, [pc, #376]	; (8006a2c <_printf_i+0x244>)
 80068b2:	230a      	movs	r3, #10
 80068b4:	e019      	b.n	80068ea <_printf_i+0x102>
 80068b6:	f015 0f40 	tst.w	r5, #64	; 0x40
 80068ba:	6805      	ldr	r5, [r0, #0]
 80068bc:	600b      	str	r3, [r1, #0]
 80068be:	bf18      	it	ne
 80068c0:	b22d      	sxthne	r5, r5
 80068c2:	e7ef      	b.n	80068a4 <_printf_i+0xbc>
 80068c4:	680b      	ldr	r3, [r1, #0]
 80068c6:	6825      	ldr	r5, [r4, #0]
 80068c8:	1d18      	adds	r0, r3, #4
 80068ca:	6008      	str	r0, [r1, #0]
 80068cc:	0628      	lsls	r0, r5, #24
 80068ce:	d501      	bpl.n	80068d4 <_printf_i+0xec>
 80068d0:	681d      	ldr	r5, [r3, #0]
 80068d2:	e002      	b.n	80068da <_printf_i+0xf2>
 80068d4:	0669      	lsls	r1, r5, #25
 80068d6:	d5fb      	bpl.n	80068d0 <_printf_i+0xe8>
 80068d8:	881d      	ldrh	r5, [r3, #0]
 80068da:	4854      	ldr	r0, [pc, #336]	; (8006a2c <_printf_i+0x244>)
 80068dc:	2f6f      	cmp	r7, #111	; 0x6f
 80068de:	bf0c      	ite	eq
 80068e0:	2308      	moveq	r3, #8
 80068e2:	230a      	movne	r3, #10
 80068e4:	2100      	movs	r1, #0
 80068e6:	f884 1043 	strb.w	r1, [r4, #67]	; 0x43
 80068ea:	6866      	ldr	r6, [r4, #4]
 80068ec:	60a6      	str	r6, [r4, #8]
 80068ee:	2e00      	cmp	r6, #0
 80068f0:	bfa2      	ittt	ge
 80068f2:	6821      	ldrge	r1, [r4, #0]
 80068f4:	f021 0104 	bicge.w	r1, r1, #4
 80068f8:	6021      	strge	r1, [r4, #0]
 80068fa:	b90d      	cbnz	r5, 8006900 <_printf_i+0x118>
 80068fc:	2e00      	cmp	r6, #0
 80068fe:	d04d      	beq.n	800699c <_printf_i+0x1b4>
 8006900:	4616      	mov	r6, r2
 8006902:	fbb5 f1f3 	udiv	r1, r5, r3
 8006906:	fb03 5711 	mls	r7, r3, r1, r5
 800690a:	5dc7      	ldrb	r7, [r0, r7]
 800690c:	f806 7d01 	strb.w	r7, [r6, #-1]!
 8006910:	462f      	mov	r7, r5
 8006912:	42bb      	cmp	r3, r7
 8006914:	460d      	mov	r5, r1
 8006916:	d9f4      	bls.n	8006902 <_printf_i+0x11a>
 8006918:	2b08      	cmp	r3, #8
 800691a:	d10b      	bne.n	8006934 <_printf_i+0x14c>
 800691c:	6823      	ldr	r3, [r4, #0]
 800691e:	07df      	lsls	r7, r3, #31
 8006920:	d508      	bpl.n	8006934 <_printf_i+0x14c>
 8006922:	6923      	ldr	r3, [r4, #16]
 8006924:	6861      	ldr	r1, [r4, #4]
 8006926:	4299      	cmp	r1, r3
 8006928:	bfde      	ittt	le
 800692a:	2330      	movle	r3, #48	; 0x30
 800692c:	f806 3c01 	strble.w	r3, [r6, #-1]
 8006930:	f106 36ff 	addle.w	r6, r6, #4294967295
 8006934:	1b92      	subs	r2, r2, r6
 8006936:	6122      	str	r2, [r4, #16]
 8006938:	f8cd a000 	str.w	sl, [sp]
 800693c:	464b      	mov	r3, r9
 800693e:	aa03      	add	r2, sp, #12
 8006940:	4621      	mov	r1, r4
 8006942:	4640      	mov	r0, r8
 8006944:	f7ff fee2 	bl	800670c <_printf_common>
 8006948:	3001      	adds	r0, #1
 800694a:	d14c      	bne.n	80069e6 <_printf_i+0x1fe>
 800694c:	f04f 30ff 	mov.w	r0, #4294967295
 8006950:	b004      	add	sp, #16
 8006952:	e8bd 87f0 	ldmia.w	sp!, {r4, r5, r6, r7, r8, r9, sl, pc}
 8006956:	4835      	ldr	r0, [pc, #212]	; (8006a2c <_printf_i+0x244>)
 8006958:	f884 7045 	strb.w	r7, [r4, #69]	; 0x45
 800695c:	6823      	ldr	r3, [r4, #0]
 800695e:	680e      	ldr	r6, [r1, #0]
 8006960:	061f      	lsls	r7, r3, #24
 8006962:	f856 5b04 	ldr.w	r5, [r6], #4
 8006966:	600e      	str	r6, [r1, #0]
 8006968:	d514      	bpl.n	8006994 <_printf_i+0x1ac>
 800696a:	07d9      	lsls	r1, r3, #31
 800696c:	bf44      	itt	mi
 800696e:	f043 0320 	orrmi.w	r3, r3, #32
 8006972:	6023      	strmi	r3, [r4, #0]
 8006974:	b91d      	cbnz	r5, 800697e <_printf_i+0x196>
 8006976:	6823      	ldr	r3, [r4, #0]
 8006978:	f023 0320 	bic.w	r3, r3, #32
 800697c:	6023      	str	r3, [r4, #0]
 800697e:	2310      	movs	r3, #16
 8006980:	e7b0      	b.n	80068e4 <_printf_i+0xfc>
 8006982:	6823      	ldr	r3, [r4, #0]
 8006984:	f043 0320 	orr.w	r3, r3, #32
 8006988:	6023      	str	r3, [r4, #0]
 800698a:	2378      	movs	r3, #120	; 0x78
 800698c:	4828      	ldr	r0, [pc, #160]	; (8006a30 <_printf_i+0x248>)
 800698e:	f884 3045 	strb.w	r3, [r4, #69]	; 0x45
 8006992:	e7e3      	b.n	800695c <_printf_i+0x174>
 8006994:	065e      	lsls	r6, r3, #25
 8006996:	bf48      	it	mi
 8006998:	b2ad      	uxthmi	r5, r5
 800699a:	e7e6      	b.n	800696a <_printf_i+0x182>
 800699c:	4616      	mov	r6, r2
 800699e:	e7bb      	b.n	8006918 <_printf_i+0x130>
 80069a0:	680b      	ldr	r3, [r1, #0]
 80069a2:	6826      	ldr	r6, [r4, #0]
 80069a4:	6960      	ldr	r0, [r4, #20]
 80069a6:	1d1d      	adds	r5, r3, #4
 80069a8:	600d      	str	r5, [r1, #0]
 80069aa:	0635      	lsls	r5, r6, #24
 80069ac:	681b      	ldr	r3, [r3, #0]
 80069ae:	d501      	bpl.n	80069b4 <_printf_i+0x1cc>
 80069b0:	6018      	str	r0, [r3, #0]
 80069b2:	e002      	b.n	80069ba <_printf_i+0x1d2>
 80069b4:	0671      	lsls	r1, r6, #25
 80069b6:	d5fb      	bpl.n	80069b0 <_printf_i+0x1c8>
 80069b8:	8018      	strh	r0, [r3, #0]
 80069ba:	2300      	movs	r3, #0
 80069bc:	6123      	str	r3, [r4, #16]
 80069be:	4616      	mov	r6, r2
 80069c0:	e7ba      	b.n	8006938 <_printf_i+0x150>
 80069c2:	680b      	ldr	r3, [r1, #0]
 80069c4:	1d1a      	adds	r2, r3, #4
 80069c6:	600a      	str	r2, [r1, #0]
 80069c8:	681e      	ldr	r6, [r3, #0]
 80069ca:	6862      	ldr	r2, [r4, #4]
 80069cc:	2100      	movs	r1, #0
 80069ce:	4630      	mov	r0, r6
 80069d0:	f7f9 fc06 	bl	80001e0 <memchr>
 80069d4:	b108      	cbz	r0, 80069da <_printf_i+0x1f2>
 80069d6:	1b80      	subs	r0, r0, r6
 80069d8:	6060      	str	r0, [r4, #4]
 80069da:	6863      	ldr	r3, [r4, #4]
 80069dc:	6123      	str	r3, [r4, #16]
 80069de:	2300      	movs	r3, #0
 80069e0:	f884 3043 	strb.w	r3, [r4, #67]	; 0x43
 80069e4:	e7a8      	b.n	8006938 <_printf_i+0x150>
 80069e6:	6923      	ldr	r3, [r4, #16]
 80069e8:	4632      	mov	r2, r6
 80069ea:	4649      	mov	r1, r9
 80069ec:	4640      	mov	r0, r8
 80069ee:	47d0      	blx	sl
 80069f0:	3001      	adds	r0, #1
 80069f2:	d0ab      	beq.n	800694c <_printf_i+0x164>
 80069f4:	6823      	ldr	r3, [r4, #0]
 80069f6:	079b      	lsls	r3, r3, #30
 80069f8:	d413      	bmi.n	8006a22 <_printf_i+0x23a>
 80069fa:	68e0      	ldr	r0, [r4, #12]
 80069fc:	9b03      	ldr	r3, [sp, #12]
 80069fe:	4298      	cmp	r0, r3
 8006a00:	bfb8      	it	lt
 8006a02:	4618      	movlt	r0, r3
 8006a04:	e7a4      	b.n	8006950 <_printf_i+0x168>
 8006a06:	2301      	movs	r3, #1
 8006a08:	4632      	mov	r2, r6
 8006a0a:	4649      	mov	r1, r9
 8006a0c:	4640      	mov	r0, r8
 8006a0e:	47d0      	blx	sl
 8006a10:	3001      	adds	r0, #1
 8006a12:	d09b      	beq.n	800694c <_printf_i+0x164>
 8006a14:	3501      	adds	r5, #1
 8006a16:	68e3      	ldr	r3, [r4, #12]
 8006a18:	9903      	ldr	r1, [sp, #12]
 8006a1a:	1a5b      	subs	r3, r3, r1
 8006a1c:	42ab      	cmp	r3, r5
 8006a1e:	dcf2      	bgt.n	8006a06 <_printf_i+0x21e>
 8006a20:	e7eb      	b.n	80069fa <_printf_i+0x212>
 8006a22:	2500      	movs	r5, #0
 8006a24:	f104 0619 	add.w	r6, r4, #25
 8006a28:	e7f5      	b.n	8006a16 <_printf_i+0x22e>
 8006a2a:	bf00      	nop
 8006a2c:	08007ca8 	.word	0x08007ca8
 8006a30:	08007cb9 	.word	0x08007cb9

08006a34 <_scanf_chars>:
 8006a34:	e92d 43f8 	stmdb	sp!, {r3, r4, r5, r6, r7, r8, r9, lr}
 8006a38:	4615      	mov	r5, r2
 8006a3a:	688a      	ldr	r2, [r1, #8]
 8006a3c:	4680      	mov	r8, r0
 8006a3e:	460c      	mov	r4, r1
 8006a40:	b932      	cbnz	r2, 8006a50 <_scanf_chars+0x1c>
 8006a42:	698a      	ldr	r2, [r1, #24]
 8006a44:	2a00      	cmp	r2, #0
 8006a46:	bf0c      	ite	eq
 8006a48:	2201      	moveq	r2, #1
 8006a4a:	f04f 32ff 	movne.w	r2, #4294967295
 8006a4e:	608a      	str	r2, [r1, #8]
 8006a50:	6822      	ldr	r2, [r4, #0]
 8006a52:	f8df 908c 	ldr.w	r9, [pc, #140]	; 8006ae0 <_scanf_chars+0xac>
 8006a56:	06d1      	lsls	r1, r2, #27
 8006a58:	bf5f      	itttt	pl
 8006a5a:	681a      	ldrpl	r2, [r3, #0]
 8006a5c:	1d11      	addpl	r1, r2, #4
 8006a5e:	6019      	strpl	r1, [r3, #0]
 8006a60:	6816      	ldrpl	r6, [r2, #0]
 8006a62:	2700      	movs	r7, #0
 8006a64:	69a0      	ldr	r0, [r4, #24]
 8006a66:	b188      	cbz	r0, 8006a8c <_scanf_chars+0x58>
 8006a68:	2801      	cmp	r0, #1
 8006a6a:	d107      	bne.n	8006a7c <_scanf_chars+0x48>
 8006a6c:	682b      	ldr	r3, [r5, #0]
 8006a6e:	781a      	ldrb	r2, [r3, #0]
 8006a70:	6963      	ldr	r3, [r4, #20]
 8006a72:	5c9b      	ldrb	r3, [r3, r2]
 8006a74:	b953      	cbnz	r3, 8006a8c <_scanf_chars+0x58>
 8006a76:	bb27      	cbnz	r7, 8006ac2 <_scanf_chars+0x8e>
 8006a78:	e8bd 83f8 	ldmia.w	sp!, {r3, r4, r5, r6, r7, r8, r9, pc}
 8006a7c:	2802      	cmp	r0, #2
 8006a7e:	d120      	bne.n	8006ac2 <_scanf_chars+0x8e>
 8006a80:	682b      	ldr	r3, [r5, #0]
 8006a82:	781b      	ldrb	r3, [r3, #0]
 8006a84:	f813 3009 	ldrb.w	r3, [r3, r9]
 8006a88:	071b      	lsls	r3, r3, #28
 8006a8a:	d41a      	bmi.n	8006ac2 <_scanf_chars+0x8e>
 8006a8c:	6823      	ldr	r3, [r4, #0]
 8006a8e:	06da      	lsls	r2, r3, #27
 8006a90:	bf5e      	ittt	pl
 8006a92:	682b      	ldrpl	r3, [r5, #0]
 8006a94:	781b      	ldrbpl	r3, [r3, #0]
 8006a96:	f806 3b01 	strbpl.w	r3, [r6], #1
 8006a9a:	682a      	ldr	r2, [r5, #0]
 8006a9c:	686b      	ldr	r3, [r5, #4]
 8006a9e:	3201      	adds	r2, #1
 8006aa0:	602a      	str	r2, [r5, #0]
 8006aa2:	68a2      	ldr	r2, [r4, #8]
 8006aa4:	3b01      	subs	r3, #1
 8006aa6:	3a01      	subs	r2, #1
 8006aa8:	606b      	str	r3, [r5, #4]
 8006aaa:	3701      	adds	r7, #1
 8006aac:	60a2      	str	r2, [r4, #8]
 8006aae:	b142      	cbz	r2, 8006ac2 <_scanf_chars+0x8e>
 8006ab0:	2b00      	cmp	r3, #0
 8006ab2:	dcd7      	bgt.n	8006a64 <_scanf_chars+0x30>
 8006ab4:	f8d4 3180 	ldr.w	r3, [r4, #384]	; 0x180
 8006ab8:	4629      	mov	r1, r5
 8006aba:	4640      	mov	r0, r8
 8006abc:	4798      	blx	r3
 8006abe:	2800      	cmp	r0, #0
 8006ac0:	d0d0      	beq.n	8006a64 <_scanf_chars+0x30>
 8006ac2:	6823      	ldr	r3, [r4, #0]
 8006ac4:	f013 0310 	ands.w	r3, r3, #16
 8006ac8:	d105      	bne.n	8006ad6 <_scanf_chars+0xa2>
 8006aca:	68e2      	ldr	r2, [r4, #12]
 8006acc:	3201      	adds	r2, #1
 8006ace:	60e2      	str	r2, [r4, #12]
 8006ad0:	69a2      	ldr	r2, [r4, #24]
 8006ad2:	b102      	cbz	r2, 8006ad6 <_scanf_chars+0xa2>
 8006ad4:	7033      	strb	r3, [r6, #0]
 8006ad6:	6923      	ldr	r3, [r4, #16]
 8006ad8:	441f      	add	r7, r3
 8006ada:	6127      	str	r7, [r4, #16]
 8006adc:	2000      	movs	r0, #0
 8006ade:	e7cb      	b.n	8006a78 <_scanf_chars+0x44>
 8006ae0:	08007ce6 	.word	0x08007ce6

08006ae4 <_scanf_i>:
 8006ae4:	e92d 4ff0 	stmdb	sp!, {r4, r5, r6, r7, r8, r9, sl, fp, lr}
 8006ae8:	4698      	mov	r8, r3
 8006aea:	4b74      	ldr	r3, [pc, #464]	; (8006cbc <_scanf_i+0x1d8>)
 8006aec:	460c      	mov	r4, r1
 8006aee:	4682      	mov	sl, r0
 8006af0:	4616      	mov	r6, r2
 8006af2:	e893 0007 	ldmia.w	r3, {r0, r1, r2}
 8006af6:	b087      	sub	sp, #28
 8006af8:	ab03      	add	r3, sp, #12
 8006afa:	e883 0007 	stmia.w	r3, {r0, r1, r2}
 8006afe:	4b70      	ldr	r3, [pc, #448]	; (8006cc0 <_scanf_i+0x1dc>)
 8006b00:	69a1      	ldr	r1, [r4, #24]
 8006b02:	4a70      	ldr	r2, [pc, #448]	; (8006cc4 <_scanf_i+0x1e0>)
 8006b04:	2903      	cmp	r1, #3
 8006b06:	bf18      	it	ne
 8006b08:	461a      	movne	r2, r3
 8006b0a:	68a3      	ldr	r3, [r4, #8]
 8006b0c:	9201      	str	r2, [sp, #4]
 8006b0e:	1e5a      	subs	r2, r3, #1
 8006b10:	f5b2 7fae 	cmp.w	r2, #348	; 0x15c
 8006b14:	bf88      	it	hi
 8006b16:	f46f 75ae 	mvnhi.w	r5, #348	; 0x15c
 8006b1a:	4627      	mov	r7, r4
 8006b1c:	bf82      	ittt	hi
 8006b1e:	eb03 0905 	addhi.w	r9, r3, r5
 8006b22:	f240 135d 	movwhi	r3, #349	; 0x15d
 8006b26:	60a3      	strhi	r3, [r4, #8]
 8006b28:	f857 3b1c 	ldr.w	r3, [r7], #28
 8006b2c:	f443 6350 	orr.w	r3, r3, #3328	; 0xd00
 8006b30:	bf98      	it	ls
 8006b32:	f04f 0900 	movls.w	r9, #0
 8006b36:	6023      	str	r3, [r4, #0]
 8006b38:	463d      	mov	r5, r7
 8006b3a:	f04f 0b00 	mov.w	fp, #0
 8006b3e:	6831      	ldr	r1, [r6, #0]
 8006b40:	ab03      	add	r3, sp, #12
 8006b42:	7809      	ldrb	r1, [r1, #0]
 8006b44:	f853 002b 	ldr.w	r0, [r3, fp, lsl #2]
 8006b48:	2202      	movs	r2, #2
 8006b4a:	f7f9 fb49 	bl	80001e0 <memchr>
 8006b4e:	b328      	cbz	r0, 8006b9c <_scanf_i+0xb8>
 8006b50:	f1bb 0f01 	cmp.w	fp, #1
 8006b54:	d159      	bne.n	8006c0a <_scanf_i+0x126>
 8006b56:	6862      	ldr	r2, [r4, #4]
 8006b58:	b92a      	cbnz	r2, 8006b66 <_scanf_i+0x82>
 8006b5a:	6822      	ldr	r2, [r4, #0]
 8006b5c:	2308      	movs	r3, #8
 8006b5e:	f442 7200 	orr.w	r2, r2, #512	; 0x200
 8006b62:	6063      	str	r3, [r4, #4]
 8006b64:	6022      	str	r2, [r4, #0]
 8006b66:	6822      	ldr	r2, [r4, #0]
 8006b68:	f422 62a0 	bic.w	r2, r2, #1280	; 0x500
 8006b6c:	6022      	str	r2, [r4, #0]
 8006b6e:	68a2      	ldr	r2, [r4, #8]
 8006b70:	1e51      	subs	r1, r2, #1
 8006b72:	60a1      	str	r1, [r4, #8]
 8006b74:	b192      	cbz	r2, 8006b9c <_scanf_i+0xb8>
 8006b76:	6832      	ldr	r2, [r6, #0]
 8006b78:	1c51      	adds	r1, r2, #1
 8006b7a:	6031      	str	r1, [r6, #0]
 8006b7c:	7812      	ldrb	r2, [r2, #0]
 8006b7e:	f805 2b01 	strb.w	r2, [r5], #1
 8006b82:	6872      	ldr	r2, [r6, #4]
 8006b84:	3a01      	subs	r2, #1
 8006b86:	2a00      	cmp	r2, #0
 8006b88:	6072      	str	r2, [r6, #4]
 8006b8a:	dc07      	bgt.n	8006b9c <_scanf_i+0xb8>
 8006b8c:	f8d4 2180 	ldr.w	r2, [r4, #384]	; 0x180
 8006b90:	4631      	mov	r1, r6
 8006b92:	4650      	mov	r0, sl
 8006b94:	4790      	blx	r2
 8006b96:	2800      	cmp	r0, #0
 8006b98:	f040 8085 	bne.w	8006ca6 <_scanf_i+0x1c2>
 8006b9c:	f10b 0b01 	add.w	fp, fp, #1
 8006ba0:	f1bb 0f03 	cmp.w	fp, #3
 8006ba4:	d1cb      	bne.n	8006b3e <_scanf_i+0x5a>
 8006ba6:	6863      	ldr	r3, [r4, #4]
 8006ba8:	b90b      	cbnz	r3, 8006bae <_scanf_i+0xca>
 8006baa:	230a      	movs	r3, #10
 8006bac:	6063      	str	r3, [r4, #4]
 8006bae:	6863      	ldr	r3, [r4, #4]
 8006bb0:	4945      	ldr	r1, [pc, #276]	; (8006cc8 <_scanf_i+0x1e4>)
 8006bb2:	6960      	ldr	r0, [r4, #20]
 8006bb4:	1ac9      	subs	r1, r1, r3
 8006bb6:	f000 f889 	bl	8006ccc <__sccl>
 8006bba:	f04f 0b00 	mov.w	fp, #0
 8006bbe:	68a3      	ldr	r3, [r4, #8]
 8006bc0:	6822      	ldr	r2, [r4, #0]
 8006bc2:	2b00      	cmp	r3, #0
 8006bc4:	d03d      	beq.n	8006c42 <_scanf_i+0x15e>
 8006bc6:	6831      	ldr	r1, [r6, #0]
 8006bc8:	6960      	ldr	r0, [r4, #20]
 8006bca:	f891 c000 	ldrb.w	ip, [r1]
 8006bce:	f810 000c 	ldrb.w	r0, [r0, ip]
 8006bd2:	2800      	cmp	r0, #0
 8006bd4:	d035      	beq.n	8006c42 <_scanf_i+0x15e>
 8006bd6:	f1bc 0f30 	cmp.w	ip, #48	; 0x30
 8006bda:	d124      	bne.n	8006c26 <_scanf_i+0x142>
 8006bdc:	0510      	lsls	r0, r2, #20
 8006bde:	d522      	bpl.n	8006c26 <_scanf_i+0x142>
 8006be0:	f10b 0b01 	add.w	fp, fp, #1
 8006be4:	f1b9 0f00 	cmp.w	r9, #0
 8006be8:	d003      	beq.n	8006bf2 <_scanf_i+0x10e>
 8006bea:	3301      	adds	r3, #1
 8006bec:	f109 39ff 	add.w	r9, r9, #4294967295
 8006bf0:	60a3      	str	r3, [r4, #8]
 8006bf2:	6873      	ldr	r3, [r6, #4]
 8006bf4:	3b01      	subs	r3, #1
 8006bf6:	2b00      	cmp	r3, #0
 8006bf8:	6073      	str	r3, [r6, #4]
 8006bfa:	dd1b      	ble.n	8006c34 <_scanf_i+0x150>
 8006bfc:	6833      	ldr	r3, [r6, #0]
 8006bfe:	3301      	adds	r3, #1
 8006c00:	6033      	str	r3, [r6, #0]
 8006c02:	68a3      	ldr	r3, [r4, #8]
 8006c04:	3b01      	subs	r3, #1
 8006c06:	60a3      	str	r3, [r4, #8]
 8006c08:	e7d9      	b.n	8006bbe <_scanf_i+0xda>
 8006c0a:	f1bb 0f02 	cmp.w	fp, #2
 8006c0e:	d1ae      	bne.n	8006b6e <_scanf_i+0x8a>
 8006c10:	6822      	ldr	r2, [r4, #0]
 8006c12:	f402 61c0 	and.w	r1, r2, #1536	; 0x600
 8006c16:	f5b1 7f00 	cmp.w	r1, #512	; 0x200
 8006c1a:	d1bf      	bne.n	8006b9c <_scanf_i+0xb8>
 8006c1c:	2310      	movs	r3, #16
 8006c1e:	6063      	str	r3, [r4, #4]
 8006c20:	f442 7280 	orr.w	r2, r2, #256	; 0x100
 8006c24:	e7a2      	b.n	8006b6c <_scanf_i+0x88>
 8006c26:	f422 6210 	bic.w	r2, r2, #2304	; 0x900
 8006c2a:	6022      	str	r2, [r4, #0]
 8006c2c:	780b      	ldrb	r3, [r1, #0]
 8006c2e:	f805 3b01 	strb.w	r3, [r5], #1
 8006c32:	e7de      	b.n	8006bf2 <_scanf_i+0x10e>
 8006c34:	f8d4 3180 	ldr.w	r3, [r4, #384]	; 0x180
 8006c38:	4631      	mov	r1, r6
 8006c3a:	4650      	mov	r0, sl
 8006c3c:	4798      	blx	r3
 8006c3e:	2800      	cmp	r0, #0
 8006c40:	d0df      	beq.n	8006c02 <_scanf_i+0x11e>
 8006c42:	6823      	ldr	r3, [r4, #0]
 8006c44:	05d9      	lsls	r1, r3, #23
 8006c46:	d50d      	bpl.n	8006c64 <_scanf_i+0x180>
 8006c48:	42bd      	cmp	r5, r7
 8006c4a:	d909      	bls.n	8006c60 <_scanf_i+0x17c>
 8006c4c:	f815 1c01 	ldrb.w	r1, [r5, #-1]
 8006c50:	f8d4 317c 	ldr.w	r3, [r4, #380]	; 0x17c
 8006c54:	4632      	mov	r2, r6
 8006c56:	4650      	mov	r0, sl
 8006c58:	4798      	blx	r3
 8006c5a:	f105 39ff 	add.w	r9, r5, #4294967295
 8006c5e:	464d      	mov	r5, r9
 8006c60:	42bd      	cmp	r5, r7
 8006c62:	d028      	beq.n	8006cb6 <_scanf_i+0x1d2>
 8006c64:	6822      	ldr	r2, [r4, #0]
 8006c66:	f012 0210 	ands.w	r2, r2, #16
 8006c6a:	d113      	bne.n	8006c94 <_scanf_i+0x1b0>
 8006c6c:	702a      	strb	r2, [r5, #0]
 8006c6e:	6863      	ldr	r3, [r4, #4]
 8006c70:	9e01      	ldr	r6, [sp, #4]
 8006c72:	4639      	mov	r1, r7
 8006c74:	4650      	mov	r0, sl
 8006c76:	47b0      	blx	r6
 8006c78:	f8d8 3000 	ldr.w	r3, [r8]
 8006c7c:	6821      	ldr	r1, [r4, #0]
 8006c7e:	1d1a      	adds	r2, r3, #4
 8006c80:	f8c8 2000 	str.w	r2, [r8]
 8006c84:	f011 0f20 	tst.w	r1, #32
 8006c88:	681b      	ldr	r3, [r3, #0]
 8006c8a:	d00f      	beq.n	8006cac <_scanf_i+0x1c8>
 8006c8c:	6018      	str	r0, [r3, #0]
 8006c8e:	68e3      	ldr	r3, [r4, #12]
 8006c90:	3301      	adds	r3, #1
 8006c92:	60e3      	str	r3, [r4, #12]
 8006c94:	1bed      	subs	r5, r5, r7
 8006c96:	44ab      	add	fp, r5
 8006c98:	6925      	ldr	r5, [r4, #16]
 8006c9a:	445d      	add	r5, fp
 8006c9c:	6125      	str	r5, [r4, #16]
 8006c9e:	2000      	movs	r0, #0
 8006ca0:	b007      	add	sp, #28
 8006ca2:	e8bd 8ff0 	ldmia.w	sp!, {r4, r5, r6, r7, r8, r9, sl, fp, pc}
 8006ca6:	f04f 0b00 	mov.w	fp, #0
 8006caa:	e7ca      	b.n	8006c42 <_scanf_i+0x15e>
 8006cac:	07ca      	lsls	r2, r1, #31
 8006cae:	bf4c      	ite	mi
 8006cb0:	8018      	strhmi	r0, [r3, #0]
 8006cb2:	6018      	strpl	r0, [r3, #0]
 8006cb4:	e7eb      	b.n	8006c8e <_scanf_i+0x1aa>
 8006cb6:	2001      	movs	r0, #1
 8006cb8:	e7f2      	b.n	8006ca0 <_scanf_i+0x1bc>
 8006cba:	bf00      	nop
 8006cbc:	08007bb4 	.word	0x08007bb4
 8006cc0:	08006f45 	.word	0x08006f45
 8006cc4:	08006e49 	.word	0x08006e49
 8006cc8:	08007ce3 	.word	0x08007ce3

08006ccc <__sccl>:
 8006ccc:	b570      	push	{r4, r5, r6, lr}
 8006cce:	780b      	ldrb	r3, [r1, #0]
 8006cd0:	4604      	mov	r4, r0
 8006cd2:	2b5e      	cmp	r3, #94	; 0x5e
 8006cd4:	bf0b      	itete	eq
 8006cd6:	784b      	ldrbeq	r3, [r1, #1]
 8006cd8:	1c48      	addne	r0, r1, #1
 8006cda:	1c88      	addeq	r0, r1, #2
 8006cdc:	2200      	movne	r2, #0
 8006cde:	bf08      	it	eq
 8006ce0:	2201      	moveq	r2, #1
 8006ce2:	1e61      	subs	r1, r4, #1
 8006ce4:	f104 05ff 	add.w	r5, r4, #255	; 0xff
 8006ce8:	f801 2f01 	strb.w	r2, [r1, #1]!
 8006cec:	42a9      	cmp	r1, r5
 8006cee:	d1fb      	bne.n	8006ce8 <__sccl+0x1c>
 8006cf0:	b90b      	cbnz	r3, 8006cf6 <__sccl+0x2a>
 8006cf2:	3801      	subs	r0, #1
 8006cf4:	bd70      	pop	{r4, r5, r6, pc}
 8006cf6:	f082 0101 	eor.w	r1, r2, #1
 8006cfa:	54e1      	strb	r1, [r4, r3]
 8006cfc:	1c42      	adds	r2, r0, #1
 8006cfe:	f812 5c01 	ldrb.w	r5, [r2, #-1]
 8006d02:	2d2d      	cmp	r5, #45	; 0x2d
 8006d04:	f102 36ff 	add.w	r6, r2, #4294967295
 8006d08:	4610      	mov	r0, r2
 8006d0a:	d006      	beq.n	8006d1a <__sccl+0x4e>
 8006d0c:	2d5d      	cmp	r5, #93	; 0x5d
 8006d0e:	d0f1      	beq.n	8006cf4 <__sccl+0x28>
 8006d10:	b90d      	cbnz	r5, 8006d16 <__sccl+0x4a>
 8006d12:	4630      	mov	r0, r6
 8006d14:	e7ee      	b.n	8006cf4 <__sccl+0x28>
 8006d16:	462b      	mov	r3, r5
 8006d18:	e7ef      	b.n	8006cfa <__sccl+0x2e>
 8006d1a:	7816      	ldrb	r6, [r2, #0]
 8006d1c:	2e5d      	cmp	r6, #93	; 0x5d
 8006d1e:	d0fa      	beq.n	8006d16 <__sccl+0x4a>
 8006d20:	42b3      	cmp	r3, r6
 8006d22:	dcf8      	bgt.n	8006d16 <__sccl+0x4a>
 8006d24:	4618      	mov	r0, r3
 8006d26:	3001      	adds	r0, #1
 8006d28:	4286      	cmp	r6, r0
 8006d2a:	5421      	strb	r1, [r4, r0]
 8006d2c:	dcfb      	bgt.n	8006d26 <__sccl+0x5a>
 8006d2e:	43d8      	mvns	r0, r3
 8006d30:	4430      	add	r0, r6
 8006d32:	1c5d      	adds	r5, r3, #1
 8006d34:	42b3      	cmp	r3, r6
 8006d36:	bfa8      	it	ge
 8006d38:	2000      	movge	r0, #0
 8006d3a:	182b      	adds	r3, r5, r0
 8006d3c:	3202      	adds	r2, #2
 8006d3e:	e7de      	b.n	8006cfe <__sccl+0x32>

08006d40 <_strtol_l.isra.0>:
 8006d40:	2b01      	cmp	r3, #1
 8006d42:	e92d 47f0 	stmdb	sp!, {r4, r5, r6, r7, r8, r9, sl, lr}
 8006d46:	d001      	beq.n	8006d4c <_strtol_l.isra.0+0xc>
 8006d48:	2b24      	cmp	r3, #36	; 0x24
 8006d4a:	d906      	bls.n	8006d5a <_strtol_l.isra.0+0x1a>
 8006d4c:	f7ff f84c 	bl	8005de8 <__errno>
 8006d50:	2316      	movs	r3, #22
 8006d52:	6003      	str	r3, [r0, #0]
 8006d54:	2000      	movs	r0, #0
 8006d56:	e8bd 87f0 	ldmia.w	sp!, {r4, r5, r6, r7, r8, r9, sl, pc}
 8006d5a:	4f3a      	ldr	r7, [pc, #232]	; (8006e44 <_strtol_l.isra.0+0x104>)
 8006d5c:	468e      	mov	lr, r1
 8006d5e:	4676      	mov	r6, lr
 8006d60:	f81e 4b01 	ldrb.w	r4, [lr], #1
 8006d64:	5de5      	ldrb	r5, [r4, r7]
 8006d66:	f015 0508 	ands.w	r5, r5, #8
 8006d6a:	d1f8      	bne.n	8006d5e <_strtol_l.isra.0+0x1e>
 8006d6c:	2c2d      	cmp	r4, #45	; 0x2d
 8006d6e:	d134      	bne.n	8006dda <_strtol_l.isra.0+0x9a>
 8006d70:	f89e 4000 	ldrb.w	r4, [lr]
 8006d74:	f04f 0801 	mov.w	r8, #1
 8006d78:	f106 0e02 	add.w	lr, r6, #2
 8006d7c:	2b00      	cmp	r3, #0
 8006d7e:	d05c      	beq.n	8006e3a <_strtol_l.isra.0+0xfa>
 8006d80:	2b10      	cmp	r3, #16
 8006d82:	d10c      	bne.n	8006d9e <_strtol_l.isra.0+0x5e>
 8006d84:	2c30      	cmp	r4, #48	; 0x30
 8006d86:	d10a      	bne.n	8006d9e <_strtol_l.isra.0+0x5e>
 8006d88:	f89e 4000 	ldrb.w	r4, [lr]
 8006d8c:	f004 04df 	and.w	r4, r4, #223	; 0xdf
 8006d90:	2c58      	cmp	r4, #88	; 0x58
 8006d92:	d14d      	bne.n	8006e30 <_strtol_l.isra.0+0xf0>
 8006d94:	f89e 4001 	ldrb.w	r4, [lr, #1]
 8006d98:	2310      	movs	r3, #16
 8006d9a:	f10e 0e02 	add.w	lr, lr, #2
 8006d9e:	f108 4c00 	add.w	ip, r8, #2147483648	; 0x80000000
 8006da2:	f10c 3cff 	add.w	ip, ip, #4294967295
 8006da6:	2600      	movs	r6, #0
 8006da8:	fbbc f9f3 	udiv	r9, ip, r3
 8006dac:	4635      	mov	r5, r6
 8006dae:	fb03 ca19 	mls	sl, r3, r9, ip
 8006db2:	f1a4 0730 	sub.w	r7, r4, #48	; 0x30
 8006db6:	2f09      	cmp	r7, #9
 8006db8:	d818      	bhi.n	8006dec <_strtol_l.isra.0+0xac>
 8006dba:	463c      	mov	r4, r7
 8006dbc:	42a3      	cmp	r3, r4
 8006dbe:	dd24      	ble.n	8006e0a <_strtol_l.isra.0+0xca>
 8006dc0:	2e00      	cmp	r6, #0
 8006dc2:	db1f      	blt.n	8006e04 <_strtol_l.isra.0+0xc4>
 8006dc4:	45a9      	cmp	r9, r5
 8006dc6:	d31d      	bcc.n	8006e04 <_strtol_l.isra.0+0xc4>
 8006dc8:	d101      	bne.n	8006dce <_strtol_l.isra.0+0x8e>
 8006dca:	45a2      	cmp	sl, r4
 8006dcc:	db1a      	blt.n	8006e04 <_strtol_l.isra.0+0xc4>
 8006dce:	fb05 4503 	mla	r5, r5, r3, r4
 8006dd2:	2601      	movs	r6, #1
 8006dd4:	f81e 4b01 	ldrb.w	r4, [lr], #1
 8006dd8:	e7eb      	b.n	8006db2 <_strtol_l.isra.0+0x72>
 8006dda:	2c2b      	cmp	r4, #43	; 0x2b
 8006ddc:	bf08      	it	eq
 8006dde:	f89e 4000 	ldrbeq.w	r4, [lr]
 8006de2:	46a8      	mov	r8, r5
 8006de4:	bf08      	it	eq
 8006de6:	f106 0e02 	addeq.w	lr, r6, #2
 8006dea:	e7c7      	b.n	8006d7c <_strtol_l.isra.0+0x3c>
 8006dec:	f1a4 0741 	sub.w	r7, r4, #65	; 0x41
 8006df0:	2f19      	cmp	r7, #25
 8006df2:	d801      	bhi.n	8006df8 <_strtol_l.isra.0+0xb8>
 8006df4:	3c37      	subs	r4, #55	; 0x37
 8006df6:	e7e1      	b.n	8006dbc <_strtol_l.isra.0+0x7c>
 8006df8:	f1a4 0761 	sub.w	r7, r4, #97	; 0x61
 8006dfc:	2f19      	cmp	r7, #25
 8006dfe:	d804      	bhi.n	8006e0a <_strtol_l.isra.0+0xca>
 8006e00:	3c57      	subs	r4, #87	; 0x57
 8006e02:	e7db      	b.n	8006dbc <_strtol_l.isra.0+0x7c>
 8006e04:	f04f 36ff 	mov.w	r6, #4294967295
 8006e08:	e7e4      	b.n	8006dd4 <_strtol_l.isra.0+0x94>
 8006e0a:	2e00      	cmp	r6, #0
 8006e0c:	da05      	bge.n	8006e1a <_strtol_l.isra.0+0xda>
 8006e0e:	2322      	movs	r3, #34	; 0x22
 8006e10:	6003      	str	r3, [r0, #0]
 8006e12:	4665      	mov	r5, ip
 8006e14:	b942      	cbnz	r2, 8006e28 <_strtol_l.isra.0+0xe8>
 8006e16:	4628      	mov	r0, r5
 8006e18:	e79d      	b.n	8006d56 <_strtol_l.isra.0+0x16>
 8006e1a:	f1b8 0f00 	cmp.w	r8, #0
 8006e1e:	d000      	beq.n	8006e22 <_strtol_l.isra.0+0xe2>
 8006e20:	426d      	negs	r5, r5
 8006e22:	2a00      	cmp	r2, #0
 8006e24:	d0f7      	beq.n	8006e16 <_strtol_l.isra.0+0xd6>
 8006e26:	b10e      	cbz	r6, 8006e2c <_strtol_l.isra.0+0xec>
 8006e28:	f10e 31ff 	add.w	r1, lr, #4294967295
 8006e2c:	6011      	str	r1, [r2, #0]
 8006e2e:	e7f2      	b.n	8006e16 <_strtol_l.isra.0+0xd6>
 8006e30:	2430      	movs	r4, #48	; 0x30
 8006e32:	2b00      	cmp	r3, #0
 8006e34:	d1b3      	bne.n	8006d9e <_strtol_l.isra.0+0x5e>
 8006e36:	2308      	movs	r3, #8
 8006e38:	e7b1      	b.n	8006d9e <_strtol_l.isra.0+0x5e>
 8006e3a:	2c30      	cmp	r4, #48	; 0x30
 8006e3c:	d0a4      	beq.n	8006d88 <_strtol_l.isra.0+0x48>
 8006e3e:	230a      	movs	r3, #10
 8006e40:	e7ad      	b.n	8006d9e <_strtol_l.isra.0+0x5e>
 8006e42:	bf00      	nop
 8006e44:	08007ce6 	.word	0x08007ce6

08006e48 <_strtol_r>:
 8006e48:	f7ff bf7a 	b.w	8006d40 <_strtol_l.isra.0>

08006e4c <_strtoul_l.isra.0>:
 8006e4c:	e92d 43f0 	stmdb	sp!, {r4, r5, r6, r7, r8, r9, lr}
 8006e50:	4e3b      	ldr	r6, [pc, #236]	; (8006f40 <_strtoul_l.isra.0+0xf4>)
 8006e52:	4686      	mov	lr, r0
 8006e54:	468c      	mov	ip, r1
 8006e56:	4660      	mov	r0, ip
 8006e58:	f81c 4b01 	ldrb.w	r4, [ip], #1
 8006e5c:	5da5      	ldrb	r5, [r4, r6]
 8006e5e:	f015 0508 	ands.w	r5, r5, #8
 8006e62:	d1f8      	bne.n	8006e56 <_strtoul_l.isra.0+0xa>
 8006e64:	2c2d      	cmp	r4, #45	; 0x2d
 8006e66:	d134      	bne.n	8006ed2 <_strtoul_l.isra.0+0x86>
 8006e68:	f89c 4000 	ldrb.w	r4, [ip]
 8006e6c:	f04f 0801 	mov.w	r8, #1
 8006e70:	f100 0c02 	add.w	ip, r0, #2
 8006e74:	2b00      	cmp	r3, #0
 8006e76:	d05e      	beq.n	8006f36 <_strtoul_l.isra.0+0xea>
 8006e78:	2b10      	cmp	r3, #16
 8006e7a:	d10c      	bne.n	8006e96 <_strtoul_l.isra.0+0x4a>
 8006e7c:	2c30      	cmp	r4, #48	; 0x30
 8006e7e:	d10a      	bne.n	8006e96 <_strtoul_l.isra.0+0x4a>
 8006e80:	f89c 0000 	ldrb.w	r0, [ip]
 8006e84:	f000 00df 	and.w	r0, r0, #223	; 0xdf
 8006e88:	2858      	cmp	r0, #88	; 0x58
 8006e8a:	d14f      	bne.n	8006f2c <_strtoul_l.isra.0+0xe0>
 8006e8c:	f89c 4001 	ldrb.w	r4, [ip, #1]
 8006e90:	2310      	movs	r3, #16
 8006e92:	f10c 0c02 	add.w	ip, ip, #2
 8006e96:	f04f 37ff 	mov.w	r7, #4294967295
 8006e9a:	2500      	movs	r5, #0
 8006e9c:	fbb7 f7f3 	udiv	r7, r7, r3
 8006ea0:	fb03 f907 	mul.w	r9, r3, r7
 8006ea4:	ea6f 0909 	mvn.w	r9, r9
 8006ea8:	4628      	mov	r0, r5
 8006eaa:	f1a4 0630 	sub.w	r6, r4, #48	; 0x30
 8006eae:	2e09      	cmp	r6, #9
 8006eb0:	d818      	bhi.n	8006ee4 <_strtoul_l.isra.0+0x98>
 8006eb2:	4634      	mov	r4, r6
 8006eb4:	42a3      	cmp	r3, r4
 8006eb6:	dd24      	ble.n	8006f02 <_strtoul_l.isra.0+0xb6>
 8006eb8:	2d00      	cmp	r5, #0
 8006eba:	db1f      	blt.n	8006efc <_strtoul_l.isra.0+0xb0>
 8006ebc:	4287      	cmp	r7, r0
 8006ebe:	d31d      	bcc.n	8006efc <_strtoul_l.isra.0+0xb0>
 8006ec0:	d101      	bne.n	8006ec6 <_strtoul_l.isra.0+0x7a>
 8006ec2:	45a1      	cmp	r9, r4
 8006ec4:	db1a      	blt.n	8006efc <_strtoul_l.isra.0+0xb0>
 8006ec6:	fb00 4003 	mla	r0, r0, r3, r4
 8006eca:	2501      	movs	r5, #1
 8006ecc:	f81c 4b01 	ldrb.w	r4, [ip], #1
 8006ed0:	e7eb      	b.n	8006eaa <_strtoul_l.isra.0+0x5e>
 8006ed2:	2c2b      	cmp	r4, #43	; 0x2b
 8006ed4:	bf08      	it	eq
 8006ed6:	f89c 4000 	ldrbeq.w	r4, [ip]
 8006eda:	46a8      	mov	r8, r5
 8006edc:	bf08      	it	eq
 8006ede:	f100 0c02 	addeq.w	ip, r0, #2
 8006ee2:	e7c7      	b.n	8006e74 <_strtoul_l.isra.0+0x28>
 8006ee4:	f1a4 0641 	sub.w	r6, r4, #65	; 0x41
 8006ee8:	2e19      	cmp	r6, #25
 8006eea:	d801      	bhi.n	8006ef0 <_strtoul_l.isra.0+0xa4>
 8006eec:	3c37      	subs	r4, #55	; 0x37
 8006eee:	e7e1      	b.n	8006eb4 <_strtoul_l.isra.0+0x68>
 8006ef0:	f1a4 0661 	sub.w	r6, r4, #97	; 0x61
 8006ef4:	2e19      	cmp	r6, #25
 8006ef6:	d804      	bhi.n	8006f02 <_strtoul_l.isra.0+0xb6>
 8006ef8:	3c57      	subs	r4, #87	; 0x57
 8006efa:	e7db      	b.n	8006eb4 <_strtoul_l.isra.0+0x68>
 8006efc:	f04f 35ff 	mov.w	r5, #4294967295
 8006f00:	e7e4      	b.n	8006ecc <_strtoul_l.isra.0+0x80>
 8006f02:	2d00      	cmp	r5, #0
 8006f04:	da07      	bge.n	8006f16 <_strtoul_l.isra.0+0xca>
 8006f06:	2322      	movs	r3, #34	; 0x22
 8006f08:	f8ce 3000 	str.w	r3, [lr]
 8006f0c:	f04f 30ff 	mov.w	r0, #4294967295
 8006f10:	b942      	cbnz	r2, 8006f24 <_strtoul_l.isra.0+0xd8>
 8006f12:	e8bd 83f0 	ldmia.w	sp!, {r4, r5, r6, r7, r8, r9, pc}
 8006f16:	f1b8 0f00 	cmp.w	r8, #0
 8006f1a:	d000      	beq.n	8006f1e <_strtoul_l.isra.0+0xd2>
 8006f1c:	4240      	negs	r0, r0
 8006f1e:	2a00      	cmp	r2, #0
 8006f20:	d0f7      	beq.n	8006f12 <_strtoul_l.isra.0+0xc6>
 8006f22:	b10d      	cbz	r5, 8006f28 <_strtoul_l.isra.0+0xdc>
 8006f24:	f10c 31ff 	add.w	r1, ip, #4294967295
 8006f28:	6011      	str	r1, [r2, #0]
 8006f2a:	e7f2      	b.n	8006f12 <_strtoul_l.isra.0+0xc6>
 8006f2c:	2430      	movs	r4, #48	; 0x30
 8006f2e:	2b00      	cmp	r3, #0
 8006f30:	d1b1      	bne.n	8006e96 <_strtoul_l.isra.0+0x4a>
 8006f32:	2308      	movs	r3, #8
 8006f34:	e7af      	b.n	8006e96 <_strtoul_l.isra.0+0x4a>
 8006f36:	2c30      	cmp	r4, #48	; 0x30
 8006f38:	d0a2      	beq.n	8006e80 <_strtoul_l.isra.0+0x34>
 8006f3a:	230a      	movs	r3, #10
 8006f3c:	e7ab      	b.n	8006e96 <_strtoul_l.isra.0+0x4a>
 8006f3e:	bf00      	nop
 8006f40:	08007ce6 	.word	0x08007ce6

08006f44 <_strtoul_r>:
 8006f44:	f7ff bf82 	b.w	8006e4c <_strtoul_l.isra.0>

08006f48 <__submore>:
 8006f48:	e92d 41f0 	stmdb	sp!, {r4, r5, r6, r7, r8, lr}
 8006f4c:	460c      	mov	r4, r1
 8006f4e:	6b49      	ldr	r1, [r1, #52]	; 0x34
 8006f50:	f104 0344 	add.w	r3, r4, #68	; 0x44
 8006f54:	4299      	cmp	r1, r3
 8006f56:	d11d      	bne.n	8006f94 <__submore+0x4c>
 8006f58:	f44f 6180 	mov.w	r1, #1024	; 0x400
 8006f5c:	f7fe ffe4 	bl	8005f28 <_malloc_r>
 8006f60:	b918      	cbnz	r0, 8006f6a <__submore+0x22>
 8006f62:	f04f 30ff 	mov.w	r0, #4294967295
 8006f66:	e8bd 81f0 	ldmia.w	sp!, {r4, r5, r6, r7, r8, pc}
 8006f6a:	f44f 6380 	mov.w	r3, #1024	; 0x400
 8006f6e:	63a3      	str	r3, [r4, #56]	; 0x38
 8006f70:	f894 3046 	ldrb.w	r3, [r4, #70]	; 0x46
 8006f74:	6360      	str	r0, [r4, #52]	; 0x34
 8006f76:	f880 33ff 	strb.w	r3, [r0, #1023]	; 0x3ff
 8006f7a:	f894 3045 	ldrb.w	r3, [r4, #69]	; 0x45
 8006f7e:	f880 33fe 	strb.w	r3, [r0, #1022]	; 0x3fe
 8006f82:	f894 3044 	ldrb.w	r3, [r4, #68]	; 0x44
 8006f86:	f880 33fd 	strb.w	r3, [r0, #1021]	; 0x3fd
 8006f8a:	f200 30fd 	addw	r0, r0, #1021	; 0x3fd
 8006f8e:	6020      	str	r0, [r4, #0]
 8006f90:	2000      	movs	r0, #0
 8006f92:	e7e8      	b.n	8006f66 <__submore+0x1e>
 8006f94:	6ba6      	ldr	r6, [r4, #56]	; 0x38
 8006f96:	0077      	lsls	r7, r6, #1
 8006f98:	463a      	mov	r2, r7
 8006f9a:	f000 f82b 	bl	8006ff4 <_realloc_r>
 8006f9e:	4605      	mov	r5, r0
 8006fa0:	2800      	cmp	r0, #0
 8006fa2:	d0de      	beq.n	8006f62 <__submore+0x1a>
 8006fa4:	eb00 0806 	add.w	r8, r0, r6
 8006fa8:	4601      	mov	r1, r0
 8006faa:	4632      	mov	r2, r6
 8006fac:	4640      	mov	r0, r8
 8006fae:	f7fe ff55 	bl	8005e5c <memcpy>
 8006fb2:	e9c4 570d 	strd	r5, r7, [r4, #52]	; 0x34
 8006fb6:	f8c4 8000 	str.w	r8, [r4]
 8006fba:	e7e9      	b.n	8006f90 <__submore+0x48>

08006fbc <__retarget_lock_acquire_recursive>:
 8006fbc:	4770      	bx	lr

08006fbe <__retarget_lock_release_recursive>:
 8006fbe:	4770      	bx	lr

08006fc0 <memmove>:
 8006fc0:	4288      	cmp	r0, r1
 8006fc2:	b510      	push	{r4, lr}
 8006fc4:	eb01 0402 	add.w	r4, r1, r2
 8006fc8:	d902      	bls.n	8006fd0 <memmove+0x10>
 8006fca:	4284      	cmp	r4, r0
 8006fcc:	4623      	mov	r3, r4
 8006fce:	d807      	bhi.n	8006fe0 <memmove+0x20>
 8006fd0:	1e43      	subs	r3, r0, #1
 8006fd2:	42a1      	cmp	r1, r4
 8006fd4:	d008      	beq.n	8006fe8 <memmove+0x28>
 8006fd6:	f811 2b01 	ldrb.w	r2, [r1], #1
 8006fda:	f803 2f01 	strb.w	r2, [r3, #1]!
 8006fde:	e7f8      	b.n	8006fd2 <memmove+0x12>
 8006fe0:	4402      	add	r2, r0
 8006fe2:	4601      	mov	r1, r0
 8006fe4:	428a      	cmp	r2, r1
 8006fe6:	d100      	bne.n	8006fea <memmove+0x2a>
 8006fe8:	bd10      	pop	{r4, pc}
 8006fea:	f813 4d01 	ldrb.w	r4, [r3, #-1]!
 8006fee:	f802 4d01 	strb.w	r4, [r2, #-1]!
 8006ff2:	e7f7      	b.n	8006fe4 <memmove+0x24>

08006ff4 <_realloc_r>:
 8006ff4:	b5f8      	push	{r3, r4, r5, r6, r7, lr}
 8006ff6:	4607      	mov	r7, r0
 8006ff8:	4614      	mov	r4, r2
 8006ffa:	460e      	mov	r6, r1
 8006ffc:	b921      	cbnz	r1, 8007008 <_realloc_r+0x14>
 8006ffe:	e8bd 40f8 	ldmia.w	sp!, {r3, r4, r5, r6, r7, lr}
 8007002:	4611      	mov	r1, r2
 8007004:	f7fe bf90 	b.w	8005f28 <_malloc_r>
 8007008:	b922      	cbnz	r2, 8007014 <_realloc_r+0x20>
 800700a:	f7fe ff3d 	bl	8005e88 <_free_r>
 800700e:	4625      	mov	r5, r4
 8007010:	4628      	mov	r0, r5
 8007012:	bdf8      	pop	{r3, r4, r5, r6, r7, pc}
 8007014:	f000 f814 	bl	8007040 <_malloc_usable_size_r>
 8007018:	42a0      	cmp	r0, r4
 800701a:	d20f      	bcs.n	800703c <_realloc_r+0x48>
 800701c:	4621      	mov	r1, r4
 800701e:	4638      	mov	r0, r7
 8007020:	f7fe ff82 	bl	8005f28 <_malloc_r>
 8007024:	4605      	mov	r5, r0
 8007026:	2800      	cmp	r0, #0
 8007028:	d0f2      	beq.n	8007010 <_realloc_r+0x1c>
 800702a:	4631      	mov	r1, r6
 800702c:	4622      	mov	r2, r4
 800702e:	f7fe ff15 	bl	8005e5c <memcpy>
 8007032:	4631      	mov	r1, r6
 8007034:	4638      	mov	r0, r7
 8007036:	f7fe ff27 	bl	8005e88 <_free_r>
 800703a:	e7e9      	b.n	8007010 <_realloc_r+0x1c>
 800703c:	4635      	mov	r5, r6
 800703e:	e7e7      	b.n	8007010 <_realloc_r+0x1c>

08007040 <_malloc_usable_size_r>:
 8007040:	f851 3c04 	ldr.w	r3, [r1, #-4]
 8007044:	1f18      	subs	r0, r3, #4
 8007046:	2b00      	cmp	r3, #0
 8007048:	bfbc      	itt	lt
 800704a:	580b      	ldrlt	r3, [r1, r0]
 800704c:	18c0      	addlt	r0, r0, r3
 800704e:	4770      	bx	lr

08007050 <log2f>:
 8007050:	b508      	push	{r3, lr}
 8007052:	f000 f807 	bl	8007064 <logf>
 8007056:	eddf 7a02 	vldr	s15, [pc, #8]	; 8007060 <log2f+0x10>
 800705a:	ee80 0a27 	vdiv.f32	s0, s0, s15
 800705e:	bd08      	pop	{r3, pc}
 8007060:	3f317218 	.word	0x3f317218

08007064 <logf>:
 8007064:	b508      	push	{r3, lr}
 8007066:	ed2d 8b02 	vpush	{d8}
 800706a:	eeb0 8a40 	vmov.f32	s16, s0
 800706e:	f000 f82f 	bl	80070d0 <__ieee754_logf>
 8007072:	4b14      	ldr	r3, [pc, #80]	; (80070c4 <logf+0x60>)
 8007074:	f993 3000 	ldrsb.w	r3, [r3]
 8007078:	3301      	adds	r3, #1
 800707a:	d014      	beq.n	80070a6 <logf+0x42>
 800707c:	eeb4 8a48 	vcmp.f32	s16, s16
 8007080:	eef1 fa10 	vmrs	APSR_nzcv, fpscr
 8007084:	d60f      	bvs.n	80070a6 <logf+0x42>
 8007086:	eeb5 8ac0 	vcmpe.f32	s16, #0.0
 800708a:	eef1 fa10 	vmrs	APSR_nzcv, fpscr
 800708e:	dc0a      	bgt.n	80070a6 <logf+0x42>
 8007090:	eeb5 8a40 	vcmp.f32	s16, #0.0
 8007094:	eef1 fa10 	vmrs	APSR_nzcv, fpscr
 8007098:	d108      	bne.n	80070ac <logf+0x48>
 800709a:	f7fe fea5 	bl	8005de8 <__errno>
 800709e:	2322      	movs	r3, #34	; 0x22
 80070a0:	ed9f 0a09 	vldr	s0, [pc, #36]	; 80070c8 <logf+0x64>
 80070a4:	6003      	str	r3, [r0, #0]
 80070a6:	ecbd 8b02 	vpop	{d8}
 80070aa:	bd08      	pop	{r3, pc}
 80070ac:	f7fe fe9c 	bl	8005de8 <__errno>
 80070b0:	ecbd 8b02 	vpop	{d8}
 80070b4:	2321      	movs	r3, #33	; 0x21
 80070b6:	6003      	str	r3, [r0, #0]
 80070b8:	e8bd 4008 	ldmia.w	sp!, {r3, lr}
 80070bc:	4803      	ldr	r0, [pc, #12]	; (80070cc <logf+0x68>)
 80070be:	f000 b8f7 	b.w	80072b0 <nanf>
 80070c2:	bf00      	nop
 80070c4:	20000090 	.word	0x20000090
 80070c8:	ff800000 	.word	0xff800000
 80070cc:	08007bd9 	.word	0x08007bd9

080070d0 <__ieee754_logf>:
 80070d0:	ee10 3a10 	vmov	r3, s0
 80070d4:	f033 4200 	bics.w	r2, r3, #2147483648	; 0x80000000
 80070d8:	d106      	bne.n	80070e8 <__ieee754_logf+0x18>
 80070da:	ed9f 7a65 	vldr	s14, [pc, #404]	; 8007270 <__ieee754_logf+0x1a0>
 80070de:	eddf 7a65 	vldr	s15, [pc, #404]	; 8007274 <__ieee754_logf+0x1a4>
 80070e2:	ee87 0a27 	vdiv.f32	s0, s14, s15
 80070e6:	4770      	bx	lr
 80070e8:	2b00      	cmp	r3, #0
 80070ea:	da02      	bge.n	80070f2 <__ieee754_logf+0x22>
 80070ec:	ee30 7a40 	vsub.f32	s14, s0, s0
 80070f0:	e7f5      	b.n	80070de <__ieee754_logf+0xe>
 80070f2:	f1b3 4fff 	cmp.w	r3, #2139095040	; 0x7f800000
 80070f6:	db02      	blt.n	80070fe <__ieee754_logf+0x2e>
 80070f8:	ee30 0a00 	vadd.f32	s0, s0, s0
 80070fc:	4770      	bx	lr
 80070fe:	f5b3 0f00 	cmp.w	r3, #8388608	; 0x800000
 8007102:	bfb8      	it	lt
 8007104:	eddf 7a5c 	vldrlt	s15, [pc, #368]	; 8007278 <__ieee754_logf+0x1a8>
 8007108:	485c      	ldr	r0, [pc, #368]	; (800727c <__ieee754_logf+0x1ac>)
 800710a:	bfbe      	ittt	lt
 800710c:	ee60 7a27 	vmullt.f32	s15, s0, s15
 8007110:	f06f 0118 	mvnlt.w	r1, #24
 8007114:	ee17 3a90 	vmovlt	r3, s15
 8007118:	ea4f 52e3 	mov.w	r2, r3, asr #23
 800711c:	f3c3 0316 	ubfx	r3, r3, #0, #23
 8007120:	4418      	add	r0, r3
 8007122:	bfa8      	it	ge
 8007124:	2100      	movge	r1, #0
 8007126:	3a7f      	subs	r2, #127	; 0x7f
 8007128:	440a      	add	r2, r1
 800712a:	f400 0100 	and.w	r1, r0, #8388608	; 0x800000
 800712e:	f081 517e 	eor.w	r1, r1, #1065353216	; 0x3f800000
 8007132:	4319      	orrs	r1, r3
 8007134:	ee00 1a10 	vmov	s0, r1
 8007138:	4951      	ldr	r1, [pc, #324]	; (8007280 <__ieee754_logf+0x1b0>)
 800713a:	eb02 52d0 	add.w	r2, r2, r0, lsr #23
 800713e:	f103 000f 	add.w	r0, r3, #15
 8007142:	eef7 7a00 	vmov.f32	s15, #112	; 0x3f800000  1.0
 8007146:	4001      	ands	r1, r0
 8007148:	ee30 0a67 	vsub.f32	s0, s0, s15
 800714c:	bb89      	cbnz	r1, 80071b2 <__ieee754_logf+0xe2>
 800714e:	eeb5 0a40 	vcmp.f32	s0, #0.0
 8007152:	eef1 fa10 	vmrs	APSR_nzcv, fpscr
 8007156:	d10f      	bne.n	8007178 <__ieee754_logf+0xa8>
 8007158:	2a00      	cmp	r2, #0
 800715a:	f000 8085 	beq.w	8007268 <__ieee754_logf+0x198>
 800715e:	ee07 2a90 	vmov	s15, r2
 8007162:	ed9f 0a48 	vldr	s0, [pc, #288]	; 8007284 <__ieee754_logf+0x1b4>
 8007166:	ed9f 7a48 	vldr	s14, [pc, #288]	; 8007288 <__ieee754_logf+0x1b8>
 800716a:	eef8 7ae7 	vcvt.f32.s32	s15, s15
 800716e:	ee27 0a80 	vmul.f32	s0, s15, s0
 8007172:	eea7 0a87 	vfma.f32	s0, s15, s14
 8007176:	4770      	bx	lr
 8007178:	eddf 6a44 	vldr	s13, [pc, #272]	; 800728c <__ieee754_logf+0x1bc>
 800717c:	eef6 7a00 	vmov.f32	s15, #96	; 0x3f000000  0.5
 8007180:	eee0 7a66 	vfms.f32	s15, s0, s13
 8007184:	ee20 7a00 	vmul.f32	s14, s0, s0
 8007188:	ee27 7a27 	vmul.f32	s14, s14, s15
 800718c:	b912      	cbnz	r2, 8007194 <__ieee754_logf+0xc4>
 800718e:	ee30 0a47 	vsub.f32	s0, s0, s14
 8007192:	4770      	bx	lr
 8007194:	ee07 2a90 	vmov	s15, r2
 8007198:	eddf 6a3a 	vldr	s13, [pc, #232]	; 8007284 <__ieee754_logf+0x1b4>
 800719c:	eef8 7ae7 	vcvt.f32.s32	s15, s15
 80071a0:	eea7 7ae6 	vfms.f32	s14, s15, s13
 80071a4:	ee37 0a40 	vsub.f32	s0, s14, s0
 80071a8:	ed9f 7a37 	vldr	s14, [pc, #220]	; 8007288 <__ieee754_logf+0x1b8>
 80071ac:	ee97 0a87 	vfnms.f32	s0, s15, s14
 80071b0:	4770      	bx	lr
 80071b2:	eef0 7a00 	vmov.f32	s15, #0	; 0x40000000  2.0
 80071b6:	ee70 7a27 	vadd.f32	s15, s0, s15
 80071ba:	eddf 5a35 	vldr	s11, [pc, #212]	; 8007290 <__ieee754_logf+0x1c0>
 80071be:	eddf 4a35 	vldr	s9, [pc, #212]	; 8007294 <__ieee754_logf+0x1c4>
 80071c2:	4935      	ldr	r1, [pc, #212]	; (8007298 <__ieee754_logf+0x1c8>)
 80071c4:	ee80 6a27 	vdiv.f32	s12, s0, s15
 80071c8:	4419      	add	r1, r3
 80071ca:	f5c3 1357 	rsb	r3, r3, #3522560	; 0x35c000
 80071ce:	f503 7322 	add.w	r3, r3, #648	; 0x288
 80071d2:	430b      	orrs	r3, r1
 80071d4:	2b00      	cmp	r3, #0
 80071d6:	ee07 2a90 	vmov	s15, r2
 80071da:	ee26 5a06 	vmul.f32	s10, s12, s12
 80071de:	eef8 6ae7 	vcvt.f32.s32	s13, s15
 80071e2:	ee25 7a05 	vmul.f32	s14, s10, s10
 80071e6:	eddf 7a2d 	vldr	s15, [pc, #180]	; 800729c <__ieee754_logf+0x1cc>
 80071ea:	eee7 7a25 	vfma.f32	s15, s14, s11
 80071ee:	eddf 5a2c 	vldr	s11, [pc, #176]	; 80072a0 <__ieee754_logf+0x1d0>
 80071f2:	eee7 5a87 	vfma.f32	s11, s15, s14
 80071f6:	eddf 7a2b 	vldr	s15, [pc, #172]	; 80072a4 <__ieee754_logf+0x1d4>
 80071fa:	eee7 7a24 	vfma.f32	s15, s14, s9
 80071fe:	eddf 4a2a 	vldr	s9, [pc, #168]	; 80072a8 <__ieee754_logf+0x1d8>
 8007202:	eee7 4a87 	vfma.f32	s9, s15, s14
 8007206:	eddf 7a29 	vldr	s15, [pc, #164]	; 80072ac <__ieee754_logf+0x1dc>
 800720a:	eee4 7a87 	vfma.f32	s15, s9, s14
 800720e:	ee67 7a85 	vmul.f32	s15, s15, s10
 8007212:	eee5 7a87 	vfma.f32	s15, s11, s14
 8007216:	dd1c      	ble.n	8007252 <__ieee754_logf+0x182>
 8007218:	eeb6 7a00 	vmov.f32	s14, #96	; 0x3f000000  0.5
 800721c:	ee20 7a07 	vmul.f32	s14, s0, s14
 8007220:	ee27 7a00 	vmul.f32	s14, s14, s0
 8007224:	ee77 7a87 	vadd.f32	s15, s15, s14
 8007228:	ee67 7a86 	vmul.f32	s15, s15, s12
 800722c:	b922      	cbnz	r2, 8007238 <__ieee754_logf+0x168>
 800722e:	ee77 7a67 	vsub.f32	s15, s14, s15
 8007232:	ee30 0a67 	vsub.f32	s0, s0, s15
 8007236:	4770      	bx	lr
 8007238:	ed9f 6a12 	vldr	s12, [pc, #72]	; 8007284 <__ieee754_logf+0x1b4>
 800723c:	eee6 7a86 	vfma.f32	s15, s13, s12
 8007240:	ee77 7a67 	vsub.f32	s15, s14, s15
 8007244:	ee37 0ac0 	vsub.f32	s0, s15, s0
 8007248:	eddf 7a0f 	vldr	s15, [pc, #60]	; 8007288 <__ieee754_logf+0x1b8>
 800724c:	ee96 0aa7 	vfnms.f32	s0, s13, s15
 8007250:	4770      	bx	lr
 8007252:	ee70 7a67 	vsub.f32	s15, s0, s15
 8007256:	ee67 7a86 	vmul.f32	s15, s15, s12
 800725a:	2a00      	cmp	r2, #0
 800725c:	d0e9      	beq.n	8007232 <__ieee754_logf+0x162>
 800725e:	ed9f 7a09 	vldr	s14, [pc, #36]	; 8007284 <__ieee754_logf+0x1b4>
 8007262:	eee6 7ac7 	vfms.f32	s15, s13, s14
 8007266:	e7ed      	b.n	8007244 <__ieee754_logf+0x174>
 8007268:	ed9f 0a02 	vldr	s0, [pc, #8]	; 8007274 <__ieee754_logf+0x1a4>
 800726c:	4770      	bx	lr
 800726e:	bf00      	nop
 8007270:	cc000000 	.word	0xcc000000
 8007274:	00000000 	.word	0x00000000
 8007278:	4c000000 	.word	0x4c000000
 800727c:	004afb20 	.word	0x004afb20
 8007280:	007ffff0 	.word	0x007ffff0
 8007284:	3717f7d1 	.word	0x3717f7d1
 8007288:	3f317180 	.word	0x3f317180
 800728c:	3eaaaaab 	.word	0x3eaaaaab
 8007290:	3e1cd04f 	.word	0x3e1cd04f
 8007294:	3e178897 	.word	0x3e178897
 8007298:	ffcf5c30 	.word	0xffcf5c30
 800729c:	3e638e29 	.word	0x3e638e29
 80072a0:	3ecccccd 	.word	0x3ecccccd
 80072a4:	3e3a3325 	.word	0x3e3a3325
 80072a8:	3e924925 	.word	0x3e924925
 80072ac:	3f2aaaab 	.word	0x3f2aaaab

080072b0 <nanf>:
 80072b0:	ed9f 0a01 	vldr	s0, [pc, #4]	; 80072b8 <nanf+0x8>
 80072b4:	4770      	bx	lr
 80072b6:	bf00      	nop
 80072b8:	7fc00000 	.word	0x7fc00000

080072bc <_init>:
 80072bc:	b5f8      	push	{r3, r4, r5, r6, r7, lr}
 80072be:	bf00      	nop
 80072c0:	bcf8      	pop	{r3, r4, r5, r6, r7}
 80072c2:	bc08      	pop	{r3}
 80072c4:	469e      	mov	lr, r3
 80072c6:	4770      	bx	lr

080072c8 <_fini>:
 80072c8:	b5f8      	push	{r3, r4, r5, r6, r7, lr}
 80072ca:	bf00      	nop
 80072cc:	bcf8      	pop	{r3, r4, r5, r6, r7}
 80072ce:	bc08      	pop	{r3}
 80072d0:	469e      	mov	lr, r3
 80072d2:	4770      	bx	lr
